
FreeModbus.elf:     file format elf32-littleriscv
FreeModbus.elf
architecture: riscv:rv32, flags 0x00000112:
EXEC_P, HAS_SYMS, D_PAGED
start address 0x00000000

Program Header:
    LOAD off    0x00001000 vaddr 0x00000000 paddr 0x00000000 align 2**12
         filesz 0x0000cd20 memsz 0x0000cd20 flags r-x
    LOAD off    0x0000e000 vaddr 0x20000000 paddr 0x0000cd20 align 2**12
         filesz 0x00000180 memsz 0x0000a3f8 flags rw-
    LOAD off    0x0000e800 vaddr 0x2000f800 paddr 0x2000f800 align 2**12
         filesz 0x00000000 memsz 0x00000800 flags rw-

Sections:
Idx Name          Size      VMA       LMA       File off  Algn
  0 .init         00000038  00000000  00000000  00001000  2**1
                  CONTENTS, ALLOC, LOAD, READONLY, CODE
  1 .vector       000001c8  00000038  00000038  00001038  2**1
                  CONTENTS, ALLOC, LOAD, READONLY, CODE
  2 .text         0000cb20  00000200  00000200  00001200  2**8
                  CONTENTS, ALLOC, LOAD, READONLY, CODE
  3 .fini         00000000  0000cd20  0000cd20  0000e180  2**0
                  CONTENTS, ALLOC, LOAD, CODE
  4 .dalign       00000000  20000000  20000000  0000e180  2**0
                  CONTENTS
  5 .dlalign      00000000  0000cd20  0000cd20  0000e180  2**0
                  CONTENTS
  6 .data         00000180  20000000  0000cd20  0000e000  2**2
                  CONTENTS, ALLOC, LOAD, DATA
  7 .bss          0000a278  20000180  0000cea0  0000e180  2**2
                  ALLOC
  8 .stack        00000800  2000f800  2000f800  0000e800  2**0
                  ALLOC
  9 .debug_info   0006a80a  00000000  00000000  0000e180  2**0
                  CONTENTS, READONLY, DEBUGGING
 10 .debug_abbrev 00007bcd  00000000  00000000  0007898a  2**0
                  CONTENTS, READONLY, DEBUGGING
 11 .debug_loc    0000f0d0  00000000  00000000  00080557  2**0
                  CONTENTS, READONLY, DEBUGGING
 12 .debug_aranges 000017a0  00000000  00000000  0008f628  2**3
                  CONTENTS, READONLY, DEBUGGING
 13 .debug_ranges 00001d38  00000000  00000000  00090dc8  2**3
                  CONTENTS, READONLY, DEBUGGING
 14 .debug_line   00025590  00000000  00000000  00092b00  2**0
                  CONTENTS, READONLY, DEBUGGING
 15 .debug_str    00014f38  00000000  00000000  000b8090  2**0
                  CONTENTS, READONLY, DEBUGGING
 16 .comment      00000033  00000000  00000000  000ccfc8  2**0
                  CONTENTS, READONLY
 17 .debug_frame  00004640  00000000  00000000  000ccffc  2**2
                  CONTENTS, READONLY, DEBUGGING
 18 .stab         00000084  00000000  00000000  000d163c  2**2
                  CONTENTS, READONLY, DEBUGGING
 19 .stabstr      00000183  00000000  00000000  000d16c0  2**0
                  CONTENTS, READONLY, DEBUGGING
SYMBOL TABLE:
00000000 l    d  .init	00000000 .init
00000038 l    d  .vector	00000000 .vector
00000200 l    d  .text	00000000 .text
0000cd20 l    d  .fini	00000000 .fini
20000000 l    d  .dalign	00000000 .dalign
0000cd20 l    d  .dlalign	00000000 .dlalign
20000000 l    d  .data	00000000 .data
20000180 l    d  .bss	00000000 .bss
2000f800 l    d  .stack	00000000 .stack
00000000 l    d  .debug_info	00000000 .debug_info
00000000 l    d  .debug_abbrev	00000000 .debug_abbrev
00000000 l    d  .debug_loc	00000000 .debug_loc
00000000 l    d  .debug_aranges	00000000 .debug_aranges
00000000 l    d  .debug_ranges	00000000 .debug_ranges
00000000 l    d  .debug_line	00000000 .debug_line
00000000 l    d  .debug_str	00000000 .debug_str
00000000 l    d  .comment	00000000 .comment
00000000 l    d  .debug_frame	00000000 .debug_frame
00000000 l    d  .stab	00000000 .stab
00000000 l    d  .stabstr	00000000 .stabstr
00000000 l    df *ABS*	00000000 ./Startup/startup_ch32v30x_D8C.o
00000038 l       .vector	00000000 _vector_base
00000000 l    df *ABS*	00000000 ./FreeRTOS/portable/GCC/RISC-V/portASM.o
00000260 l       .text	00000000 processed_source
00000428 l       .text	00000000 chip_specific_stack_frame
00000000 l    df *ABS*	00000000 portevent.c
20000180 l     O .bss	00000004 eQueuedEvent
20000184 l     O .bss	00000001 xEventInQueue
00000000 l    df *ABS*	00000000 porttcp.c
00000632 l     F .text	00000014 prvvMBPortReleaseClient.part.0
200019f8 l     O .bss	00000107 aucTCPBuf
20001b00 l     O .bss	00000107 outTCPBuf
20000198 l     O .bss	00000002 usTCPBufPos
2000019c l     O .bss	00000004 xPortTCPOSEventGroup
00000000 l    df *ABS*	00000000 mbtcp.c
00000000 l    df *ABS*	00000000 mbfunccoils.c
00000000 l    df *ABS*	00000000 mbfuncdisc.c
00000000 l    df *ABS*	00000000 mbfuncholding.c
00000000 l    df *ABS*	00000000 mbfuncinput.c
00000000 l    df *ABS*	00000000 mbfuncother.c
20001c08 l     O .bss	00000020 ucMBSlaveID
200001a0 l     O .bss	00000002 usMBSlaveIDLen
00000000 l    df *ABS*	00000000 mbutils.c
2000014c l     O .data	00000008 CSWTCH.5
00000000 l    df *ABS*	00000000 mb.c
20000000 l     O .data	00000080 xFuncHandlers
200001a4 l     O .bss	00000004 eException.6568
200001a8 l     O .bss	00000004 peMBFrameReceiveCur
200001ac l     O .bss	00000004 peMBFrameSendCur
200001b0 l     O .bss	00000004 pvMBFrameCloseCur
200001b4 l     O .bss	00000004 pvMBFrameStartCur
200001b8 l     O .bss	00000004 pvMBFrameStopCur
200001bc l     O .bss	00000001 ucFunctionCode.6566
200001c0 l     O .bss	00000004 ucMBFrame.6564
200001c4 l     O .bss	00000001 ucRcvAddress.6565
200001c6 l     O .bss	00000002 usLength.6567
20000110 l     O .data	00000004 eMBState
20000114 l     O .data	00000001 ucMBAddress
00000000 l    df *ABS*	00000000 ch32v30x_it.c
00000000 l    df *ABS*	00000000 main.c
20001c28 l     O .bss	00000014 usRegHoldingBuf
00000000 l    df *ABS*	00000000 system_ch32v30x.c
00000000 l    df *ABS*	00000000 system_init.c
0000158c l     F .text	0000000e vDefaultTask
0000159a l     F .text	0000001a WCHNET_task
20001c3c l     O .bss	00000800 MBTCPTaskBuffer
20002490 l     O .bss	00000800 WCHNETTaskBuffer
2000243c l     O .bss	00000054 MBTCPTaskControlBlock
20002c90 l     O .bss	00000054 WCHNETTaskControlBlock
20002ce4 l     O .bss	00000200 defaultTaskBuffer
20002ee4 l     O .bss	00000054 defaultTaskControlBlock
20002f58 l     O .bss	00000400 uxIdleTaskStack
20003358 l     O .bss	00000400 uxTimerTaskStack
20003758 l     O .bss	00000054 xIdleTaskTCB
200037ac l     O .bss	0000001c xOSStateEventGroup
200037c8 l     O .bss	00000048 xStaticQueue
20003810 l     O .bss	00000054 xTimerTaskTCB
00000000 l    df *ABS*	00000000 ch32v30x_adc.c
00000000 l    df *ABS*	00000000 ch32v30x_dbgmcu.c
00000000 l    df *ABS*	00000000 ch32v30x_dma.c
00000000 l    df *ABS*	00000000 ch32v30x_eth.c
00000000 l    df *ABS*	00000000 ch32v30x_exti.c
00000000 l    df *ABS*	00000000 ch32v30x_gpio.c
00000000 l    df *ABS*	00000000 ch32v30x_misc.c
00000000 l    df *ABS*	00000000 ch32v30x_rcc.c
20000090 l     O .data	00000010 APBAHBPrescTable
2000011c l     O .data	00000004 ADCPrescTable
00000000 l    df *ABS*	00000000 ch32v30x_tim.c
00000000 l    df *ABS*	00000000 ch32v30x_usart.c
00000000 l    df *ABS*	00000000 eth_driver_10M.c
00000000 l    df *ABS*	00000000 hw_lib_keyboard.c
2000020c l     O .bss	00000004 pKeyboardQueue
00000000 l    df *ABS*	00000000 hal_adc.c
00000000 l    df *ABS*	00000000 hal_dma.c
00002fae l     F .text	0000003a DMA_IRQ
00000000 l    df *ABS*	00000000 hal_gpio_ch32.c
00000000 l    df *ABS*	00000000 heap_4.c
00003088 l     F .text	00000044 prvInsertBlockIntoFreeList
20000218 l     O .bss	00000004 pxEnd
2000021c l     O .bss	00000004 xBlockAllocatedBit
20000220 l     O .bss	00000004 xFreeBytesRemaining
20000224 l     O .bss	00000004 xNumberOfSuccessfulFrees
20000228 l     O .bss	00000008 xStart
00000000 l    df *ABS*	00000000 port.c
20000124 l     O .data	00000004 uxCriticalNesting
00000000 l    df *ABS*	00000000 event_groups.c
00000000 l    df *ABS*	00000000 list.c
00000000 l    df *ABS*	00000000 queue.c
000035b8 l     F .text	0000001e prvIsQueueEmpty
000035d6 l     F .text	00000028 prvCopyDataFromQueue
000035fe l     F .text	00000076 prvUnlockQueue
00000000 l    df *ABS*	00000000 tasks.c
00003a12 l     F .text	00000102 prvAddNewTaskToReadyList
00003b14 l     F .text	0000001c prvResetNextTaskUnblockTime
00003b30 l     F .text	000000c8 prvInitialiseNewTask.isra.2
00003bf8 l     F .text	0000004e prvDeleteTCB
00003c46 l     F .text	00000042 prvIdleTask
00003c88 l     F .text	00000092 prvAddCurrentTaskToDelayedList
2000a054 l     O .bss	0000012c pxReadyTasksLists
2000a180 l     O .bss	00000014 xDelayedTaskList1
2000a194 l     O .bss	00000014 xDelayedTaskList2
2000a1a8 l     O .bss	00000014 xPendingReadyList
2000a1bc l     O .bss	00000014 xSuspendedTaskList
2000a1d0 l     O .bss	00000014 xTasksWaitingTermination
20000234 l     O .bss	00000004 pxDelayedTaskList
20000238 l     O .bss	00000004 pxOverflowDelayedTaskList
2000023c l     O .bss	00000004 uxCurrentNumberOfTasks
20000240 l     O .bss	00000004 uxDeletedTasksWaitingCleanUp
20000244 l     O .bss	00000004 uxSchedulerSuspended
20000248 l     O .bss	00000004 uxTaskNumber
2000024c l     O .bss	00000004 uxTopReadyPriority
20000250 l     O .bss	00000004 xNextTaskUnblockTime
20000254 l     O .bss	00000004 xNumOfOverflows
20000258 l     O .bss	00000004 xPendedTicks
2000025c l     O .bss	00000004 xSchedulerRunning
20000260 l     O .bss	00000004 xTickCount
20000264 l     O .bss	00000004 xYieldPending
00000000 l    df *ABS*	00000000 timers.c
00004628 l     F .text	0000006a prvCheckForValidListAndQueue
00004692 l     F .text	0000003e prvInsertTimerInActiveList
000046d0 l     F .text	0000002a prvReloadTimer
000046fa l     F .text	00000042 prvProcessExpiredTimer
0000473c l     F .text	00000028 prvSwitchTimerLists
00004764 l     F .text	00000188 prvTimerTask
2000a1e4 l     O .bss	00000040 ucStaticTimerQueueStorage.6729
2000a224 l     O .bss	00000014 xActiveTimerList1
2000a238 l     O .bss	00000014 xActiveTimerList2
2000a24c l     O .bss	00000048 xStaticTimerQueue.6728
20000268 l     O .bss	00000004 pxCurrentTimerList
2000026c l     O .bss	00000004 pxOverflowTimerList
20000270 l     O .bss	00000004 xLastTime.6685
20000274 l     O .bss	00000004 xTimerQueue
20000278 l     O .bss	00000004 xTimerTaskHandle
00000000 l    df *ABS*	00000000 debug.c
2000027c l     O .bss	00000002 p_ms
2000027e l     O .bss	00000001 p_us
2000012c l     O .data	00000004 curbrk.5586
00000000 l    df *ABS*	00000000 core_riscv.c
00000000 l    df *ABS*	00000000 eth_api.c
00000000 l    df *ABS*	00000000 ipcheck.c
00000000 l    df *ABS*	00000000 socket.c
00000000 l    df *ABS*	00000000 etharp.c
00005ee4 l     F .text	0000017e find_entry
00006062 l     F .text	000000b2 update_arp_entry
200002ac l     O .bss	00000001 etharp_cached_entry
00000000 l    df *ABS*	00000000 ethernetif.c
000066f2 l     F .text	00000052 low_level_output
00000000 l    df *ABS*	00000000 inet.c
00000000 l    df *ABS*	00000000 ip.c
200002b8 l     O .bss	00000002 ip_id.2936
00000000 l    df *ABS*	00000000 ip_addr.c
00000000 l    df *ABS*	00000000 ip_frag.c
200002ba l     O .bss	00000002 ip_reass_pbufcount
200002bc l     O .bss	00000004 reassdatagrams
00000000 l    df *ABS*	00000000 dhcp.c
00007376 l     F .text	0000000e dhcp_set_state
00007384 l     F .text	00000020 dhcp_option
000073a4 l     F .text	00000012 dhcp_option_byte
000073b6 l     F .text	00000048 dhcp_option_long
000073fe l     F .text	00000034 dhcp_option_trailer
00007432 l     F .text	0000017e dhcp_create_request
000075b0 l     F .text	0000001e dhcp_delete_request
20000134 l     O .data	00000004 xid.3256
00000000 l    df *ABS*	00000000 init.c
00000000 l    df *ABS*	00000000 mem.c
200002c0 l     O .bss	00000004 lfree
200002c4 l     O .bss	00000004 ram
200002c8 l     O .bss	00000004 ram_end
00000000 l    df *ABS*	00000000 memp.c
2000a3c0 l     O .bss	00000020 memp_tab
00000000 l    df *ABS*	00000000 netif.c
200002d4 l     O .bss	00000001 netifnum.2471
00000000 l    df *ABS*	00000000 pbuf.c
00000000 l    df *ABS*	00000000 raw.c
200002d8 l     O .bss	00000004 raw_pcbs
00000000 l    df *ABS*	00000000 tcp.c
0000806c l     F .text	00000004 tcp_accept_null
00008070 l     F .text	0000005c tcp_new_port
200002ec l     O .bss	00000001 tcp_timer
20000140 l     O .data	00000004 iss.3186
20000144 l     O .data	00000002 port.3018
00000000 l    df *ABS*	00000000 tcp_in.c
00008b3e l     F .text	000000ce tcp_oos_insert_segment
00008c0c l     F .text	000008f0 tcp_receive
000094fc l     F .text	000000a6 tcp_parseopt.isra.0
2000a3e0 l     O .bss	00000014 inseg
200002f8 l     O .bss	00000004 ackno
200002fc l     O .bss	00000001 flags
20000300 l     O .bss	00000004 iphdr
20000304 l     O .bss	00000004 recv_data
20000308 l     O .bss	00000001 recv_flags
2000030c l     O .bss	00000004 seqno
20000314 l     O .bss	00000004 tcphdr
20000318 l     O .bss	00000002 tcplen
00000000 l    df *ABS*	00000000 tcp_out.c
00009f78 l     F .text	000000d4 tcp_output_set_header.isra.0.constprop.1
00000000 l    df *ABS*	00000000 udp.c
00000000 l    df *ABS*	00000000 icmp.c
0000b0be l     F .text	00000074 icmp_send_response.isra.0
00000000 l    df *ABS*	00000000 inet_chksum.c
0000b3aa l     F .text	0000007e lwip_standard_chksum
00000000 l    df *ABS*	00000000 fprintf.c
00000000 l    df *ABS*	00000000 memcpy.c
00000000 l    df *ABS*	00000000 nano-vfprintf.c
0000b688 l     F .text	00000028 __sfputc_r
00000000 l    df *ABS*	00000000 nano-vfprintf_i.c
00000000 l    df *ABS*	00000000 printf.c
00000000 l    df *ABS*	00000000 putchar.c
00000000 l    df *ABS*	00000000 puts.c
00000000 l    df *ABS*	00000000 wbuf.c
00000000 l    df *ABS*	00000000 wsetup.c
00000000 l    df *ABS*	00000000 fflush.c
00000000 l    df *ABS*	00000000 findfp.c
0000c1c6 l     F .text	00000066 std
00000000 l    df *ABS*	00000000 fwalk.c
00000000 l    df *ABS*	00000000 makebuf.c
00000000 l    df *ABS*	00000000 memchr.c
00000000 l    df *ABS*	00000000 nano-mallocr.c
00000000 l    df *ABS*	00000000 nano-mallocr.c
00000000 l    df *ABS*	00000000 putc.c
00000000 l    df *ABS*	00000000 sbrkr.c
00000000 l    df *ABS*	00000000 stdio.c
00000000 l    df *ABS*	00000000 writer.c
00000000 l    df *ABS*	00000000 closer.c
00000000 l    df *ABS*	00000000 fstatr.c
00000000 l    df *ABS*	00000000 isattyr.c
00000000 l    df *ABS*	00000000 lseekr.c
00000000 l    df *ABS*	00000000 mlock.c
00000000 l    df *ABS*	00000000 readr.c
00000000 l    df *ABS*	00000000 close.c
00000000 l    df *ABS*	00000000 fstat.c
00000000 l    df *ABS*	00000000 isatty.c
00000000 l    df *ABS*	00000000 lseek.c
00000000 l    df *ABS*	00000000 read.c
00000000 l    df *ABS*	00000000 impure.c
200000a0 l     O .data	00000060 impure_data
00000000 l    df *ABS*	00000000 reent.c
20000130 g     O .data	00000004 arp_table
000042f2 g     F .text	00000072 vTaskPlaceOnEventListRestricted
0000138e g     F .text	00000048 main
0000b382 g     F .text	00000014 icmp_dest_unreach
0000c6e6 g     F .text	00000032 _sbrk_r
00004c90 g     F .text	0000004e WCHNET_PhyStatus
0000c7c2 g     F .text	00000036 _write_r
0000174e  w      .text	00000000 USBHSWakeup_IRQHandler
000016e2  w      .text	00000000 DMA1_Channel4_IRQHandler
00006d36 g     F .text	000000e6 ip_reass_tmr
0000803c g     F .text	00000030 raw_new
00005d62 g     F .text	00000038 CloseUpdConnect
00008300 g     F .text	0000002a tcp_seg_free
0000c8c2 g     F .text	00000034 _read_r
00001674 g     F .text	0000001a vSYSeventInit
2000a2b8 g     O .bss	00000040 dhcp_host_name
000026ce g     F .text	0000004a ETH_LedConfiguration
000016d4  w      .text	00000000 EXTI1_IRQHandler
00004216 g     F .text	00000044 vTaskPlaceOnEventList
00008370 g     F .text	00000004 tcp_arg
0000452a g     F .text	0000000e vTaskInternalSetTimeOutState
2000a3f4 g     O .bss	00000004 errno
00003e50 g     F .text	0000000c vTaskSuspendAll
00001774  w      .text	00000000 DMA2_Channel11_IRQHandler
000004ee g     F .text	00000028 .hidden __riscv_save_10
0000c828 g     F .text	00000032 _fstat_r
0000a04c g     F .text	00000448 tcp_enqueue
200001f2 g     O .bss	00000001 TRDetectStep
2000028c g     O .bss	00000004 DHCPfineTimer
000004e6 g     F .text	00000030 .hidden __riscv_save_12
00002f20 g     F .text	00000006 xKeyboardQueue
000004ee g     F .text	00000028 .hidden __riscv_save_11
00001764  w      .text	00000000 TIM10_UP_IRQHandler
00001afc g     F .text	00000032 ETH_Start
0000aed0 g     F .text	000000d6 udp_sendto_if
2000a3f8 g       .bss	00000000 _ebss
000082c4 g     F .text	0000003c tcp_recved
0000172e  w      .text	00000000 UART4_IRQHandler
0000869c g     F .text	00000072 tcp_pcb_remove
00008348 g     F .text	00000028 tcp_seg_copy
00007b8a g     F .text	00000006 netif_set_default
00001722  w      .text	00000000 TIM8_CC_IRQHandler
000045fe g     F .text	00000014 xTaskGetSchedulerState
00002102 g     F .text	000000bc WCHNET_PhyPNProcess
00004dc4 g     F .text	00000054 getTxBuffAddr
200001d8 g     O .bss	00000004 ChipId
00004e72 g     F .text	00000042 IPCheckTmr
0000ccc0 g     O .text	00000020 __sf_fake_stderr
20000280 g     O .bss	00000004 ARPTimer
00001240 g     F .text	00000008 ETH_IRQHandler
0000170e  w      .text	00000000 SPI2_IRQHandler
00004f22 g     F .text	00000004 LwipTCPPollCallBack
00000b8c g     F .text	0000006c eMBFuncWriteCoil
00003266 g     F .text	00000016 vPortEnterCritical
00003598 g     F .text	00000020 uxListRemove
000019ee g     F .text	00000052 ETH_WritePHYRegister
0000c388 g     F .text	0000006a _fwalk_reent
2000013c g     O .data	00000004 memp_sizes
00001996 g     F .text	00000058 ETH_ReadPHYRegister
000011ec g     F .text	00000054 EXTI9_5_IRQHandler
00008ace g     F .text	00000010 tcp_new
00003dc0 g     F .text	00000090 vTaskStartScheduler
000020ae g     F .text	00000024 ETH_LedLinkSet
00006b5c g     F .text	0000015a ip_output_if
00004aae g     F .text	00000006 __get_MEPC
0000322e g     F .text	00000038 SysTick_Handler
200062f4 g     O .bss	00000c00 MACTxBuf
00001720  w      .text	00000000 TIM8_TRG_COM_IRQHandler
0000170c  w      .text	00000000 SPI1_IRQHandler
000052c4 g     F .text	000000ac WCHNET_Init
200001cc g     O .bss	00000004 DMARxDescToGet
000016c8  w      .text	00000000 PVD_IRQHandler
200002a4 g     O .bss	00000001 SockNumber
000020f2 g     F .text	00000010 WCHNET_TimeIsr
000048ec g     F .text	0000006e xTimerCreateTimerTask
0000172a  w      .text	00000000 TIM5_IRQHandler
00000d16 g     F .text	00000040 eMBFuncWriteHoldingRegister
0000be78 g     F .text	000000bc __swbuf_r
000068c2 g     F .text	0000029a ip_input
20000148 g     O .data	00000004 _impure_ptr
00003e5c g     F .text	00000006 xTaskGetTickCount
000087c0 g     F .text	00000030 tcp_recv_null
000087f0 g     F .text	00000062 tcp_fasttmr
20000324 g     O .bss	00000004 __malloc_sbrk_start
00001c20 g     F .text	00000176 RCC_GetClocksFreq
00007ae2 g     F .text	0000004e netif_set_addr
00008386 g     F .text	00000004 tcp_accept
00000546 g     F .text	000000a8 memset
0000cc24 g     O .text	00000010 ErrTable
2000f800 g       .stack	00000000 _heap_end
0000cd00 g     O .text	00000020 __sf_fake_stdout
0000ba8a g     F .text	000002a4 _printf_i
00000af4 g     F .text	00000098 eMBFuncReadCoils
00008874 g     F .text	0000007c tcp_fastsendack
000030cc g     F .text	0000009a vPortFree
20000080 g     O .data	00000010 AHBPrescTable
00004cde g     F .text	0000009a WCHNET_Rx
0000c916 g     F .text	00000010 _isatty
00008394 g     F .text	0000004e tcp_pcb_purge
00001e1e g     F .text	00000010 RCC_PREDIV2Config
00001386 g     F .text	00000004 eMBRegCoilsCB
0000171a  w      .text	00000000 USBWakeUp_IRQHandler
0000175c  w      .text	00000000 TIM9_UP_IRQHandler
00008380 g     F .text	00000006 tcp_err
000013d6 g     F .text	000000fc SystemInit
20000120 g     O .data	00000001 LinkTaskPeriod
00000dce g     F .text	0000007a eMBFuncReadHoldingRegister
00008ade g     F .text	0000002e tcp_eff_send_mss
00004eb4 g     F .text	0000002e IPConflictHandle
00000982 g     F .text	0000006c xMBTCPPortInit
0000a4da g     F .text	00000070 tcp_send_empty_ack
00005278 g     F .text	0000004c WCHSocketInit
0000b532 g     F .text	00000014 inet_chksum
200002f4 g     O .bss	00000004 tcp_tw_pcbs
00004ac0 g     F .text	000001bc WCHNET_PeriodicHandle
000004ee g     F .text	00000028 .hidden __riscv_save_8
000004ee g     F .text	00000028 .hidden __riscv_save_9
200002e8 g     O .bss	00000004 tcp_ticks
0000175a  w      .text	00000000 TIM9_BRK_IRQHandler
0000092c g     F .text	00000056 MBTCP_task
00001b4c g     F .text	0000000a EXTI_ClearITPendingBit
00005ca0 g     F .text	00000054 WCHNET_SocketSetKeepLive
000016c6  w      .text	00000000 WWDG_IRQHandler
00002f26 g     F .text	00000088 ADC1_2_IRQHandler
000016e4  w      .text	00000000 DMA1_Channel5_IRQHandler
000077a6 g     F .text	00000084 mem_free
00006cec g     F .text	0000004a ip_addr_isbroadcast
0000173e  w      .text	00000000 DMA2_Channel5_IRQHandler
000079c4 g     F .text	00000050 memp_init
0000418c g     F .text	0000008a vTaskSwitchContext
00002b2c g     F .text	00000030 WCHNET_RecProcess
200001f0 g     O .bss	00000001 ReInitMACFlag
00005c96 g     F .text	0000000a WCHNET_GetPHYStatus
000083e2 g     F .text	000002ba tcp_slowtmr
20000100 g     O .data	00000004 GWIPAddr
0000c936 g     F .text	00000010 _read
2000031c g     O .bss	00000004 udp_pcbs
000015b4 g     F .text	0000001c vApplicationGetIdleTaskMemory
0000c448 g     F .text	00000090 __smakebuf_r
20002f38 g     O .bss	00000020 ucQueueStorageArea
000020d2 g     F .text	00000020 WCHNET_GetMacAddr
0000aa6c g     F .text	00000062 tcp_rexmit_fast
000016c0  w      .text	00000000 Break_Point_Handler
000031a0 g     F .text	0000008e xPortStartScheduler
0000201c g     F .text	00000016 USART_Cmd
0000c594 g     F .text	000000ce _malloc_r
000016d0  w      .text	00000000 RCC_IRQHandler
000015d0 g     F .text	0000001c vApplicationGetTimerTaskMemory
00001706  w      .text	00000000 I2C1_ER_IRQHandler
000067b4 g     F .text	00000076 wch_ethernetif_init
0000838a g     F .text	0000000a tcp_poll
00006324 g     F .text	000000ce etharp_request
200002f0 g     O .bss	00000004 tcp_tmp_pcb
0000c906 g     F .text	00000010 _fstat
200001c8 g     O .bss	00000004 xOSEventGroupHandle
00007a34 g     F .text	00000018 memp_free
00000a64 g     F .text	00000010 eMBTCPDoInit
000009fa g     F .text	0000001e xMBTCPPortGetRequest
0000a4aa g     F .text	00000030 tcp_write
00004538 g     F .text	000000be xTaskCheckForTimeOut
00001266 g     F .text	00000068 GPIO_Toggle_INIT
200002e4 g     O .bss	00000004 tcp_listen_pcbs
00007b30 g     F .text	0000005a netif_add
000016cc  w      .text	00000000 RTC_IRQHandler
000016e6  w      .text	00000000 DMA1_Channel6_IRQHandler
00003fe2 g     F .text	00000148 xTaskResumeAll
0000abfe g     F .text	00000238 udp_input
0000b396 g     F .text	00000014 icmp_time_exceeded
00006876 g     F .text	0000004c ip_route
0000a9ba g     F .text	00000036 tcp_rexmit_rto
20000208 g     O .bss	00000001 phyStatus
00004fe6 g     F .text	000000d6 SocketUdpReceive
0000832a g     F .text	0000001e tcp_segs_free
200001ec g     O .bss	00000004 RandVal
00003674 g     F .text	000000c4 xQueueGenericReset
2000a388 g     O .bss	00000038 WCHNetIf
200002cc g     O .bss	00000004 netif_default
00001752  w      .text	00000000 DVP_IRQHandler
000012e8 g     F .text	00000024 eMBRegInputCB
00005eb0 g     F .text	0000000e QueryPingEnable
200002dc g     O .bss	00000004 tcp_active_pcbs
0000caf8 g     O .text	00000010 MemNum
200001dc g     O .bss	00000001 DuplexMode
20000121 g     O .data	00000001 phyPN
20000900 g       .data	00000000 __global_pointer$
00000646 g     F .text	0000006c TIM2_Init
0000bf34 g     F .text	000000fc __swsetup_r
000016f8  w      .text	00000000 TIM1_UP_IRQHandler
00007ffc g     F .text	00000010 raw_send
00008852 g     F .text	00000022 tcp_tmr
00004364 g     F .text	000000dc xTaskRemoveFromEventList
0000c926 g     F .text	00000010 _lseek
000032be g     F .text	00000070 xEventGroupCreateStatic
200002b0 g     O .bss	00000008 frame
0000175e  w      .text	00000000 TIM9_TRG_COM_IRQHandler
00004980 g     F .text	00000036 Delay_Us
00004440 g     F .text	000000ea vTaskRemoveFromUnorderedEventList
00000ff8 g     F .text	00000072 eMBTCPInit
0000c7f8 g     F .text	00000030 _close_r
200002a0 g     O .bss	00000004 phydatatime
00001808 g     F .text	0000001c ADC_GetITStatus
000095a2 g     F .text	000009d6 tcp_input
00003034 g     F .text	0000004c DMA1_Channel2_IRQHandler
0000a9f0 g     F .text	0000007c tcp_rexmit
00005b7e g     F .text	0000009c LwipRemoveTcpPcb
00006cb6 g     F .text	00000036 ip_output
00001824 g     F .text	0000000a ADC_ClearITPendingBit
00001708  w      .text	00000000 I2C2_EV_IRQHandler
00001ae4 g     F .text	00000008 ETH_DMAClearITPendingBit
00003488 g     F .text	000000c8 xEventGroupSetBits
00005dd2 g     F .text	0000007e CloseTcpPCB
200038d4 g     O .bss	00000020 DMATxDscrTab
00000516 g     F .text	0000000c .hidden __riscv_save_2
00001700  w      .text	00000000 TIM3_IRQHandler
000016e8  w      .text	00000000 DMA1_Channel7_IRQHandler
00002dfa g     F .text	000000a2 ETH_Init
20000178 g     O .data	00000004 _global_impure_ptr
00000516 g     F .text	0000000c .hidden __riscv_save_0
00000516 g     F .text	0000000c .hidden __riscv_save_1
00000300 g       .text	00000000 xPortStartFirstTask
00001db4 g     F .text	0000001e RCC_APB2PeriphClockCmd
2000a294 g     O .bss	0000000c SelARP
2000a318 g     O .bss	00000044 NetInf
00000516 g     F .text	0000000c .hidden __riscv_save_3
0000c4f0 g     F .text	000000a4 _free_r
20000118 g     O .data	00000004 SystemCoreClock
0000afa6 g     F .text	0000002e udp_sendto
0000b428 g     F .text	0000010a inet_chksum_pseudo
00000f34 g     F .text	00000088 eMBFuncReadInputRegister
00000800 g       *ABS*	00000000 __stack_size
000004fc g     F .text	0000001a .hidden __riscv_save_7
000004fc g     F .text	0000001a .hidden __riscv_save_6
00001e40 g     F .text	00000024 RCC_PLL3Cmd
00007dfe g     F .text	0000000a pbuf_ref
200002e0 g     O .bss	00000004 tcp_bound_pcbs
00004ab4 g     F .text	00000006 __get_MCAUSE
000021be g     F .text	00000344 WCHNET_LinkProcess
000016ee  w      .text	00000000 USB_LP_CAN1_RX0_IRQHandler
000004fc g     F .text	0000001a .hidden __riscv_save_4
000004fc g     F .text	0000001a .hidden __riscv_save_5
20000000 g       .dalign	00000000 _data_vma
00001712  w      .text	00000000 USART2_IRQHandler
00008374 g     F .text	00000006 tcp_recv
00003738 g     F .text	000000ae xQueueGenericCreateStatic
0000053a g     F .text	0000000c .hidden __riscv_restore_1
00001c16 g     F .text	0000000a NVIC_PriorityGroupConfig
0000668e g     F .text	00000064 ethernetif_init
0000b97e g     F .text	0000010c _printf_common
00002c8a g     F .text	000000ee ETH_Configuration
00003d1a g     F .text	000000a6 xTaskCreateStatic
00000a76 g     F .text	00000008 eMBTCPStop
0000c3f2 g     F .text	00000056 __swhatbuf_r
00001090 g     F .text	00000114 eMBPoll
00001770  w      .text	00000000 DMA2_Channel9_IRQHandler
00001762  w      .text	00000000 TIM10_BRK_IRQHandler
0000c030 g     F .text	00000130 __sflush_r
0000bd2e g     F .text	00000040 printf
000011a8 g     F .text	00000044 HardFault_Handler
00002088 g     F .text	00000026 ETH_LedDataSet
000005fa g     F .text	00000016 xMBPortEventPost
0000130c g     F .text	0000007a eMBRegHoldingCB
00003550 g     F .text	00000014 vListInitialise
000016bc  w      .text	00000000 Ecall_M_Mode_Handler
00000526 g     F .text	00000020 .hidden __riscv_restore_8
00000530 g     F .text	00000016 .hidden __riscv_restore_6
00000c80 g     F .text	00000096 eMBFuncReadDiscreteInputs
00001a86 g     F .text	00000050 ETH_DMARxDescChainInit
000015ec g     F .text	00000088 vSYStaskInit
000049b6 g     F .text	00000036 Delay_Ms
00001dd2 g     F .text	0000001e RCC_APB1PeriphClockCmd
00000530 g     F .text	00000016 .hidden __riscv_restore_5
0000053a g     F .text	0000000c .hidden __riscv_restore_2
00003080 g     F .text	00000004 HAL_SetBit
00000530 g     F .text	00000016 .hidden __riscv_restore_7
0000c27c g     F .text	0000006c __sinit
00000000 g       .init	00000000 _start
000088f0 g     F .text	0000009a tcp_abandon
0000053a g     F .text	0000000c .hidden __riscv_restore_3
0000053a g     F .text	0000000c .hidden __riscv_restore_0
20000298 g     O .bss	00000004 TCPTimer
0000b6f2 g     F .text	0000028c _vfprintf_r
2000016c g     O .data	00000004 ip_addr_broadcast
2000a014 g     O .bss	00000040 xQueueRegistry
00000530 g     F .text	00000016 .hidden __riscv_restore_4
00007b98 g     F .text	0000006e pbuf_header
200002a5 g     O .bss	00000001 phydata
00005ad6 g     F .text	00000056 WCHNET_SocketSend
0000899a g     F .text	00000134 tcp_alloc
000050bc g     F .text	000000dc WCHSocketTCPReceive
0000b132 g     F .text	00000250 icmp_input
00003084 g     F .text	00000004 HAL_ResetBit
0000171c  w      .text	00000000 TIM8_BRK_IRQHandler
00001744  w      .text	00000000 CAN2_TX_IRQHandler
00002742 g     F .text	00000124 ETH_PHYLink
000080cc g     F .text	00000116 tcp_bind
0000898a g     F .text	00000010 tcp_next_iss
000016ce  w      .text	00000000 FLASH_IRQHandler
00001f44 g     F .text	00000012 TIM_ITConfig
0000b09a g     F .text	00000024 udp_new
000005ee g     F .text	0000000c xMBPortEventInit
0000203a g     F .text	0000000a USART_GetFlagStatus
0000bd6e g     F .text	0000002a putchar
0000586a g     F .text	000000be SocketIPRawSend
00000ac8 g     F .text	0000002c eMBTCPSend
0000b6b0 g     F .text	00000042 __sfputs_r
0000a54a g     F .text	00000368 tcp_output
00001728  w      .text	00000000 SDIO_IRQHandler
200001fc g     O .bss	00000004 pDMATxSet
000045f6 g     F .text	00000008 vTaskMissedYield
00002718 g     F .text	0000002a ETH_SetClock
20000290 g     O .bss	00000004 DNSTimer
00000526 g     F .text	00000020 .hidden __riscv_restore_9
00001716  w      .text	00000000 EXTI15_10_IRQHandler
0000176e  w      .text	00000000 DMA2_Channel8_IRQHandler
000016f6  w      .text	00000000 TIM1_BRK_IRQHandler
20000284 g     O .bss	00000004 ArpCheckTime
00001710  w      .text	00000000 USART1_IRQHandler
00000400 g       .text	00000000 pxPortInitialiseStack
00001e64 g     F .text	0000001e RCC_AHBPeriphResetCmd
00007c54 g     F .text	00000140 pbuf_alloc
0000394a g     F .text	0000006c vQueueAddToRegistry
000016ca  w      .text	00000000 TAMPER_IRQHandler
00001248 g     F .text	00000014 TIM2_IRQHandler
00007a14 g     F .text	00000020 memp_malloc
00007c06 g     F .text	0000004e pbuf_free
0000525e g     F .text	0000001a ErrorEncode
20000204 g     O .bss	00000004 phyLinkTime
0000b5b0 g     F .text	00000026 fprintf
20000160 g     O .data	00000006 ethzero
20000202 g     O .bss	00000001 phyLinkStatus
20000154 g     O .data	00000004 xISRStackTop
2000010d g     O .data	00000001 SocketIdForListen
20000328 g     O .bss	000016d0 SocketRecvBuf
00001726  w      .text	00000000 FSMC_IRQHandler
00005782 g     F .text	000000e8 WCHNET_SocketRecv
000016f2  w      .text	00000000 CAN1_SCE_IRQHandler
0000b064 g     F .text	00000006 udp_recv
0000106a g     F .text	00000026 eMBEnable
00005e50 g     F .text	00000060 WCHNET_SocketClose
000063f2 g     F .text	000000e2 etharp_query
0000c8f6 g     F .text	00000010 _close
20000288 g     O .bss	00000004 DHCPcoarseTimer
00008b0c g     F .text	00000032 RemoveTimeWaiTCP
0000412a g     F .text	00000062 vTaskDelay
00001b56 g     F .text	000000c0 GPIO_Init
00005cf4 g     F .text	0000006e WCHNET_SocketListen
0000c744 g     F .text	00000048 __swrite
00001e82 g     F .text	000000aa TIM_TimeBaseInit
0000332e g     F .text	0000015a xEventGroupWaitBits
2000029c g     O .bss	00000004 TxTimer
0000356a g     F .text	0000002e vListInsert
00007f7e g     F .text	0000007e raw_sendto
0000cc54 g     O .text	0000000d tcp_backoff
00002b5c g     F .text	00000016 WCHNET_MainTask
00007ed4 g     F .text	00000068 raw_input
00002032 g     F .text	00000008 USART_SendData
0000b06a g     F .text	00000030 udp_remove
00004c7c g     F .text	00000014 WCHNET_NetInput
00002044 g     F .text	00000044 ETH_TxPktChainMode
00001f62 g     F .text	000000ba USART_Init
00000fe4 g     F .text	00000014 prveMBError2Exception
0000c22c g     F .text	0000000a _cleanup_r
2000a2f8 g     O .bss	00000014 DNSInf
00004d78 g     F .text	00000016 setRxBuffAddr
20000138 g     O .data	00000004 memp_num
0000173a  w      .text	00000000 DMA2_Channel3_IRQHandler
20010000 g       .stack	00000000 _eusrstack
200073a4 g     O .bss	0000127c Mem_Heap_Memory
0000afe6 g     F .text	0000007e udp_connect
0000c78c g     F .text	00000030 __sseek
00003564 g     F .text	00000006 vListInitialiseItem
0000b5b0 g     F .text	00000026 fiprintf
20000180 g       .bss	00000000 _sbss
0000c662 g     F .text	00000084 _putc_r
00004a46 g     F .text	0000003e _write
00002502 g     F .text	000001cc WCHNET_HandlePhyNegotiation
000014d2 g     F .text	000000ba SystemCoreClockUpdate
0000176c  w      .text	00000000 DMA2_Channel7_IRQHandler
00003e62 g     F .text	00000180 xTaskIncrementTick
0000171e  w      .text	00000000 TIM8_UP_IRQHandler
00004ee2 g     F .text	00000002 NET_TCPError
0000074e g     F .text	00000174 WCHNET_HandleSockInt
00000200 g       .text	00000000 SW_Handler
00002d78 g     F .text	00000082 WCHNET_ETHIsr
000018aa g     F .text	00000014 ETH_DeInit
20000310 g     O .bss	00000004 tcp_input_pcb
20000104 g     O .data	00000004 IPAddr
0000176a  w      .text	00000000 DMA2_Channel6_IRQHandler
0000827c g     F .text	00000048 tcp_update_rcv_ann_wnd
00007f78 g     F .text	00000006 raw_recv
00000d56 g     F .text	00000078 eMBFuncWriteMultipleHoldingRegister
20000210 g     O .bss	00000004 ADC_Callback
00005c58 g     F .text	00000014 WCHNET_GetGlobalInt
0000182e g     F .text	0000000a DBGMCU_GetCHIPID
000075ce g     F .text	00000182 dhcp_arp_reply
200001f1 g     O .bss	00000001 TRDetectCnt
0000b546 g     F .text	0000006a inet_chksum_pbuf
00000522 g     F .text	00000024 .hidden __riscv_restore_12
000016be  w      .text	00000000 Ecall_U_Mode_Handler
00000526 g     F .text	00000020 .hidden __riscv_restore_11
00000a74 g     F .text	00000002 eMBTCPStart
0000682a g     F .text	0000000e htons
00000000 g       .init	00000000 _sinit
0000b6f2 g     F .text	0000028c _vfiprintf_r
2000018c g     O .bss	00000006 MACAddr
000006b2 g     F .text	0000009c vNetInit
000018be g     F .text	000000d8 ETH_StructInit
00001724  w      .text	00000000 RNG_IRQHandler
200001d4 g     O .bss	00000004 NVIC_Priority_Group
00001742  w      .text	00000000 ETH_WKUP_IRQHandler
00002866 g     F .text	000002c6 ReInitMACReg
2000010c g     O .data	00000001 SocketIdClient
00005b2c g     F .text	00000052 WCHScokedIntHandle
00004d8e g     F .text	00000036 WCHNET_Tx
0000bd98 g     F .text	000000d4 _puts_r
0000870e g     F .text	000000b2 tcp_close
000016d6  w      .text	00000000 EXTI2_IRQHandler
20000158 g     O .data	00000006 ethbroadcast
00001e2e g     F .text	00000012 RCC_PLL3Config
000016e0  w      .text	00000000 DMA1_Channel3_IRQHandler
200001d0 g     O .bss	00000004 DMATxDescToSet
0000174c  w      .text	00000000 OTG_FS_IRQHandler
00001730  w      .text	00000000 UART5_IRQHandler
00005d9a g     F .text	00000038 CloseIPRAWConnect
00006846 g     F .text	00000024 htonl
20000170 g     O .data	00000007 tcp_persist_backoff
00006744 g     F .text	00000070 ethernetif_input
00002e9c g     F .text	00000084 ETH_LibInit
00001758  w      .text	00000000 UART8_IRQHandler
00001768  w      .text	00000000 TIM10_CC_IRQHandler
0000cce0 g     O .text	00000020 __sf_fake_stdin
00005ed8 g     F .text	0000000c LwipArpCheck
00001b2e g     F .text	0000001e ETH_DMAITConfig
0000425a g     F .text	00000098 vTaskPlaceOnUnorderedEventList
00001772  w      .text	00000000 DMA2_Channel10_IRQHandler
000081e2 g     F .text	0000009a tcp_listen_with_backlog
00001df0 g     F .text	0000002e RCC_GetFlagStatus
000009ee g     F .text	0000000c vMBTCPPortDisable
20000230 g     O .bss	00000004 pxCurrentTCB
00001aec g     F .text	00000010 ETH_FlushTransmitFIFO
0000ae36 g     F .text	0000009a udp_bind
00005c1a g     F .text	0000003e WCHNET_QueryGlobalInt
00005370 g     F .text	00000016 WCHNET_ConfigKeepLive
00001776  w      .text	00000000 handle_reset
00001702  w      .text	00000000 TIM4_IRQHandler
00005198 g     F .text	000000c6 WCHTCPServerAccept
00001714  w      .text	00000000 USART3_IRQHandler
00007f5a g     F .text	0000001e raw_connect
00001d96 g     F .text	0000001e RCC_AHBPeriphClockCmd
0000c7bc g     F .text	00000006 __sclose
00007a4c g     F .text	00000096 netif_set_ipaddr
00001756  w      .text	00000000 UART7_IRQHandler
00006608 g     F .text	00000086 ethernet_input
20000209 g     O .bss	00000001 phySucCnt
00004612 g     F .text	00000016 uxTaskResetEventItemValue
000018a0 g     F .text	0000000a DMA_ClearITPendingBit
00007768 g     F .text	0000003e mem_init
00005514 g     F .text	000001d2 WCHNET_SocketCreat
00000610 g     F .text	00000022 xMBPortEventGet
000012ce g     F .text	0000001a mStopIfError
20000200 g     O .bss	00000001 phyLinkCnt
20000188 g     O .bss	00000004 Len
000011a4 g     F .text	00000004 NMI_Handler
00001896 g     F .text	0000000a DMA_GetITStatus
00006162 g     F .text	0000005a etharp_ip_input
20009f64 g     O .bss	00000078 SocketInf
00002b72 g     F .text	00000118 ETH_RegInit
00004e3a g     F .text	00000038 SelIPARPSend
20006ef4 g     O .bss	000004b0 Mem_ArpTable
0000afd4 g     F .text	00000012 udp_send
00004e18 g     F .text	00000022 IPCheckParaInit
200001f4 g     O .bss	00000002 gPHYAddress
00007e08 g     F .text	0000001c pbuf_cat
200001e8 g     O .bss	00000001 PhyPolarityDetect
20000194 g     O .bss	00000004 pData
0000cd20 g       .dlalign	00000000 _data_lma
000016d8  w      .text	00000000 EXTI3_IRQHandler
000049ec g     F .text	0000005a USART_Printf_Init
0000170a  w      .text	00000000 I2C2_ER_IRQHandler
00001f56 g     F .text	0000000c TIM_ClearITPendingBit
0000c8be g     F .text	00000002 __malloc_lock
0000a494 g     F .text	00000016 tcp_send_ctrl
00007f3c g     F .text	0000001e raw_bind
0000168e g     F .text	0000002a vSYSqueueInit
00001746  w      .text	00000000 CAN2_RX0_IRQHandler
0000186a g     F .text	0000002c DMA_ClearFlag
2000a2a0 g     O .bss	00000018 DHCPCtrl
000071f8 g     F .text	0000017e ip_frag
000016fa  w      .text	00000000 TIM1_TRG_COM_IRQHandler
20008620 g     O .bss	00001943 Memp_Memory
00005928 g     F .text	000000be SocketUdpSend
00001760  w      .text	00000000 TIM9_CC_IRQHandler
20009fdc g     O .bss	00000038 DMA_CALLback
200038f4 g     O .bss	00002a00 MACRxBuf
0000aace g     F .text	0000005e tcp_keepalive
00006e1c g     F .text	000003dc ip_reass
0000c160 g     F .text	00000066 _fflush_r
20003864 g     O .bss	00000070 DMARxDscrTab
000039b6 g     F .text	0000005c vQueueWaitForMessageRestricted
00000a7e g     F .text	0000004a eMBTCPReceive
0000c4d8 g     F .text	00000018 memchr
00001f2c g     F .text	00000018 TIM_Cmd
00007d94 g     F .text	00000058 pbuf_realloc
200001f8 g     O .bss	00000004 pDMARxSet
00005386 g     F .text	00000130 WCHNET_ConfigLIB
00000e48 g     F .text	000000ec eMBFuncReadWriteMultipleHoldingRegister
20000214 g     O .bss	00000004 adcs
0000c718 g     F .text	0000002c __sread
00000bf8 g     F .text	00000088 eMBFuncWriteMultipleCoils
00001732  w      .text	00000000 TIM6_IRQHandler
20000180 g       .data	00000000 _edata
0000a8b2 g     F .text	00000108 tcp_rst
00005c6c g     F .text	0000002a WCHNET_GetSocketInt
0000782a g     F .text	000000ca mem_realloc
00001748  w      .text	00000000 CAN2_RX1_IRQHandler
00001718  w      .text	00000000 RTCAlarm_IRQHandler
20010000 g       .stack	00000000 __freertos_irq_stack_top
0000be6c g     F .text	0000000c puts
00001704  w      .text	00000000 I2C1_EV_IRQHandler
000016fc  w      .text	00000000 TIM1_CC_IRQHandler
00004a84 g     F .text	0000002a _sbrk
20000108 g     O .data	00000004 IPMask
0000c88a g     F .text	00000034 _lseek_r
00000038 g       .init	00000000 _einit
0000327c g     F .text	00000042 vPortExitCritical
0000172c  w      .text	00000000 SPI3_IRQHandler
000064d4 g     F .text	00000134 etharp_output
00002fe8 g     F .text	0000004c DMA1_Channel1_IRQHandler
0000686a g     F .text	0000000c ntohl
00001a40 g     F .text	00000046 ETH_DMATxDescChainInit
00007dec g     F .text	00000012 pbuf_clen
000061bc g     F .text	00000168 etharp_arp_input
0000837a g     F .text	00000006 tcp_sent
2000a30c g     O .bss	0000000c KeepLiveCfg
0000125c g     F .text	0000000a xGetOSEvent
00000a18 g     F .text	0000004c xMBTCPPortSendResponse
00006838 g     F .text	0000000e ntohs
00006114 g     F .text	0000004e etharp_tmr
20000128 g     O .data	00000004 uxTopUsedPriority
00007e24 g     F .text	00000014 pbuf_chain
2000a35c g     O .bss	0000002c WCHCfg
200002a8 g     O .bss	00000004 tcpSendAckFlag
0000800c g     F .text	00000030 raw_remove
00001734  w      .text	00000000 TIM7_IRQHandler
0000c236 g     F .text	00000046 __sfmoreglue
0000ab2c g     F .text	000000d2 tcp_zero_window_probe
0000173c  w      .text	00000000 DMA2_Channel4_IRQHandler
00001750  w      .text	00000000 USBHS_IRQHandler
0000cb08 g     O .text	00000010 MemSize
000016d2  w      .text	00000000 EXTI0_IRQHandler
20000320 g     O .bss	00000004 __malloc_free_list
00001738  w      .text	00000000 DMA2_Channel2_IRQHandler
000008c2 g     F .text	0000006a WCHNET_HandleGlobalInt
2000a3f8 g       .bss	00000000 _end
0000b5d6 g     F .text	000000b2 memcpy
20000201 g     O .bss	00000001 phyLinkReset
00000526 g     F .text	00000020 .hidden __riscv_restore_10
000054b6 g     F .text	0000005e WCHFindCorrectTCBPcb
00003166  w    F .text	0000003a vPortSetupTimerInterrupt
0000c8c0 g     F .text	00000002 __malloc_unlock
00001736  w      .text	00000000 DMA2_Channel1_IRQHandler
00007b90 g     F .text	00000008 netif_is_up
000037e6 g     F .text	00000164 xQueueReceive
000059e6 g     F .text	000000f0 SocketTcpSend
20000294 g     O .bss	00000004 IPFragTimer
0000c2e8 g     F .text	000000a0 __sfp
00001766  w      .text	00000000 TIM10_TRG_COM_IRQHandler
000016da  w      .text	00000000 EXTI4_IRQHandler
000016f0  w      .text	00000000 CAN1_RX1_IRQHandler
20000168 g     O .data	00000004 ip_addr_any
00005730 g     F .text	00000052 WCHNET_ModifyRecvBuf
200001e0 g     O .bss	00000004 LinkSuccTime
00004aba g     F .text	00000006 __get_MTVAL
00001ad6 g     F .text	0000000e ETH_SoftwareReset
200001e4 g     O .bss	00000004 LocalTime
0000138a g     F .text	00000004 eMBRegDiscreteCB
00005ebe g     F .text	0000001a LwipUnreachPort
000056e6 g     F .text	0000004a tcp_recved_socket
00007e38 g     F .text	0000009c pbuf_copy
00007750 g     F .text	00000018 lwip_init
00004ee4 g     F .text	0000003e LwipTCPSendCallBack
0000174a  w      .text	00000000 CAN2_SCE_IRQHandler
00001838 g     F .text	00000032 DMA_GetFlagStatus
00004f26 g     F .text	000000c0 SocketIPRAWReceive
00000fbc g     F .text	00000028 eMBFuncReportSlaveID
200002d0 g     O .bss	00000004 netif_list
000016ec  w      .text	00000000 USB_HP_CAN1_TX_IRQHandler
0000bd2e g     F .text	00000040 iprintf
00001754  w      .text	00000000 UART6_IRQHandler
0000c85a g     F .text	00000030 _isatty_r
0000495a g     F .text	00000026 Delay_Init
000078f4 g     F .text	000000d0 mem_malloc



Disassembly of section .init:

00000000 <_sinit>:
   0:	7760106f          	j	1776 <handle_reset>
   4:	00000013          	nop
   8:	00000013          	nop
   c:	00000013          	nop
  10:	00000013          	nop
  14:	00000013          	nop
  18:	00000013          	nop
  1c:	00000013          	nop
  20:	00000013          	nop
  24:	00000013          	nop
  28:	00000013          	nop
  2c:	00000013          	nop
  30:	00000013          	nop
  34:	00100073          	ebreak

Disassembly of section .vector:

00000038 <_vector_base>:
	...
  40:	11a4                	addi	s1,sp,232
  42:	0000                	unimp
  44:	11a8                	addi	a0,sp,232
  46:	0000                	unimp
  48:	0000                	unimp
  4a:	0000                	unimp
  4c:	16bc                	addi	a5,sp,872
	...
  56:	0000                	unimp
  58:	16be                	slli	a3,a3,0x2f
  5a:	0000                	unimp
  5c:	16c0                	addi	s0,sp,868
	...
  66:	0000                	unimp
  68:	322e                	lhu	a1,34(a2)
  6a:	0000                	unimp
  6c:	0000                	unimp
  6e:	0000                	unimp
  70:	0200                	addi	s0,sp,256
  72:	0000                	unimp
  74:	0000                	unimp
  76:	0000                	unimp
  78:	16c6                	slli	a3,a3,0x31
  7a:	0000                	unimp
  7c:	16c8                	addi	a0,sp,868
  7e:	0000                	unimp
  80:	16ca                	slli	a3,a3,0x32
  82:	0000                	unimp
  84:	16cc                	addi	a1,sp,868
  86:	0000                	unimp
  88:	16ce                	slli	a3,a3,0x33
  8a:	0000                	unimp
  8c:	16d0                	addi	a2,sp,868
  8e:	0000                	unimp
  90:	16d2                	slli	a3,a3,0x34
  92:	0000                	unimp
  94:	16d4                	addi	a3,sp,868
  96:	0000                	unimp
  98:	16d6                	slli	a3,a3,0x35
  9a:	0000                	unimp
  9c:	16d8                	addi	a4,sp,868
  9e:	0000                	unimp
  a0:	16da                	slli	a3,a3,0x36
  a2:	0000                	unimp
  a4:	2fe8                	lbu	a0,30(a5)
  a6:	0000                	unimp
  a8:	3034                	lbu	a3,3(s0)
  aa:	0000                	unimp
  ac:	16e0                	addi	s0,sp,876
  ae:	0000                	unimp
  b0:	16e2                	slli	a3,a3,0x38
  b2:	0000                	unimp
  b4:	16e4                	addi	s1,sp,876
  b6:	0000                	unimp
  b8:	16e6                	slli	a3,a3,0x39
  ba:	0000                	unimp
  bc:	16e8                	addi	a0,sp,876
  be:	0000                	unimp
  c0:	2f26                	lhu	s1,26(a4)
  c2:	0000                	unimp
  c4:	16ec                	addi	a1,sp,876
  c6:	0000                	unimp
  c8:	16ee                	slli	a3,a3,0x3b
  ca:	0000                	unimp
  cc:	16f0                	addi	a2,sp,876
  ce:	0000                	unimp
  d0:	16f2                	slli	a3,a3,0x3c
  d2:	0000                	unimp
  d4:	11ec                	addi	a1,sp,236
  d6:	0000                	unimp
  d8:	16f6                	slli	a3,a3,0x3d
  da:	0000                	unimp
  dc:	16f8                	addi	a4,sp,876
  de:	0000                	unimp
  e0:	16fa                	slli	a3,a3,0x3e
  e2:	0000                	unimp
  e4:	16fc                	addi	a5,sp,876
  e6:	0000                	unimp
  e8:	1248                	addi	a0,sp,292
  ea:	0000                	unimp
  ec:	1700                	addi	s0,sp,928
  ee:	0000                	unimp
  f0:	1702                	slli	a4,a4,0x20
  f2:	0000                	unimp
  f4:	1704                	addi	s1,sp,928
  f6:	0000                	unimp
  f8:	1706                	slli	a4,a4,0x21
  fa:	0000                	unimp
  fc:	1708                	addi	a0,sp,928
  fe:	0000                	unimp
 100:	170a                	slli	a4,a4,0x22
 102:	0000                	unimp
 104:	170c                	addi	a1,sp,928
 106:	0000                	unimp
 108:	170e                	slli	a4,a4,0x23
 10a:	0000                	unimp
 10c:	1710                	addi	a2,sp,928
 10e:	0000                	unimp
 110:	1712                	slli	a4,a4,0x24
 112:	0000                	unimp
 114:	1714                	addi	a3,sp,928
 116:	0000                	unimp
 118:	1716                	slli	a4,a4,0x25
 11a:	0000                	unimp
 11c:	1718                	addi	a4,sp,928
 11e:	0000                	unimp
 120:	171a                	slli	a4,a4,0x26
 122:	0000                	unimp
 124:	171c                	addi	a5,sp,928
 126:	0000                	unimp
 128:	171e                	slli	a4,a4,0x27
 12a:	0000                	unimp
 12c:	1720                	addi	s0,sp,936
 12e:	0000                	unimp
 130:	1722                	slli	a4,a4,0x28
 132:	0000                	unimp
 134:	1724                	addi	s1,sp,936
 136:	0000                	unimp
 138:	1726                	slli	a4,a4,0x29
 13a:	0000                	unimp
 13c:	1728                	addi	a0,sp,936
 13e:	0000                	unimp
 140:	172a                	slli	a4,a4,0x2a
 142:	0000                	unimp
 144:	172c                	addi	a1,sp,936
 146:	0000                	unimp
 148:	172e                	slli	a4,a4,0x2b
 14a:	0000                	unimp
 14c:	1730                	addi	a2,sp,936
 14e:	0000                	unimp
 150:	1732                	slli	a4,a4,0x2c
 152:	0000                	unimp
 154:	1734                	addi	a3,sp,936
 156:	0000                	unimp
 158:	1736                	slli	a4,a4,0x2d
 15a:	0000                	unimp
 15c:	1738                	addi	a4,sp,936
 15e:	0000                	unimp
 160:	173a                	slli	a4,a4,0x2e
 162:	0000                	unimp
 164:	173c                	addi	a5,sp,936
 166:	0000                	unimp
 168:	173e                	slli	a4,a4,0x2f
 16a:	0000                	unimp
 16c:	1240                	addi	s0,sp,292
 16e:	0000                	unimp
 170:	1742                	slli	a4,a4,0x30
 172:	0000                	unimp
 174:	1744                	addi	s1,sp,932
 176:	0000                	unimp
 178:	1746                	slli	a4,a4,0x31
 17a:	0000                	unimp
 17c:	1748                	addi	a0,sp,932
 17e:	0000                	unimp
 180:	174a                	slli	a4,a4,0x32
 182:	0000                	unimp
 184:	174c                	addi	a1,sp,932
 186:	0000                	unimp
 188:	174e                	slli	a4,a4,0x33
 18a:	0000                	unimp
 18c:	1750                	addi	a2,sp,932
 18e:	0000                	unimp
 190:	1752                	slli	a4,a4,0x34
 192:	0000                	unimp
 194:	1754                	addi	a3,sp,932
 196:	0000                	unimp
 198:	1756                	slli	a4,a4,0x35
 19a:	0000                	unimp
 19c:	1758                	addi	a4,sp,932
 19e:	0000                	unimp
 1a0:	175a                	slli	a4,a4,0x36
 1a2:	0000                	unimp
 1a4:	175c                	addi	a5,sp,932
 1a6:	0000                	unimp
 1a8:	175e                	slli	a4,a4,0x37
 1aa:	0000                	unimp
 1ac:	1760                	addi	s0,sp,940
 1ae:	0000                	unimp
 1b0:	1762                	slli	a4,a4,0x38
 1b2:	0000                	unimp
 1b4:	1764                	addi	s1,sp,940
 1b6:	0000                	unimp
 1b8:	1766                	slli	a4,a4,0x39
 1ba:	0000                	unimp
 1bc:	1768                	addi	a0,sp,940
 1be:	0000                	unimp
 1c0:	176a                	slli	a4,a4,0x3a
 1c2:	0000                	unimp
 1c4:	176c                	addi	a1,sp,940
 1c6:	0000                	unimp
 1c8:	176e                	slli	a4,a4,0x3b
 1ca:	0000                	unimp
 1cc:	1770                	addi	a2,sp,940
 1ce:	0000                	unimp
 1d0:	1772                	slli	a4,a4,0x3c
 1d2:	0000                	unimp
 1d4:	1774                	addi	a3,sp,940
	...

Disassembly of section .text:

00000200 <SW_Handler>:
     200:	f8810113          	addi	sp,sp,-120
     204:	c206                	sw	ra,4(sp)
     206:	c416                	sw	t0,8(sp)
     208:	c61a                	sw	t1,12(sp)
     20a:	c81e                	sw	t2,16(sp)
     20c:	ca22                	sw	s0,20(sp)
     20e:	cc26                	sw	s1,24(sp)
     210:	ce2a                	sw	a0,28(sp)
     212:	d02e                	sw	a1,32(sp)
     214:	d232                	sw	a2,36(sp)
     216:	d436                	sw	a3,40(sp)
     218:	d63a                	sw	a4,44(sp)
     21a:	d83e                	sw	a5,48(sp)
     21c:	da42                	sw	a6,52(sp)
     21e:	dc46                	sw	a7,56(sp)
     220:	de4a                	sw	s2,60(sp)
     222:	c0ce                	sw	s3,64(sp)
     224:	c2d2                	sw	s4,68(sp)
     226:	c4d6                	sw	s5,72(sp)
     228:	c6da                	sw	s6,76(sp)
     22a:	c8de                	sw	s7,80(sp)
     22c:	cae2                	sw	s8,84(sp)
     22e:	cce6                	sw	s9,88(sp)
     230:	ceea                	sw	s10,92(sp)
     232:	d0ee                	sw	s11,96(sp)
     234:	d2f2                	sw	t3,100(sp)
     236:	d4f6                	sw	t4,104(sp)
     238:	d6fa                	sw	t5,108(sp)
     23a:	d8fe                	sw	t6,112(sp)
     23c:	300022f3          	csrr	t0,mstatus
     240:	da96                	sw	t0,116(sp)
     242:	9301a283          	lw	t0,-1744(gp) # 20000230 <pxCurrentTCB>
     246:	0022a023          	sw	sp,0(t0)
     24a:	341025f3          	csrr	a1,mepc
     24e:	c02e                	sw	a1,0(sp)
     250:	02000593          	li	a1,32
     254:	8045a073          	csrs	0x804,a1
     258:	8541a103          	lw	sp,-1964(gp) # 20000154 <xISRStackTop>
     25c:	731030ef          	jal	ra,418c <vTaskSwitchContext>

00000260 <processed_source>:
     260:	9301a303          	lw	t1,-1744(gp) # 20000230 <pxCurrentTCB>
     264:	00032103          	lw	sp,0(t1)
     268:	4282                	lw	t0,0(sp)
     26a:	34129073          	csrw	mepc,t0
     26e:	52d6                	lw	t0,116(sp)
     270:	30029073          	csrw	mstatus,t0
     274:	4092                	lw	ra,4(sp)
     276:	42a2                	lw	t0,8(sp)
     278:	4332                	lw	t1,12(sp)
     27a:	43c2                	lw	t2,16(sp)
     27c:	4452                	lw	s0,20(sp)
     27e:	44e2                	lw	s1,24(sp)
     280:	4572                	lw	a0,28(sp)
     282:	5582                	lw	a1,32(sp)
     284:	5612                	lw	a2,36(sp)
     286:	56a2                	lw	a3,40(sp)
     288:	5732                	lw	a4,44(sp)
     28a:	57c2                	lw	a5,48(sp)
     28c:	5852                	lw	a6,52(sp)
     28e:	58e2                	lw	a7,56(sp)
     290:	5972                	lw	s2,60(sp)
     292:	4986                	lw	s3,64(sp)
     294:	4a16                	lw	s4,68(sp)
     296:	4aa6                	lw	s5,72(sp)
     298:	4b36                	lw	s6,76(sp)
     29a:	4bc6                	lw	s7,80(sp)
     29c:	4c56                	lw	s8,84(sp)
     29e:	4ce6                	lw	s9,88(sp)
     2a0:	4d76                	lw	s10,92(sp)
     2a2:	5d86                	lw	s11,96(sp)
     2a4:	5e16                	lw	t3,100(sp)
     2a6:	5ea6                	lw	t4,104(sp)
     2a8:	5f36                	lw	t5,108(sp)
     2aa:	5fc6                	lw	t6,112(sp)
     2ac:	07810113          	addi	sp,sp,120
     2b0:	30200073          	mret
     2b4:	00000013          	nop
     2b8:	00000013          	nop
     2bc:	00000013          	nop
     2c0:	00000013          	nop
     2c4:	00000013          	nop
     2c8:	00000013          	nop
     2cc:	00000013          	nop
     2d0:	00000013          	nop
     2d4:	00000013          	nop
     2d8:	00000013          	nop
     2dc:	00000013          	nop
     2e0:	00000013          	nop
     2e4:	00000013          	nop
     2e8:	00000013          	nop
     2ec:	00000013          	nop
     2f0:	00000013          	nop
     2f4:	00000013          	nop
     2f8:	00000013          	nop
     2fc:	00000013          	nop

00000300 <xPortStartFirstTask>:
     300:	8541a283          	lw	t0,-1964(gp) # 20000154 <xISRStackTop>
     304:	e0028293          	addi	t0,t0,-512
     308:	34029073          	csrw	mscratch,t0
     30c:	9301a103          	lw	sp,-1744(gp) # 20000230 <pxCurrentTCB>
     310:	4102                	lw	sp,0(sp)
     312:	4082                	lw	ra,0(sp)
     314:	4332                	lw	t1,12(sp)
     316:	43c2                	lw	t2,16(sp)
     318:	4452                	lw	s0,20(sp)
     31a:	44e2                	lw	s1,24(sp)
     31c:	4572                	lw	a0,28(sp)
     31e:	5582                	lw	a1,32(sp)
     320:	5612                	lw	a2,36(sp)
     322:	56a2                	lw	a3,40(sp)
     324:	5732                	lw	a4,44(sp)
     326:	57c2                	lw	a5,48(sp)
     328:	5852                	lw	a6,52(sp)
     32a:	58e2                	lw	a7,56(sp)
     32c:	5972                	lw	s2,60(sp)
     32e:	4986                	lw	s3,64(sp)
     330:	4a16                	lw	s4,68(sp)
     332:	4aa6                	lw	s5,72(sp)
     334:	4b36                	lw	s6,76(sp)
     336:	4bc6                	lw	s7,80(sp)
     338:	4c56                	lw	s8,84(sp)
     33a:	4ce6                	lw	s9,88(sp)
     33c:	4d76                	lw	s10,92(sp)
     33e:	5d86                	lw	s11,96(sp)
     340:	5e16                	lw	t3,100(sp)
     342:	5ea6                	lw	t4,104(sp)
     344:	5f36                	lw	t5,108(sp)
     346:	5fc6                	lw	t6,112(sp)
     348:	52d6                	lw	t0,116(sp)
     34a:	02a1                	addi	t0,t0,8
     34c:	30029073          	csrw	mstatus,t0
     350:	42a2                	lw	t0,8(sp)
     352:	07810113          	addi	sp,sp,120
     356:	8082                	ret
     358:	00000013          	nop
     35c:	00000013          	nop
     360:	00000013          	nop
     364:	00000013          	nop
     368:	00000013          	nop
     36c:	00000013          	nop
     370:	00000013          	nop
     374:	00000013          	nop
     378:	00000013          	nop
     37c:	00000013          	nop
     380:	00000013          	nop
     384:	00000013          	nop
     388:	00000013          	nop
     38c:	00000013          	nop
     390:	00000013          	nop
     394:	00000013          	nop
     398:	00000013          	nop
     39c:	00000013          	nop
     3a0:	00000013          	nop
     3a4:	00000013          	nop
     3a8:	00000013          	nop
     3ac:	00000013          	nop
     3b0:	00000013          	nop
     3b4:	00000013          	nop
     3b8:	00000013          	nop
     3bc:	00000013          	nop
     3c0:	00000013          	nop
     3c4:	00000013          	nop
     3c8:	00000013          	nop
     3cc:	00000013          	nop
     3d0:	00000013          	nop
     3d4:	00000013          	nop
     3d8:	00000013          	nop
     3dc:	00000013          	nop
     3e0:	00000013          	nop
     3e4:	00000013          	nop
     3e8:	00000013          	nop
     3ec:	00000013          	nop
     3f0:	00000013          	nop
     3f4:	00000013          	nop
     3f8:	00000013          	nop
     3fc:	00000013          	nop

00000400 <pxPortInitialiseStack>:
     400:	300022f3          	csrr	t0,mstatus
     404:	ff72f293          	andi	t0,t0,-9
     408:	78800313          	li	t1,1928
     40c:	0312                	slli	t1,t1,0x4
     40e:	0062e2b3          	or	t0,t0,t1
     412:	1571                	addi	a0,a0,-4
     414:	00552023          	sw	t0,0(a0)
     418:	fa850513          	addi	a0,a0,-88
     41c:	c110                	sw	a2,0(a0)
     41e:	1521                	addi	a0,a0,-24
     420:	00052023          	sw	zero,0(a0)
     424:	00000293          	li	t0,0

00000428 <chip_specific_stack_frame>:
     428:	00028763          	beqz	t0,436 <chip_specific_stack_frame+0xe>
     42c:	1571                	addi	a0,a0,-4
     42e:	00052023          	sw	zero,0(a0)
     432:	12fd                	addi	t0,t0,-1
     434:	bfd5                	j	428 <chip_specific_stack_frame>
     436:	1571                	addi	a0,a0,-4
     438:	c10c                	sw	a1,0(a0)
     43a:	8082                	ret
	...

000004e6 <__riscv_save_12>:
     4e6:	7139                	addi	sp,sp,-64
     4e8:	4301                	li	t1,0
     4ea:	c66e                	sw	s11,12(sp)
     4ec:	a019                	j	4f2 <__riscv_save_10+0x4>

000004ee <__riscv_save_10>:
     4ee:	7139                	addi	sp,sp,-64
     4f0:	5341                	li	t1,-16
     4f2:	c86a                	sw	s10,16(sp)
     4f4:	ca66                	sw	s9,20(sp)
     4f6:	cc62                	sw	s8,24(sp)
     4f8:	ce5e                	sw	s7,28(sp)
     4fa:	a019                	j	500 <__riscv_save_4+0x4>

000004fc <__riscv_save_4>:
     4fc:	7139                	addi	sp,sp,-64
     4fe:	5301                	li	t1,-32
     500:	d05a                	sw	s6,32(sp)
     502:	d256                	sw	s5,36(sp)
     504:	d452                	sw	s4,40(sp)
     506:	d64e                	sw	s3,44(sp)
     508:	d84a                	sw	s2,48(sp)
     50a:	da26                	sw	s1,52(sp)
     50c:	dc22                	sw	s0,56(sp)
     50e:	de06                	sw	ra,60(sp)
     510:	40610133          	sub	sp,sp,t1
     514:	8282                	jr	t0

00000516 <__riscv_save_0>:
     516:	1141                	addi	sp,sp,-16
     518:	c04a                	sw	s2,0(sp)
     51a:	c226                	sw	s1,4(sp)
     51c:	c422                	sw	s0,8(sp)
     51e:	c606                	sw	ra,12(sp)
     520:	8282                	jr	t0

00000522 <__riscv_restore_12>:
     522:	4db2                	lw	s11,12(sp)
     524:	0141                	addi	sp,sp,16

00000526 <__riscv_restore_10>:
     526:	4d02                	lw	s10,0(sp)
     528:	4c92                	lw	s9,4(sp)
     52a:	4c22                	lw	s8,8(sp)
     52c:	4bb2                	lw	s7,12(sp)
     52e:	0141                	addi	sp,sp,16

00000530 <__riscv_restore_4>:
     530:	4b02                	lw	s6,0(sp)
     532:	4a92                	lw	s5,4(sp)
     534:	4a22                	lw	s4,8(sp)
     536:	49b2                	lw	s3,12(sp)
     538:	0141                	addi	sp,sp,16

0000053a <__riscv_restore_0>:
     53a:	4902                	lw	s2,0(sp)
     53c:	4492                	lw	s1,4(sp)
     53e:	4422                	lw	s0,8(sp)
     540:	40b2                	lw	ra,12(sp)
     542:	0141                	addi	sp,sp,16
     544:	8082                	ret

00000546 <memset>:
     546:	433d                	li	t1,15
     548:	872a                	mv	a4,a0
     54a:	02c37363          	bgeu	t1,a2,570 <memset+0x2a>
     54e:	00f77793          	andi	a5,a4,15
     552:	efbd                	bnez	a5,5d0 <memset+0x8a>
     554:	e5ad                	bnez	a1,5be <memset+0x78>
     556:	ff067693          	andi	a3,a2,-16
     55a:	8a3d                	andi	a2,a2,15
     55c:	96ba                	add	a3,a3,a4
     55e:	c30c                	sw	a1,0(a4)
     560:	c34c                	sw	a1,4(a4)
     562:	c70c                	sw	a1,8(a4)
     564:	c74c                	sw	a1,12(a4)
     566:	0741                	addi	a4,a4,16
     568:	fed76be3          	bltu	a4,a3,55e <memset+0x18>
     56c:	e211                	bnez	a2,570 <memset+0x2a>
     56e:	8082                	ret
     570:	40c306b3          	sub	a3,t1,a2
     574:	068a                	slli	a3,a3,0x2
     576:	00000297          	auipc	t0,0x0
     57a:	9696                	add	a3,a3,t0
     57c:	00a68067          	jr	10(a3)
     580:	00b70723          	sb	a1,14(a4)
     584:	00b706a3          	sb	a1,13(a4)
     588:	00b70623          	sb	a1,12(a4)
     58c:	00b705a3          	sb	a1,11(a4)
     590:	00b70523          	sb	a1,10(a4)
     594:	00b704a3          	sb	a1,9(a4)
     598:	00b70423          	sb	a1,8(a4)
     59c:	00b703a3          	sb	a1,7(a4)
     5a0:	00b70323          	sb	a1,6(a4)
     5a4:	00b702a3          	sb	a1,5(a4)
     5a8:	00b70223          	sb	a1,4(a4)
     5ac:	00b701a3          	sb	a1,3(a4)
     5b0:	00b70123          	sb	a1,2(a4)
     5b4:	00b700a3          	sb	a1,1(a4)
     5b8:	00b70023          	sb	a1,0(a4)
     5bc:	8082                	ret
     5be:	0ff5f593          	andi	a1,a1,255
     5c2:	00859693          	slli	a3,a1,0x8
     5c6:	8dd5                	or	a1,a1,a3
     5c8:	01059693          	slli	a3,a1,0x10
     5cc:	8dd5                	or	a1,a1,a3
     5ce:	b761                	j	556 <memset+0x10>
     5d0:	00279693          	slli	a3,a5,0x2
     5d4:	00000297          	auipc	t0,0x0
     5d8:	9696                	add	a3,a3,t0
     5da:	8286                	mv	t0,ra
     5dc:	fa8680e7          	jalr	-88(a3)
     5e0:	8096                	mv	ra,t0
     5e2:	17c1                	addi	a5,a5,-16
     5e4:	8f1d                	sub	a4,a4,a5
     5e6:	963e                	add	a2,a2,a5
     5e8:	f8c374e3          	bgeu	t1,a2,570 <memset+0x2a>
     5ec:	b7a5                	j	554 <memset+0xe>

000005ee <xMBPortEventInit>:
     5ee:	200007b7          	lui	a5,0x20000
     5f2:	18078223          	sb	zero,388(a5) # 20000184 <xEventInQueue>
     5f6:	4505                	li	a0,1
     5f8:	8082                	ret

000005fa <xMBPortEventPost>:
     5fa:	200007b7          	lui	a5,0x20000
     5fe:	4705                	li	a4,1
     600:	18e78223          	sb	a4,388(a5) # 20000184 <xEventInQueue>
     604:	200007b7          	lui	a5,0x20000
     608:	18a7a023          	sw	a0,384(a5) # 20000180 <_edata>
     60c:	4505                	li	a0,1
     60e:	8082                	ret

00000610 <xMBPortEventGet>:
     610:	200007b7          	lui	a5,0x20000
     614:	18478793          	addi	a5,a5,388 # 20000184 <xEventInQueue>
     618:	00078703          	lb	a4,0(a5)
     61c:	cb09                	beqz	a4,62e <xMBPortEventGet+0x1e>
     61e:	20000737          	lui	a4,0x20000
     622:	18072703          	lw	a4,384(a4) # 20000180 <_edata>
     626:	00078023          	sb	zero,0(a5)
     62a:	c118                	sw	a4,0(a0)
     62c:	4705                	li	a4,1
     62e:	853a                	mv	a0,a4
     630:	8082                	ret

00000632 <prvvMBPortReleaseClient.part.0>:
     632:	ee5ff2ef          	jal	t0,516 <__riscv_save_0>
     636:	2108                	lbu	a0,0(a0)
     638:	4585                	li	a1,1
     63a:	017050ef          	jal	ra,5e50 <WCHNET_SocketClose>
     63e:	577d                	li	a4,-1
     640:	80e18623          	sb	a4,-2036(gp) # 2000010c <SocketIdClient>
     644:	bddd                	j	53a <__riscv_restore_0>

00000646 <TIM2_Init>:
     646:	ed1ff2ef          	jal	t0,516 <__riscv_save_0>
     64a:	1141                	addi	sp,sp,-16
     64c:	4585                	li	a1,1
     64e:	4505                	li	a0,1
     650:	c202                	sw	zero,4(sp)
     652:	c402                	sw	zero,8(sp)
     654:	00011623          	sh	zero,12(sp)
     658:	77a010ef          	jal	ra,1dd2 <RCC_APB1PeriphClockCmd>
     65c:	8181a783          	lw	a5,-2024(gp) # 20000118 <SystemCoreClock>
     660:	000f4737          	lui	a4,0xf4
     664:	24070713          	addi	a4,a4,576 # f4240 <_data_lma+0xe7520>
     668:	02e7d7b3          	divu	a5,a5,a4
     66c:	004c                	addi	a1,sp,4
     66e:	40000537          	lui	a0,0x40000
     672:	00011523          	sh	zero,10(sp)
     676:	847c                	sh	a5,8(sp)
     678:	6789                	lui	a5,0x2
     67a:	70f78793          	addi	a5,a5,1807 # 270f <ETH_LedConfiguration+0x41>
     67e:	c23e                	sw	a5,4(sp)
     680:	003010ef          	jal	ra,1e82 <TIM_TimeBaseInit>
     684:	4605                	li	a2,1
     686:	4585                	li	a1,1
     688:	40000537          	lui	a0,0x40000
     68c:	0b9010ef          	jal	ra,1f44 <TIM_ITConfig>
     690:	4585                	li	a1,1
     692:	40000537          	lui	a0,0x40000
     696:	097010ef          	jal	ra,1f2c <TIM_Cmd>
     69a:	4585                	li	a1,1
     69c:	40000537          	lui	a0,0x40000
     6a0:	0b7010ef          	jal	ra,1f56 <TIM_ClearITPendingBit>
     6a4:	e000e7b7          	lui	a5,0xe000e
     6a8:	6705                	lui	a4,0x1
     6aa:	10e7a223          	sw	a4,260(a5) # e000e104 <__freertos_irq_stack_top+0xbfffe104>
     6ae:	0141                	addi	sp,sp,16
     6b0:	b569                	j	53a <__riscv_restore_0>

000006b2 <vNetInit>:
     6b2:	e4bff2ef          	jal	t0,4fc <__riscv_save_4>
     6b6:	20000437          	lui	s0,0x20000
     6ba:	1141                	addi	sp,sp,-16
     6bc:	18c40513          	addi	a0,s0,396 # 2000018c <MACAddr>
     6c0:	213010ef          	jal	ra,20d2 <WCHNET_GetMacAddr>
     6c4:	0000d537          	lui	a0,0xd
     6c8:	a2c50513          	addi	a0,a0,-1492 # ca2c <_read+0xf6>
     6cc:	6620b0ef          	jal	ra,bd2e <iprintf>
     6d0:	4481                	li	s1,0
     6d2:	18c40a13          	addi	s4,s0,396
     6d6:	0000d9b7          	lui	s3,0xd
     6da:	4919                	li	s2,6
     6dc:	009a07b3          	add	a5,s4,s1
     6e0:	238c                	lbu	a1,0(a5)
     6e2:	a3898513          	addi	a0,s3,-1480 # ca38 <_read+0x102>
     6e6:	0485                	addi	s1,s1,1
     6e8:	6460b0ef          	jal	ra,bd2e <iprintf>
     6ec:	ff2498e3          	bne	s1,s2,6dc <vNetInit+0x2a>
     6f0:	4529                	li	a0,10
     6f2:	67c0b0ef          	jal	ra,bd6e <putchar>
     6f6:	3f81                	jal	646 <TIM2_Init>
     6f8:	200005b7          	lui	a1,0x20000
     6fc:	18c40693          	addi	a3,s0,396
     700:	80818613          	addi	a2,gp,-2040 # 20000108 <IPMask>
     704:	10058593          	addi	a1,a1,256 # 20000100 <GWIPAddr>
     708:	80418513          	addi	a0,gp,-2044 # 20000104 <IPAddr>
     70c:	790020ef          	jal	ra,2e9c <ETH_LibInit>
     710:	842a                	mv	s0,a0
     712:	3bd000ef          	jal	ra,12ce <mStopIfError>
     716:	e419                	bnez	s0,724 <vNetInit+0x72>
     718:	0000d537          	lui	a0,0xd
     71c:	a3c50513          	addi	a0,a0,-1476 # ca3c <_read+0x106>
     720:	74c0b0ef          	jal	ra,be6c <puts>
     724:	6795                	lui	a5,0x5
     726:	e2078793          	addi	a5,a5,-480 # 4e20 <IPCheckParaInit+0x8>
     72a:	c23e                	sw	a5,4(sp)
     72c:	6791                	lui	a5,0x4
     72e:	a9878793          	addi	a5,a5,-1384 # 3a98 <prvAddNewTaskToReadyList+0x86>
     732:	c43e                	sw	a5,8(sp)
     734:	0048                	addi	a0,sp,4
     736:	47a5                	li	a5,9
     738:	c63e                	sw	a5,12(sp)
     73a:	437040ef          	jal	ra,5370 <WCHNET_ConfigKeepLive>
     73e:	31f000ef          	jal	ra,125c <xGetOSEvent>
     742:	200007b7          	lui	a5,0x20000
     746:	18a7ae23          	sw	a0,412(a5) # 2000019c <xPortTCPOSEventGroup>
     74a:	0141                	addi	sp,sp,16
     74c:	b3d5                	j	530 <__riscv_restore_4>

0000074e <WCHNET_HandleSockInt>:
     74e:	dafff2ef          	jal	t0,4fc <__riscv_save_4>
     752:	1101                	addi	sp,sp,-32
     754:	87c8                	sb	a0,15(sp)
     756:	0045f793          	andi	a5,a1,4
     75a:	842e                	mv	s0,a1
     75c:	c7a9                	beqz	a5,7a6 <WCHNET_HandleSockInt+0x58>
     75e:	0ff57993          	andi	s3,a0,255
     762:	03c00713          	li	a4,60
     766:	02e98733          	mul	a4,s3,a4
     76a:	2000a7b7          	lui	a5,0x2000a
     76e:	f6478793          	addi	a5,a5,-156 # 20009f64 <SocketInf>
     772:	97ba                	add	a5,a5,a4
     774:	47d4                	lw	a3,12(a5)
     776:	4798                	lw	a4,8(a5)
     778:	9736                	add	a4,a4,a3
     77a:	4bd4                	lw	a3,20(a5)
     77c:	4f9c                	lw	a5,24(a5)
     77e:	00f68633          	add	a2,a3,a5
     782:	00c77463          	bgeu	a4,a2,78a <WCHNET_HandleSockInt+0x3c>
     786:	40d707b3          	sub	a5,a4,a3
     78a:	200004b7          	lui	s1,0x20000
     78e:	19848493          	addi	s1,s1,408 # 20000198 <usTCPBufPos>
     792:	208e                	lhu	a1,0(s1)
     794:	ce3e                	sw	a5,28(sp)
     796:	10600713          	li	a4,262
     79a:	97ae                	add	a5,a5,a1
     79c:	08f77963          	bgeu	a4,a5,82e <__stack_size+0x2e>
     7a0:	00f10513          	addi	a0,sp,15
     7a4:	3579                	jal	632 <prvvMBPortReleaseClient.part.0>
     7a6:	00847793          	andi	a5,s0,8
     7aa:	cba1                	beqz	a5,7fa <WCHNET_HandleSockInt+0xac>
     7ac:	80c18493          	addi	s1,gp,-2036 # 2000010c <SocketIdClient>
     7b0:	2098                	lbu	a4,0(s1)
     7b2:	0ff00793          	li	a5,255
     7b6:	04f71263          	bne	a4,a5,7fa <WCHNET_HandleSockInt+0xac>
     7ba:	8788                	lbu	a0,15(sp)
     7bc:	4585                	li	a1,1
     7be:	4e2050ef          	jal	ra,5ca0 <WCHNET_SocketSetKeepLive>
     7c2:	8788                	lbu	a0,15(sp)
     7c4:	6605                	lui	a2,0x1
     7c6:	b6860613          	addi	a2,a2,-1176 # b68 <eMBFuncReadCoils+0x74>
     7ca:	02c505b3          	mul	a1,a0,a2
     7ce:	200007b7          	lui	a5,0x20000
     7d2:	32878793          	addi	a5,a5,808 # 20000328 <SocketRecvBuf>
     7d6:	95be                	add	a1,a1,a5
     7d8:	759040ef          	jal	ra,5730 <WCHNET_ModifyRecvBuf>
     7dc:	879c                	lbu	a5,15(sp)
     7de:	0000d537          	lui	a0,0xd
     7e2:	9e450513          	addi	a0,a0,-1564 # c9e4 <_read+0xae>
     7e6:	a09c                	sb	a5,0(s1)
     7e8:	6840b0ef          	jal	ra,be6c <puts>
     7ec:	208c                	lbu	a1,0(s1)
     7ee:	0000d537          	lui	a0,0xd
     7f2:	9fc50513          	addi	a0,a0,-1540 # c9fc <_read+0xc6>
     7f6:	5380b0ef          	jal	ra,bd2e <iprintf>
     7fa:	01047793          	andi	a5,s0,16
     7fe:	cb91                	beqz	a5,812 <__stack_size+0x12>
     800:	0000d537          	lui	a0,0xd
     804:	577d                	li	a4,-1
     806:	a0c50513          	addi	a0,a0,-1524 # ca0c <_read+0xd6>
     80a:	80e18623          	sb	a4,-2036(gp) # 2000010c <SocketIdClient>
     80e:	65e0b0ef          	jal	ra,be6c <puts>
     812:	04047413          	andi	s0,s0,64
     816:	c811                	beqz	s0,82a <__stack_size+0x2a>
     818:	0000d537          	lui	a0,0xd
     81c:	577d                	li	a4,-1
     81e:	a1c50513          	addi	a0,a0,-1508 # ca1c <_read+0xe6>
     822:	80e18623          	sb	a4,-2036(gp) # 2000010c <SocketIdClient>
     826:	6460b0ef          	jal	ra,be6c <puts>
     82a:	6105                	addi	sp,sp,32
     82c:	b311                	j	530 <__riscv_restore_4>
     82e:	20002937          	lui	s2,0x20002
     832:	9f890913          	addi	s2,s2,-1544 # 200019f8 <aucTCPBuf>
     836:	0870                	addi	a2,sp,28
     838:	95ca                	add	a1,a1,s2
     83a:	854e                	mv	a0,s3
     83c:	747040ef          	jal	ra,5782 <WCHNET_SocketRecv>
     840:	209e                	lhu	a5,0(s1)
     842:	4772                	lw	a4,28(sp)
     844:	973e                	add	a4,a4,a5
     846:	0742                	slli	a4,a4,0x10
     848:	8341                	srli	a4,a4,0x10
     84a:	a09a                	sh	a4,0(s1)
     84c:	4799                	li	a5,6
     84e:	f4e7fce3          	bgeu	a5,a4,7a6 <WCHNET_HandleSockInt+0x58>
     852:	00495683          	lhu	a3,4(s2)
     856:	00869793          	slli	a5,a3,0x8
     85a:	82a1                	srli	a3,a3,0x8
     85c:	8fd5                	or	a5,a5,a3
     85e:	07c2                	slli	a5,a5,0x10
     860:	83c1                	srli	a5,a5,0x10
     862:	00578693          	addi	a3,a5,5
     866:	f4e6d0e3          	bge	a3,a4,7a6 <WCHNET_HandleSockInt+0x58>
     86a:	0799                	addi	a5,a5,6
     86c:	f2f71ae3          	bne	a4,a5,7a0 <WCHNET_HandleSockInt+0x52>
     870:	4505                	li	a0,1
     872:	3361                	jal	5fa <xMBPortEventPost>
     874:	200004b7          	lui	s1,0x20000
     878:	19c4a503          	lw	a0,412(s1) # 2000019c <xPortTCPOSEventGroup>
     87c:	577d                	li	a4,-1
     87e:	4685                	li	a3,1
     880:	4605                	li	a2,1
     882:	4585                	li	a1,1
     884:	2ab020ef          	jal	ra,332e <xEventGroupWaitBits>
     888:	20000637          	lui	a2,0x20000
     88c:	200025b7          	lui	a1,0x20002
     890:	18860613          	addi	a2,a2,392 # 20000188 <Len>
     894:	b0058593          	addi	a1,a1,-1280 # 20001b00 <outTCPBuf>
     898:	854e                	mv	a0,s3
     89a:	23c050ef          	jal	ra,5ad6 <WCHNET_SocketSend>
     89e:	892a                	mv	s2,a0
     8a0:	19c48493          	addi	s1,s1,412
     8a4:	22b000ef          	jal	ra,12ce <mStopIfError>
     8a8:	00090863          	beqz	s2,8b8 <__stack_size+0xb8>
     8ac:	854a                	mv	a0,s2
     8ae:	221000ef          	jal	ra,12ce <mStopIfError>
     8b2:	00f10513          	addi	a0,sp,15
     8b6:	3bb5                	jal	632 <prvvMBPortReleaseClient.part.0>
     8b8:	4088                	lw	a0,0(s1)
     8ba:	4589                	li	a1,2
     8bc:	3cd020ef          	jal	ra,3488 <xEventGroupSetBits>
     8c0:	b5dd                	j	7a6 <WCHNET_HandleSockInt+0x58>

000008c2 <WCHNET_HandleGlobalInt>:
     8c2:	c55ff2ef          	jal	t0,516 <__riscv_save_0>
     8c6:	392050ef          	jal	ra,5c58 <WCHNET_GetGlobalInt>
     8ca:	00157793          	andi	a5,a0,1
     8ce:	842a                	mv	s0,a0
     8d0:	c799                	beqz	a5,8de <WCHNET_HandleGlobalInt+0x1c>
     8d2:	0000d537          	lui	a0,0xd
     8d6:	9a450513          	addi	a0,a0,-1628 # c9a4 <_read+0x6e>
     8da:	5920b0ef          	jal	ra,be6c <puts>
     8de:	00247793          	andi	a5,s0,2
     8e2:	c799                	beqz	a5,8f0 <WCHNET_HandleGlobalInt+0x2e>
     8e4:	0000d537          	lui	a0,0xd
     8e8:	9b850513          	addi	a0,a0,-1608 # c9b8 <_read+0x82>
     8ec:	5800b0ef          	jal	ra,be6c <puts>
     8f0:	00447793          	andi	a5,s0,4
     8f4:	cb99                	beqz	a5,90a <WCHNET_HandleGlobalInt+0x48>
     8f6:	3a0050ef          	jal	ra,5c96 <WCHNET_GetPHYStatus>
     8fa:	8911                	andi	a0,a0,4
     8fc:	c519                	beqz	a0,90a <WCHNET_HandleGlobalInt+0x48>
     8fe:	0000d537          	lui	a0,0xd
     902:	9d050513          	addi	a0,a0,-1584 # c9d0 <_read+0x9a>
     906:	5660b0ef          	jal	ra,be6c <puts>
     90a:	8841                	andi	s0,s0,16
     90c:	cc19                	beqz	s0,92a <WCHNET_HandleGlobalInt+0x68>
     90e:	4501                	li	a0,0
     910:	35c050ef          	jal	ra,5c6c <WCHNET_GetSocketInt>
     914:	85aa                	mv	a1,a0
     916:	c119                	beqz	a0,91c <WCHNET_HandleGlobalInt+0x5a>
     918:	4501                	li	a0,0
     91a:	3d15                	jal	74e <WCHNET_HandleSockInt>
     91c:	4505                	li	a0,1
     91e:	34e050ef          	jal	ra,5c6c <WCHNET_GetSocketInt>
     922:	85aa                	mv	a1,a0
     924:	c119                	beqz	a0,92a <WCHNET_HandleGlobalInt+0x68>
     926:	4505                	li	a0,1
     928:	351d                	jal	74e <WCHNET_HandleSockInt>
     92a:	b901                	j	53a <__riscv_restore_0>

0000092c <MBTCP_task>:
     92c:	bd1ff2ef          	jal	t0,4fc <__riscv_save_4>
     930:	0000d437          	lui	s0,0xd
     934:	0000d937          	lui	s2,0xd
     938:	0000d9b7          	lui	s3,0xd
     93c:	0000da37          	lui	s4,0xd
     940:	4505                	li	a0,1
     942:	7e8030ef          	jal	ra,412a <vTaskDelay>
     946:	4501                	li	a0,0
     948:	6b0000ef          	jal	ra,ff8 <eMBTCPInit>
     94c:	c511                	beqz	a0,958 <MBTCP_task+0x2c>
     94e:	948a0513          	addi	a0,s4,-1720 # c948 <_read+0x12>
     952:	51a0b0ef          	jal	ra,be6c <puts>
     956:	b7ed                	j	940 <MBTCP_task+0x14>
     958:	712000ef          	jal	ra,106a <eMBEnable>
     95c:	c919                	beqz	a0,972 <MBTCP_task+0x46>
     95e:	8481a783          	lw	a5,-1976(gp) # 20000148 <_impure_ptr>
     962:	96890613          	addi	a2,s2,-1688 # c968 <_read+0x32>
     966:	97498593          	addi	a1,s3,-1676 # c974 <_read+0x3e>
     96a:	47c8                	lw	a0,12(a5)
     96c:	4450a0ef          	jal	ra,b5b0 <fiprintf>
     970:	bfc1                	j	940 <MBTCP_task+0x14>
     972:	99840513          	addi	a0,s0,-1640 # c998 <_read+0x62>
     976:	3b80b0ef          	jal	ra,bd2e <iprintf>
     97a:	716000ef          	jal	ra,1090 <eMBPoll>
     97e:	dd75                	beqz	a0,97a <MBTCP_task+0x4e>
     980:	b7c1                	j	940 <MBTCP_task+0x14>

00000982 <xMBTCPPortInit>:
     982:	b95ff2ef          	jal	t0,516 <__riscv_save_0>
     986:	7139                	addi	sp,sp,-64
     988:	1f600413          	li	s0,502
     98c:	c111                	beqz	a0,990 <xMBTCPPortInit+0xe>
     98e:	842a                	mv	s0,a0
     990:	03c00613          	li	a2,60
     994:	4581                	li	a1,0
     996:	0048                	addi	a0,sp,4
     998:	367d                	jal	546 <memset>
     99a:	d622                	sw	s0,44(sp)
     99c:	478d                	li	a5,3
     99e:	80d18413          	addi	s0,gp,-2035 # 2000010d <SocketIdForListen>
     9a2:	004c                	addi	a1,sp,4
     9a4:	80d18513          	addi	a0,gp,-2035 # 2000010d <SocketIdForListen>
     9a8:	d03e                	sw	a5,32(sp)
     9aa:	36b040ef          	jal	ra,5514 <WCHNET_SocketCreat>
     9ae:	4481                	li	s1,0
     9b0:	ed09                	bnez	a0,9ca <xMBTCPPortInit+0x48>
     9b2:	2008                	lbu	a0,0(s0)
     9b4:	340050ef          	jal	ra,5cf4 <WCHNET_SocketListen>
     9b8:	892a                	mv	s2,a0
     9ba:	115000ef          	jal	ra,12ce <mStopIfError>
     9be:	00090963          	beqz	s2,9d0 <xMBTCPPortInit+0x4e>
     9c2:	2008                	lbu	a0,0(s0)
     9c4:	4589                	li	a1,2
     9c6:	48a050ef          	jal	ra,5e50 <WCHNET_SocketClose>
     9ca:	8526                	mv	a0,s1
     9cc:	6121                	addi	sp,sp,64
     9ce:	b6b5                	j	53a <__riscv_restore_0>
     9d0:	0000d537          	lui	a0,0xd
     9d4:	a5450513          	addi	a0,a0,-1452 # ca54 <_read+0x11e>
     9d8:	3560b0ef          	jal	ra,bd2e <iprintf>
     9dc:	200c                	lbu	a1,0(s0)
     9de:	0000d537          	lui	a0,0xd
     9e2:	9fc50513          	addi	a0,a0,-1540 # c9fc <_read+0xc6>
     9e6:	3480b0ef          	jal	ra,bd2e <iprintf>
     9ea:	4485                	li	s1,1
     9ec:	bff9                	j	9ca <xMBTCPPortInit+0x48>

000009ee <vMBTCPPortDisable>:
     9ee:	b29ff2ef          	jal	t0,516 <__riscv_save_0>
     9f2:	80d18513          	addi	a0,gp,-2035 # 2000010d <SocketIdForListen>
     9f6:	3935                	jal	632 <prvvMBPortReleaseClient.part.0>
     9f8:	b689                	j	53a <__riscv_restore_0>

000009fa <xMBTCPPortGetRequest>:
     9fa:	200027b7          	lui	a5,0x20002
     9fe:	9f878793          	addi	a5,a5,-1544 # 200019f8 <aucTCPBuf>
     a02:	c11c                	sw	a5,0(a0)
     a04:	200007b7          	lui	a5,0x20000
     a08:	19878793          	addi	a5,a5,408 # 20000198 <usTCPBufPos>
     a0c:	239a                	lhu	a4,0(a5)
     a0e:	4505                	li	a0,1
     a10:	00079023          	sh	zero,0(a5)
     a14:	a19a                	sh	a4,0(a1)
     a16:	8082                	ret

00000a18 <xMBTCPPortSendResponse>:
     a18:	affff2ef          	jal	t0,516 <__riscv_save_0>
     a1c:	200027b7          	lui	a5,0x20002
     a20:	862e                	mv	a2,a1
     a22:	842e                	mv	s0,a1
     a24:	85aa                	mv	a1,a0
     a26:	b0078513          	addi	a0,a5,-1280 # 20001b00 <outTCPBuf>
     a2a:	b0078493          	addi	s1,a5,-1280
     a2e:	3a90a0ef          	jal	ra,b5d6 <memcpy>
     a32:	200007b7          	lui	a5,0x20000
     a36:	1887a423          	sw	s0,392(a5) # 20000188 <Len>
     a3a:	20000437          	lui	s0,0x20000
     a3e:	19c40413          	addi	s0,s0,412 # 2000019c <xPortTCPOSEventGroup>
     a42:	4008                	lw	a0,0(s0)
     a44:	200007b7          	lui	a5,0x20000
     a48:	4585                	li	a1,1
     a4a:	1897aa23          	sw	s1,404(a5) # 20000194 <pData>
     a4e:	23b020ef          	jal	ra,3488 <xEventGroupSetBits>
     a52:	4008                	lw	a0,0(s0)
     a54:	577d                	li	a4,-1
     a56:	4685                	li	a3,1
     a58:	4605                	li	a2,1
     a5a:	4589                	li	a1,2
     a5c:	0d3020ef          	jal	ra,332e <xEventGroupWaitBits>
     a60:	4505                	li	a0,1
     a62:	bce1                	j	53a <__riscv_restore_0>

00000a64 <eMBTCPDoInit>:
     a64:	ab3ff2ef          	jal	t0,516 <__riscv_save_0>
     a68:	3f29                	jal	982 <xMBTCPPortInit>
     a6a:	e119                	bnez	a0,a70 <eMBTCPDoInit+0xc>
     a6c:	450d                	li	a0,3
     a6e:	b4f1                	j	53a <__riscv_restore_0>
     a70:	4501                	li	a0,0
     a72:	bff5                	j	a6e <eMBTCPDoInit+0xa>

00000a74 <eMBTCPStart>:
     a74:	8082                	ret

00000a76 <eMBTCPStop>:
     a76:	aa1ff2ef          	jal	t0,516 <__riscv_save_0>
     a7a:	3f95                	jal	9ee <vMBTCPPortDisable>
     a7c:	bc7d                	j	53a <__riscv_restore_0>

00000a7e <eMBTCPReceive>:
     a7e:	a99ff2ef          	jal	t0,516 <__riscv_save_0>
     a82:	1101                	addi	sp,sp,-32
     a84:	842a                	mv	s0,a0
     a86:	84ae                	mv	s1,a1
     a88:	0868                	addi	a0,sp,28
     a8a:	01a10593          	addi	a1,sp,26
     a8e:	c632                	sw	a2,12(sp)
     a90:	37ad                	jal	9fa <xMBTCPPortGetRequest>
     a92:	c90d                	beqz	a0,ac4 <eMBTCPReceive+0x46>
     a94:	4772                	lw	a4,28(sp)
     a96:	4515                	li	a0,5
     a98:	333c                	lbu	a5,3(a4)
     a9a:	2334                	lbu	a3,2(a4)
     a9c:	07a2                	slli	a5,a5,0x8
     a9e:	8fd5                	or	a5,a5,a3
     aa0:	00879693          	slli	a3,a5,0x8
     aa4:	83a1                	srli	a5,a5,0x8
     aa6:	8fd5                	or	a5,a5,a3
     aa8:	07c2                	slli	a5,a5,0x10
     aaa:	83c1                	srli	a5,a5,0x10
     aac:	eb91                	bnez	a5,ac0 <eMBTCPReceive+0x42>
     aae:	85bc                	lhu	a5,26(sp)
     ab0:	4632                	lw	a2,12(sp)
     ab2:	071d                	addi	a4,a4,7
     ab4:	c098                	sw	a4,0(s1)
     ab6:	17e5                	addi	a5,a5,-7
     ab8:	a21e                	sh	a5,0(a2)
     aba:	57fd                	li	a5,-1
     abc:	a01c                	sb	a5,0(s0)
     abe:	4501                	li	a0,0
     ac0:	6105                	addi	sp,sp,32
     ac2:	bca5                	j	53a <__riscv_restore_0>
     ac4:	4515                	li	a0,5
     ac6:	bfed                	j	ac0 <eMBTCPReceive+0x42>

00000ac8 <eMBTCPSend>:
     ac8:	a4fff2ef          	jal	t0,516 <__riscv_save_0>
     acc:	00160793          	addi	a5,a2,1
     ad0:	4087d713          	srai	a4,a5,0x8
     ad4:	061d                	addi	a2,a2,7
     ad6:	fef58f23          	sb	a5,-2(a1)
     ada:	852e                	mv	a0,a1
     adc:	fee58ea3          	sb	a4,-3(a1)
     ae0:	01061593          	slli	a1,a2,0x10
     ae4:	81c1                	srli	a1,a1,0x10
     ae6:	1565                	addi	a0,a0,-7
     ae8:	3f05                	jal	a18 <xMBTCPPortSendResponse>
     aea:	4795                	li	a5,5
     aec:	c111                	beqz	a0,af0 <eMBTCPSend+0x28>
     aee:	4781                	li	a5,0
     af0:	853e                	mv	a0,a5
     af2:	b4a1                	j	53a <__riscv_restore_0>

00000af4 <eMBFuncReadCoils>:
     af4:	2196                	lhu	a3,0(a1)
     af6:	4715                	li	a4,5
     af8:	08e69763          	bne	a3,a4,b86 <eMBFuncReadCoils+0x92>
     afc:	2158                	lbu	a4,4(a0)
     afe:	3130                	lbu	a2,3(a0)
     b00:	7ce00693          	li	a3,1998
     b04:	0722                	slli	a4,a4,0x8
     b06:	8f51                	or	a4,a4,a2
     b08:	00871613          	slli	a2,a4,0x8
     b0c:	8321                	srli	a4,a4,0x8
     b0e:	8e59                	or	a2,a2,a4
     b10:	0642                	slli	a2,a2,0x10
     b12:	8241                	srli	a2,a2,0x10
     b14:	fff60713          	addi	a4,a2,-1
     b18:	0742                	slli	a4,a4,0x10
     b1a:	8341                	srli	a4,a4,0x10
     b1c:	87aa                	mv	a5,a0
     b1e:	450d                	li	a0,3
     b20:	06e6e563          	bltu	a3,a4,b8a <eMBFuncReadCoils+0x96>
     b24:	9f3ff2ef          	jal	t0,516 <__riscv_save_0>
     b28:	23b8                	lbu	a4,2(a5)
     b2a:	3394                	lbu	a3,1(a5)
     b2c:	00059023          	sh	zero,0(a1)
     b30:	0722                	slli	a4,a4,0x8
     b32:	8f55                	or	a4,a4,a3
     b34:	4685                	li	a3,1
     b36:	a394                	sb	a3,0(a5)
     b38:	2196                	lhu	a3,0(a1)
     b3a:	00365493          	srli	s1,a2,0x3
     b3e:	0ff4f493          	andi	s1,s1,255
     b42:	0685                	addi	a3,a3,1
     b44:	a196                	sh	a3,0(a1)
     b46:	00767693          	andi	a3,a2,7
     b4a:	c681                	beqz	a3,b52 <eMBFuncReadCoils+0x5e>
     b4c:	0485                	addi	s1,s1,1
     b4e:	0ff4f493          	andi	s1,s1,255
     b52:	b384                	sb	s1,1(a5)
     b54:	2196                	lhu	a3,0(a1)
     b56:	842e                	mv	s0,a1
     b58:	00278513          	addi	a0,a5,2
     b5c:	0685                	addi	a3,a3,1
     b5e:	a196                	sh	a3,0(a1)
     b60:	00871593          	slli	a1,a4,0x8
     b64:	8321                	srli	a4,a4,0x8
     b66:	8f4d                	or	a4,a4,a1
     b68:	00170593          	addi	a1,a4,1 # 1001 <eMBTCPInit+0x9>
     b6c:	05c2                	slli	a1,a1,0x10
     b6e:	4681                	li	a3,0
     b70:	81c1                	srli	a1,a1,0x10
     b72:	015000ef          	jal	ra,1386 <eMBRegCoilsCB>
     b76:	c119                	beqz	a0,b7c <eMBFuncReadCoils+0x88>
     b78:	21b5                	jal	fe4 <prveMBError2Exception>
     b7a:	b2c1                	j	53a <__riscv_restore_0>
     b7c:	201e                	lhu	a5,0(s0)
     b7e:	4501                	li	a0,0
     b80:	94be                	add	s1,s1,a5
     b82:	a006                	sh	s1,0(s0)
     b84:	bfdd                	j	b7a <eMBFuncReadCoils+0x86>
     b86:	450d                	li	a0,3
     b88:	8082                	ret
     b8a:	8082                	ret

00000b8c <eMBFuncWriteCoil>:
     b8c:	219a                	lhu	a4,0(a1)
     b8e:	4795                	li	a5,5
     b90:	06f71163          	bne	a4,a5,bf2 <eMBFuncWriteCoil+0x66>
     b94:	2158                	lbu	a4,4(a0)
     b96:	478d                	li	a5,3
     b98:	ef31                	bnez	a4,bf4 <eMBFuncWriteCoil+0x68>
     b9a:	3138                	lbu	a4,3(a0)
     b9c:	0fd00613          	li	a2,253
     ba0:	fff70693          	addi	a3,a4,-1
     ba4:	0ff6f693          	andi	a3,a3,255
     ba8:	04d67663          	bgeu	a2,a3,bf4 <eMBFuncWriteCoil+0x68>
     bac:	96bff2ef          	jal	t0,516 <__riscv_save_0>
     bb0:	213c                	lbu	a5,2(a0)
     bb2:	310c                	lbu	a1,1(a0)
     bb4:	1141                	addi	sp,sp,-16
     bb6:	07a2                	slli	a5,a5,0x8
     bb8:	8fcd                	or	a5,a5,a1
     bba:	00879593          	slli	a1,a5,0x8
     bbe:	83a1                	srli	a5,a5,0x8
     bc0:	8fcd                	or	a5,a5,a1
     bc2:	00178593          	addi	a1,a5,1
     bc6:	f0170713          	addi	a4,a4,-255
     bca:	05c2                	slli	a1,a1,0x10
     bcc:	00173713          	seqz	a4,a4
     bd0:	4685                	li	a3,1
     bd2:	4605                	li	a2,1
     bd4:	81c1                	srli	a1,a1,0x10
     bd6:	0068                	addi	a0,sp,12
     bd8:	000106a3          	sb	zero,13(sp)
     bdc:	8658                	sb	a4,12(sp)
     bde:	7a8000ef          	jal	ra,1386 <eMBRegCoilsCB>
     be2:	4781                	li	a5,0
     be4:	c119                	beqz	a0,bea <eMBFuncWriteCoil+0x5e>
     be6:	2efd                	jal	fe4 <prveMBError2Exception>
     be8:	87aa                	mv	a5,a0
     bea:	853e                	mv	a0,a5
     bec:	0141                	addi	sp,sp,16
     bee:	94dff06f          	j	53a <__riscv_restore_0>
     bf2:	478d                	li	a5,3
     bf4:	853e                	mv	a0,a5
     bf6:	8082                	ret

00000bf8 <eMBFuncWriteMultipleCoils>:
     bf8:	2196                	lhu	a3,0(a1)
     bfa:	4715                	li	a4,5
     bfc:	06d77f63          	bgeu	a4,a3,c7a <eMBFuncWriteMultipleCoils+0x82>
     c00:	2158                	lbu	a4,4(a0)
     c02:	3130                	lbu	a2,3(a0)
     c04:	87aa                	mv	a5,a0
     c06:	0722                	slli	a4,a4,0x8
     c08:	8f51                	or	a4,a4,a2
     c0a:	00871613          	slli	a2,a4,0x8
     c0e:	8321                	srli	a4,a4,0x8
     c10:	8e59                	or	a2,a2,a4
     c12:	0642                	slli	a2,a2,0x10
     c14:	8241                	srli	a2,a2,0x10
     c16:	00365713          	srli	a4,a2,0x3
     c1a:	00767693          	andi	a3,a2,7
     c1e:	0ff77713          	andi	a4,a4,255
     c22:	c681                	beqz	a3,c2a <eMBFuncWriteMultipleCoils+0x32>
     c24:	0705                	addi	a4,a4,1
     c26:	0ff77713          	andi	a4,a4,255
     c2a:	fff60693          	addi	a3,a2,-1
     c2e:	06c2                	slli	a3,a3,0x10
     c30:	82c1                	srli	a3,a3,0x10
     c32:	7af00813          	li	a6,1967
     c36:	450d                	li	a0,3
     c38:	04d86363          	bltu	a6,a3,c7e <eMBFuncWriteMultipleCoils+0x86>
     c3c:	33d4                	lbu	a3,5(a5)
     c3e:	04e69063          	bne	a3,a4,c7e <eMBFuncWriteMultipleCoils+0x86>
     c42:	8d5ff2ef          	jal	t0,516 <__riscv_save_0>
     c46:	23b8                	lbu	a4,2(a5)
     c48:	842e                	mv	s0,a1
     c4a:	338c                	lbu	a1,1(a5)
     c4c:	0722                	slli	a4,a4,0x8
     c4e:	00678513          	addi	a0,a5,6
     c52:	8f4d                	or	a4,a4,a1
     c54:	00871693          	slli	a3,a4,0x8
     c58:	8321                	srli	a4,a4,0x8
     c5a:	8f55                	or	a4,a4,a3
     c5c:	0705                	addi	a4,a4,1
     c5e:	01071593          	slli	a1,a4,0x10
     c62:	4685                	li	a3,1
     c64:	81c1                	srli	a1,a1,0x10
     c66:	720000ef          	jal	ra,1386 <eMBRegCoilsCB>
     c6a:	c501                	beqz	a0,c72 <eMBFuncWriteMultipleCoils+0x7a>
     c6c:	2ea5                	jal	fe4 <prveMBError2Exception>
     c6e:	8cdff06f          	j	53a <__riscv_restore_0>
     c72:	4795                	li	a5,5
     c74:	a01e                	sh	a5,0(s0)
     c76:	4501                	li	a0,0
     c78:	bfdd                	j	c6e <eMBFuncWriteMultipleCoils+0x76>
     c7a:	450d                	li	a0,3
     c7c:	8082                	ret
     c7e:	8082                	ret

00000c80 <eMBFuncReadDiscreteInputs>:
     c80:	2196                	lhu	a3,0(a1)
     c82:	4715                	li	a4,5
     c84:	08e69663          	bne	a3,a4,d10 <eMBFuncReadDiscreteInputs+0x90>
     c88:	2158                	lbu	a4,4(a0)
     c8a:	3130                	lbu	a2,3(a0)
     c8c:	7ce00693          	li	a3,1998
     c90:	0722                	slli	a4,a4,0x8
     c92:	8f51                	or	a4,a4,a2
     c94:	00871613          	slli	a2,a4,0x8
     c98:	8321                	srli	a4,a4,0x8
     c9a:	8e59                	or	a2,a2,a4
     c9c:	0642                	slli	a2,a2,0x10
     c9e:	8241                	srli	a2,a2,0x10
     ca0:	fff60713          	addi	a4,a2,-1
     ca4:	0742                	slli	a4,a4,0x10
     ca6:	8341                	srli	a4,a4,0x10
     ca8:	87aa                	mv	a5,a0
     caa:	450d                	li	a0,3
     cac:	06e6e463          	bltu	a3,a4,d14 <eMBFuncReadDiscreteInputs+0x94>
     cb0:	867ff2ef          	jal	t0,516 <__riscv_save_0>
     cb4:	23b8                	lbu	a4,2(a5)
     cb6:	3394                	lbu	a3,1(a5)
     cb8:	00059023          	sh	zero,0(a1)
     cbc:	0722                	slli	a4,a4,0x8
     cbe:	8f55                	or	a4,a4,a3
     cc0:	4689                	li	a3,2
     cc2:	a394                	sb	a3,0(a5)
     cc4:	2196                	lhu	a3,0(a1)
     cc6:	00365493          	srli	s1,a2,0x3
     cca:	0ff4f493          	andi	s1,s1,255
     cce:	0685                	addi	a3,a3,1
     cd0:	a196                	sh	a3,0(a1)
     cd2:	00767693          	andi	a3,a2,7
     cd6:	c681                	beqz	a3,cde <eMBFuncReadDiscreteInputs+0x5e>
     cd8:	0485                	addi	s1,s1,1
     cda:	0ff4f493          	andi	s1,s1,255
     cde:	b384                	sb	s1,1(a5)
     ce0:	2196                	lhu	a3,0(a1)
     ce2:	842e                	mv	s0,a1
     ce4:	00278513          	addi	a0,a5,2
     ce8:	0685                	addi	a3,a3,1
     cea:	a196                	sh	a3,0(a1)
     cec:	00871593          	slli	a1,a4,0x8
     cf0:	8321                	srli	a4,a4,0x8
     cf2:	8f4d                	or	a4,a4,a1
     cf4:	00170593          	addi	a1,a4,1
     cf8:	05c2                	slli	a1,a1,0x10
     cfa:	81c1                	srli	a1,a1,0x10
     cfc:	2579                	jal	138a <eMBRegDiscreteCB>
     cfe:	c501                	beqz	a0,d06 <eMBFuncReadDiscreteInputs+0x86>
     d00:	24d5                	jal	fe4 <prveMBError2Exception>
     d02:	839ff06f          	j	53a <__riscv_restore_0>
     d06:	201e                	lhu	a5,0(s0)
     d08:	4501                	li	a0,0
     d0a:	94be                	add	s1,s1,a5
     d0c:	a006                	sh	s1,0(s0)
     d0e:	bfd5                	j	d02 <eMBFuncReadDiscreteInputs+0x82>
     d10:	450d                	li	a0,3
     d12:	8082                	ret
     d14:	8082                	ret

00000d16 <eMBFuncWriteHoldingRegister>:
     d16:	219a                	lhu	a4,0(a1)
     d18:	4795                	li	a5,5
     d1a:	02f71b63          	bne	a4,a5,d50 <eMBFuncWriteHoldingRegister+0x3a>
     d1e:	ff8ff2ef          	jal	t0,516 <__riscv_save_0>
     d22:	213c                	lbu	a5,2(a0)
     d24:	310c                	lbu	a1,1(a0)
     d26:	4685                	li	a3,1
     d28:	07a2                	slli	a5,a5,0x8
     d2a:	8fcd                	or	a5,a5,a1
     d2c:	00879593          	slli	a1,a5,0x8
     d30:	83a1                	srli	a5,a5,0x8
     d32:	8fcd                	or	a5,a5,a1
     d34:	00178593          	addi	a1,a5,1
     d38:	05c2                	slli	a1,a1,0x10
     d3a:	4605                	li	a2,1
     d3c:	81c1                	srli	a1,a1,0x10
     d3e:	050d                	addi	a0,a0,3
     d40:	23f1                	jal	130c <eMBRegHoldingCB>
     d42:	4781                	li	a5,0
     d44:	c119                	beqz	a0,d4a <eMBFuncWriteHoldingRegister+0x34>
     d46:	2c79                	jal	fe4 <prveMBError2Exception>
     d48:	87aa                	mv	a5,a0
     d4a:	853e                	mv	a0,a5
     d4c:	feeff06f          	j	53a <__riscv_restore_0>
     d50:	478d                	li	a5,3
     d52:	853e                	mv	a0,a5
     d54:	8082                	ret

00000d56 <eMBFuncWriteMultipleHoldingRegister>:
     d56:	fc0ff2ef          	jal	t0,516 <__riscv_save_0>
     d5a:	219a                	lhu	a4,0(a1)
     d5c:	4495                	li	s1,5
     d5e:	06e4f663          	bgeu	s1,a4,dca <eMBFuncWriteMultipleHoldingRegister+0x74>
     d62:	2158                	lbu	a4,4(a0)
     d64:	3130                	lbu	a2,3(a0)
     d66:	07700693          	li	a3,119
     d6a:	0722                	slli	a4,a4,0x8
     d6c:	8f51                	or	a4,a4,a2
     d6e:	00871613          	slli	a2,a4,0x8
     d72:	8321                	srli	a4,a4,0x8
     d74:	8f51                	or	a4,a4,a2
     d76:	01071613          	slli	a2,a4,0x10
     d7a:	8241                	srli	a2,a2,0x10
     d7c:	fff60713          	addi	a4,a2,-1
     d80:	0742                	slli	a4,a4,0x10
     d82:	8341                	srli	a4,a4,0x10
     d84:	87aa                	mv	a5,a0
     d86:	450d                	li	a0,3
     d88:	02e6ec63          	bltu	a3,a4,dc0 <eMBFuncWriteMultipleHoldingRegister+0x6a>
     d8c:	33d4                	lbu	a3,5(a5)
     d8e:	00161713          	slli	a4,a2,0x1
     d92:	0ff77713          	andi	a4,a4,255
     d96:	02e69563          	bne	a3,a4,dc0 <eMBFuncWriteMultipleHoldingRegister+0x6a>
     d9a:	23b8                	lbu	a4,2(a5)
     d9c:	842e                	mv	s0,a1
     d9e:	338c                	lbu	a1,1(a5)
     da0:	0722                	slli	a4,a4,0x8
     da2:	00678513          	addi	a0,a5,6
     da6:	8f4d                	or	a4,a4,a1
     da8:	00871693          	slli	a3,a4,0x8
     dac:	8321                	srli	a4,a4,0x8
     dae:	8f55                	or	a4,a4,a3
     db0:	0705                	addi	a4,a4,1
     db2:	01071593          	slli	a1,a4,0x10
     db6:	4685                	li	a3,1
     db8:	81c1                	srli	a1,a1,0x10
     dba:	2b89                	jal	130c <eMBRegHoldingCB>
     dbc:	c501                	beqz	a0,dc4 <eMBFuncWriteMultipleHoldingRegister+0x6e>
     dbe:	241d                	jal	fe4 <prveMBError2Exception>
     dc0:	f7aff06f          	j	53a <__riscv_restore_0>
     dc4:	a006                	sh	s1,0(s0)
     dc6:	4501                	li	a0,0
     dc8:	bfe5                	j	dc0 <eMBFuncWriteMultipleHoldingRegister+0x6a>
     dca:	450d                	li	a0,3
     dcc:	bfd5                	j	dc0 <eMBFuncWriteMultipleHoldingRegister+0x6a>

00000dce <eMBFuncReadHoldingRegister>:
     dce:	2196                	lhu	a3,0(a1)
     dd0:	4715                	li	a4,5
     dd2:	06e69963          	bne	a3,a4,e44 <eMBFuncReadHoldingRegister+0x76>
     dd6:	f40ff2ef          	jal	t0,516 <__riscv_save_0>
     dda:	2154                	lbu	a3,4(a0)
     ddc:	07c00613          	li	a2,124
     de0:	87aa                	mv	a5,a0
     de2:	01069493          	slli	s1,a3,0x10
     de6:	80c1                	srli	s1,s1,0x10
     de8:	fff48713          	addi	a4,s1,-1
     dec:	0742                	slli	a4,a4,0x10
     dee:	8341                	srli	a4,a4,0x10
     df0:	450d                	li	a0,3
     df2:	04e66163          	bltu	a2,a4,e34 <eMBFuncReadHoldingRegister+0x66>
     df6:	842e                	mv	s0,a1
     df8:	23b8                	lbu	a4,2(a5)
     dfa:	338c                	lbu	a1,1(a5)
     dfc:	00041023          	sh	zero,0(s0)
     e00:	a388                	sb	a0,0(a5)
     e02:	2012                	lhu	a2,0(s0)
     e04:	0686                	slli	a3,a3,0x1
     e06:	0722                	slli	a4,a4,0x8
     e08:	0605                	addi	a2,a2,1
     e0a:	a012                	sh	a2,0(s0)
     e0c:	8f4d                	or	a4,a4,a1
     e0e:	b394                	sb	a3,1(a5)
     e10:	00871593          	slli	a1,a4,0x8
     e14:	2016                	lhu	a3,0(s0)
     e16:	8321                	srli	a4,a4,0x8
     e18:	8f4d                	or	a4,a4,a1
     e1a:	00170593          	addi	a1,a4,1
     e1e:	0685                	addi	a3,a3,1
     e20:	05c2                	slli	a1,a1,0x10
     e22:	a016                	sh	a3,0(s0)
     e24:	8626                	mv	a2,s1
     e26:	4681                	li	a3,0
     e28:	81c1                	srli	a1,a1,0x10
     e2a:	00278513          	addi	a0,a5,2
     e2e:	29f9                	jal	130c <eMBRegHoldingCB>
     e30:	c501                	beqz	a0,e38 <eMBFuncReadHoldingRegister+0x6a>
     e32:	2a4d                	jal	fe4 <prveMBError2Exception>
     e34:	f06ff06f          	j	53a <__riscv_restore_0>
     e38:	201e                	lhu	a5,0(s0)
     e3a:	0486                	slli	s1,s1,0x1
     e3c:	4501                	li	a0,0
     e3e:	94be                	add	s1,s1,a5
     e40:	a006                	sh	s1,0(s0)
     e42:	bfcd                	j	e34 <eMBFuncReadHoldingRegister+0x66>
     e44:	450d                	li	a0,3
     e46:	8082                	ret

00000e48 <eMBFuncReadWriteMultipleHoldingRegister>:
     e48:	219a                	lhu	a4,0(a1)
     e4a:	47a5                	li	a5,9
     e4c:	0ee7f063          	bgeu	a5,a4,f2c <eMBFuncReadWriteMultipleHoldingRegister+0xe4>
     e50:	eacff2ef          	jal	t0,4fc <__riscv_save_4>
     e54:	215c                	lbu	a5,4(a0)
     e56:	3138                	lbu	a4,3(a0)
     e58:	842a                	mv	s0,a0
     e5a:	07a2                	slli	a5,a5,0x8
     e5c:	8fd9                	or	a5,a5,a4
     e5e:	00879993          	slli	s3,a5,0x8
     e62:	83a1                	srli	a5,a5,0x8
     e64:	00f9e7b3          	or	a5,s3,a5
     e68:	01079993          	slli	s3,a5,0x10
     e6c:	0109d993          	srli	s3,s3,0x10
     e70:	fff98793          	addi	a5,s3,-1
     e74:	07c2                	slli	a5,a5,0x10
     e76:	83c1                	srli	a5,a5,0x10
     e78:	07c00713          	li	a4,124
     e7c:	450d                	li	a0,3
     e7e:	0af76563          	bltu	a4,a5,f28 <eMBFuncReadWriteMultipleHoldingRegister+0xe0>
     e82:	241c                	lbu	a5,8(s0)
     e84:	3070                	lbu	a2,7(s0)
     e86:	07800713          	li	a4,120
     e8a:	07a2                	slli	a5,a5,0x8
     e8c:	8fd1                	or	a5,a5,a2
     e8e:	00879613          	slli	a2,a5,0x8
     e92:	83a1                	srli	a5,a5,0x8
     e94:	8fd1                	or	a5,a5,a2
     e96:	01079613          	slli	a2,a5,0x10
     e9a:	8241                	srli	a2,a2,0x10
     e9c:	fff60793          	addi	a5,a2,-1
     ea0:	07c2                	slli	a5,a5,0x10
     ea2:	83c1                	srli	a5,a5,0x10
     ea4:	08f76263          	bltu	a4,a5,f28 <eMBFuncReadWriteMultipleHoldingRegister+0xe0>
     ea8:	3418                	lbu	a4,9(s0)
     eaa:	00161793          	slli	a5,a2,0x1
     eae:	06e79d63          	bne	a5,a4,f28 <eMBFuncReadWriteMultipleHoldingRegister+0xe0>
     eb2:	2024                	lbu	s1,2(s0)
     eb4:	892e                	mv	s2,a1
     eb6:	300c                	lbu	a1,1(s0)
     eb8:	04a2                	slli	s1,s1,0x8
     eba:	207c                	lbu	a5,6(s0)
     ebc:	8ccd                	or	s1,s1,a1
     ebe:	304c                	lbu	a1,5(s0)
     ec0:	07a2                	slli	a5,a5,0x8
     ec2:	4685                	li	a3,1
     ec4:	8fcd                	or	a5,a5,a1
     ec6:	00879593          	slli	a1,a5,0x8
     eca:	83a1                	srli	a5,a5,0x8
     ecc:	8fcd                	or	a5,a5,a1
     ece:	00178593          	addi	a1,a5,1
     ed2:	05c2                	slli	a1,a1,0x10
     ed4:	81c1                	srli	a1,a1,0x10
     ed6:	00a40513          	addi	a0,s0,10
     eda:	290d                	jal	130c <eMBRegHoldingCB>
     edc:	e931                	bnez	a0,f30 <eMBFuncReadWriteMultipleHoldingRegister+0xe8>
     ede:	00091023          	sh	zero,0(s2)
     ee2:	47dd                	li	a5,23
     ee4:	a01c                	sb	a5,0(s0)
     ee6:	00095783          	lhu	a5,0(s2)
     eea:	00199a13          	slli	s4,s3,0x1
     eee:	00849593          	slli	a1,s1,0x8
     ef2:	0785                	addi	a5,a5,1
     ef4:	00f91023          	sh	a5,0(s2)
     ef8:	014400a3          	sb	s4,1(s0)
     efc:	00095783          	lhu	a5,0(s2)
     f00:	80a1                	srli	s1,s1,0x8
     f02:	8ccd                	or	s1,s1,a1
     f04:	00148593          	addi	a1,s1,1
     f08:	0785                	addi	a5,a5,1
     f0a:	05c2                	slli	a1,a1,0x10
     f0c:	00f91023          	sh	a5,0(s2)
     f10:	4681                	li	a3,0
     f12:	864e                	mv	a2,s3
     f14:	81c1                	srli	a1,a1,0x10
     f16:	00240513          	addi	a0,s0,2
     f1a:	2ecd                	jal	130c <eMBRegHoldingCB>
     f1c:	e911                	bnez	a0,f30 <eMBFuncReadWriteMultipleHoldingRegister+0xe8>
     f1e:	00095783          	lhu	a5,0(s2)
     f22:	9a3e                	add	s4,s4,a5
     f24:	01491023          	sh	s4,0(s2)
     f28:	e08ff06f          	j	530 <__riscv_restore_4>
     f2c:	4501                	li	a0,0
     f2e:	8082                	ret
     f30:	2855                	jal	fe4 <prveMBError2Exception>
     f32:	bfdd                	j	f28 <eMBFuncReadWriteMultipleHoldingRegister+0xe0>

00000f34 <eMBFuncReadInputRegister>:
     f34:	2196                	lhu	a3,0(a1)
     f36:	4715                	li	a4,5
     f38:	06e69f63          	bne	a3,a4,fb6 <eMBFuncReadInputRegister+0x82>
     f3c:	2158                	lbu	a4,4(a0)
     f3e:	3130                	lbu	a2,3(a0)
     f40:	07b00693          	li	a3,123
     f44:	0722                	slli	a4,a4,0x8
     f46:	8f51                	or	a4,a4,a2
     f48:	00871613          	slli	a2,a4,0x8
     f4c:	8321                	srli	a4,a4,0x8
     f4e:	8f51                	or	a4,a4,a2
     f50:	01071613          	slli	a2,a4,0x10
     f54:	8241                	srli	a2,a2,0x10
     f56:	fff60713          	addi	a4,a2,-1
     f5a:	0742                	slli	a4,a4,0x10
     f5c:	8341                	srli	a4,a4,0x10
     f5e:	87aa                	mv	a5,a0
     f60:	450d                	li	a0,3
     f62:	04e6ec63          	bltu	a3,a4,fba <eMBFuncReadInputRegister+0x86>
     f66:	db0ff2ef          	jal	t0,516 <__riscv_save_0>
     f6a:	842e                	mv	s0,a1
     f6c:	853e                	mv	a0,a5
     f6e:	338c                	lbu	a1,1(a5)
     f70:	4711                	li	a4,4
     f72:	23bc                	lbu	a5,2(a5)
     f74:	00041023          	sh	zero,0(s0)
     f78:	a118                	sb	a4,0(a0)
     f7a:	201a                	lhu	a4,0(s0)
     f7c:	07a2                	slli	a5,a5,0x8
     f7e:	00161493          	slli	s1,a2,0x1
     f82:	0705                	addi	a4,a4,1
     f84:	a01a                	sh	a4,0(s0)
     f86:	b104                	sb	s1,1(a0)
     f88:	8fcd                	or	a5,a5,a1
     f8a:	00879593          	slli	a1,a5,0x8
     f8e:	201a                	lhu	a4,0(s0)
     f90:	83a1                	srli	a5,a5,0x8
     f92:	8fcd                	or	a5,a5,a1
     f94:	00178593          	addi	a1,a5,1
     f98:	0705                	addi	a4,a4,1
     f9a:	05c2                	slli	a1,a1,0x10
     f9c:	a01a                	sh	a4,0(s0)
     f9e:	81c1                	srli	a1,a1,0x10
     fa0:	0509                	addi	a0,a0,2
     fa2:	2699                	jal	12e8 <eMBRegInputCB>
     fa4:	c501                	beqz	a0,fac <eMBFuncReadInputRegister+0x78>
     fa6:	283d                	jal	fe4 <prveMBError2Exception>
     fa8:	d92ff06f          	j	53a <__riscv_restore_0>
     fac:	201e                	lhu	a5,0(s0)
     fae:	4501                	li	a0,0
     fb0:	94be                	add	s1,s1,a5
     fb2:	a006                	sh	s1,0(s0)
     fb4:	bfd5                	j	fa8 <eMBFuncReadInputRegister+0x74>
     fb6:	450d                	li	a0,3
     fb8:	8082                	ret
     fba:	8082                	ret

00000fbc <eMBFuncReportSlaveID>:
     fbc:	d5aff2ef          	jal	t0,516 <__riscv_save_0>
     fc0:	200007b7          	lui	a5,0x20000
     fc4:	1a07d403          	lhu	s0,416(a5) # 200001a0 <usMBSlaveIDLen>
     fc8:	84ae                	mv	s1,a1
     fca:	200025b7          	lui	a1,0x20002
     fce:	8622                	mv	a2,s0
     fd0:	c0858593          	addi	a1,a1,-1016 # 20001c08 <ucMBSlaveID>
     fd4:	0505                	addi	a0,a0,1
     fd6:	6000a0ef          	jal	ra,b5d6 <memcpy>
     fda:	0405                	addi	s0,s0,1
     fdc:	a082                	sh	s0,0(s1)
     fde:	4501                	li	a0,0
     fe0:	d5aff06f          	j	53a <__riscv_restore_0>

00000fe4 <prveMBError2Exception>:
     fe4:	479d                	li	a5,7
     fe6:	00a7e763          	bltu	a5,a0,ff4 <prveMBError2Exception+0x10>
     fea:	84c18793          	addi	a5,gp,-1972 # 2000014c <CSWTCH.5>
     fee:	97aa                	add	a5,a5,a0
     ff0:	2388                	lbu	a0,0(a5)
     ff2:	8082                	ret
     ff4:	4511                	li	a0,4
     ff6:	8082                	ret

00000ff8 <eMBTCPInit>:
     ff8:	d1eff2ef          	jal	t0,516 <__riscv_save_0>
     ffc:	a69ff0ef          	jal	ra,a64 <eMBTCPDoInit>
    1000:	842a                	mv	s0,a0
    1002:	c519                	beqz	a0,1010 <eMBTCPInit+0x18>
    1004:	4705                	li	a4,1
    1006:	80e1a823          	sw	a4,-2032(gp) # 20000110 <eMBState>
    100a:	8522                	mv	a0,s0
    100c:	d2eff06f          	j	53a <__riscv_restore_0>
    1010:	ddeff0ef          	jal	ra,5ee <xMBPortEventInit>
    1014:	c929                	beqz	a0,1066 <eMBTCPInit+0x6e>
    1016:	000017b7          	lui	a5,0x1
    101a:	20000737          	lui	a4,0x20000
    101e:	a7478793          	addi	a5,a5,-1420 # a74 <eMBTCPStart>
    1022:	1af72a23          	sw	a5,436(a4) # 200001b4 <pvMBFrameStartCur>
    1026:	000017b7          	lui	a5,0x1
    102a:	20000737          	lui	a4,0x20000
    102e:	a7678793          	addi	a5,a5,-1418 # a76 <eMBTCPStop>
    1032:	1af72c23          	sw	a5,440(a4) # 200001b8 <pvMBFrameStopCur>
    1036:	000017b7          	lui	a5,0x1
    103a:	20000737          	lui	a4,0x20000
    103e:	a7e78793          	addi	a5,a5,-1410 # a7e <eMBTCPReceive>
    1042:	1af72423          	sw	a5,424(a4) # 200001a8 <peMBFrameReceiveCur>
    1046:	000017b7          	lui	a5,0x1
    104a:	20000737          	lui	a4,0x20000
    104e:	ac878793          	addi	a5,a5,-1336 # ac8 <eMBTCPSend>
    1052:	1af72623          	sw	a5,428(a4) # 200001ac <peMBFrameSendCur>
    1056:	200007b7          	lui	a5,0x20000
    105a:	1a07a823          	sw	zero,432(a5) # 200001b0 <pvMBFrameCloseCur>
    105e:	577d                	li	a4,-1
    1060:	80e18a23          	sb	a4,-2028(gp) # 20000114 <ucMBAddress>
    1064:	b745                	j	1004 <eMBTCPInit+0xc>
    1066:	440d                	li	s0,3
    1068:	b74d                	j	100a <eMBTCPInit+0x12>

0000106a <eMBEnable>:
    106a:	cacff2ef          	jal	t0,516 <__riscv_save_0>
    106e:	81018413          	addi	s0,gp,-2032 # 20000110 <eMBState>
    1072:	4018                	lw	a4,0(s0)
    1074:	4785                	li	a5,1
    1076:	4519                	li	a0,6
    1078:	00f71a63          	bne	a4,a5,108c <eMBEnable+0x22>
    107c:	200007b7          	lui	a5,0x20000
    1080:	1b47a783          	lw	a5,436(a5) # 200001b4 <pvMBFrameStartCur>
    1084:	9782                	jalr	a5
    1086:	4501                	li	a0,0
    1088:	00042023          	sw	zero,0(s0)
    108c:	caeff06f          	j	53a <__riscv_restore_0>

00001090 <eMBPoll>:
    1090:	c86ff2ef          	jal	t0,516 <__riscv_save_0>
    1094:	8101a783          	lw	a5,-2032(gp) # 20000110 <eMBState>
    1098:	1141                	addi	sp,sp,-16
    109a:	4419                	li	s0,6
    109c:	0e079b63          	bnez	a5,1192 <eMBPoll+0x102>
    10a0:	0068                	addi	a0,sp,12
    10a2:	d6eff0ef          	jal	ra,610 <xMBPortEventGet>
    10a6:	4705                	li	a4,1
    10a8:	87aa                	mv	a5,a0
    10aa:	00e50463          	beq	a0,a4,10b2 <eMBPoll+0x22>
    10ae:	4401                	li	s0,0
    10b0:	a0cd                	j	1192 <eMBPoll+0x102>
    10b2:	4732                	lw	a4,12(sp)
    10b4:	0aa70163          	beq	a4,a0,1156 <eMBPoll+0xc6>
    10b8:	4689                	li	a3,2
    10ba:	fed71ae3          	bne	a4,a3,10ae <eMBPoll+0x1e>
    10be:	20000437          	lui	s0,0x20000
    10c2:	1c042503          	lw	a0,448(s0) # 200001c0 <ucMBFrame.6564>
    10c6:	200006b7          	lui	a3,0x20000
    10ca:	200004b7          	lui	s1,0x20000
    10ce:	210c                	lbu	a1,0(a0)
    10d0:	20000737          	lui	a4,0x20000
    10d4:	1af4a223          	sw	a5,420(s1) # 200001a4 <eException.6568>
    10d8:	00070613          	mv	a2,a4
    10dc:	1ab68e23          	sb	a1,444(a3) # 200001bc <ucFunctionCode.6566>
    10e0:	4781                	li	a5,0
    10e2:	1c040413          	addi	s0,s0,448
    10e6:	1bc68913          	addi	s2,a3,444
    10ea:	1a448493          	addi	s1,s1,420
    10ee:	00070713          	mv	a4,a4
    10f2:	4841                	li	a6,16
    10f4:	2214                	lbu	a3,0(a2)
    10f6:	ce81                	beqz	a3,110e <eMBPoll+0x7e>
    10f8:	0ad59163          	bne	a1,a3,119a <eMBPoll+0x10a>
    10fc:	078e                	slli	a5,a5,0x3
    10fe:	97ba                	add	a5,a5,a4
    1100:	43dc                	lw	a5,4(a5)
    1102:	200005b7          	lui	a1,0x20000
    1106:	1c658593          	addi	a1,a1,454 # 200001c6 <usLength.6567>
    110a:	9782                	jalr	a5
    110c:	c088                	sw	a0,0(s1)
    110e:	200007b7          	lui	a5,0x20000
    1112:	1c47c783          	lbu	a5,452(a5) # 200001c4 <ucRcvAddress.6565>
    1116:	dfc1                	beqz	a5,10ae <eMBPoll+0x1e>
    1118:	4094                	lw	a3,0(s1)
    111a:	200007b7          	lui	a5,0x20000
    111e:	1c678793          	addi	a5,a5,454 # 200001c6 <usLength.6567>
    1122:	c285                	beqz	a3,1142 <eMBPoll+0xb2>
    1124:	00094703          	lbu	a4,0(s2)
    1128:	4010                	lw	a2,0(s0)
    112a:	4585                	li	a1,1
    112c:	a38e                	sh	a1,0(a5)
    112e:	f8076713          	ori	a4,a4,-128
    1132:	a218                	sb	a4,0(a2)
    1134:	2392                	lhu	a2,0(a5)
    1136:	4018                	lw	a4,0(s0)
    1138:	00160593          	addi	a1,a2,1
    113c:	a38e                	sh	a1,0(a5)
    113e:	9732                	add	a4,a4,a2
    1140:	a314                	sb	a3,0(a4)
    1142:	2392                	lhu	a2,0(a5)
    1144:	20000737          	lui	a4,0x20000
    1148:	1ac72703          	lw	a4,428(a4) # 200001ac <peMBFrameSendCur>
    114c:	400c                	lw	a1,0(s0)
    114e:	8141c503          	lbu	a0,-2028(gp) # 20000114 <ucMBAddress>
    1152:	9702                	jalr	a4
    1154:	bfa9                	j	10ae <eMBPoll+0x1e>
    1156:	200007b7          	lui	a5,0x20000
    115a:	1a87a783          	lw	a5,424(a5) # 200001a8 <peMBFrameReceiveCur>
    115e:	20000537          	lui	a0,0x20000
    1162:	20000637          	lui	a2,0x20000
    1166:	200005b7          	lui	a1,0x20000
    116a:	1c450493          	addi	s1,a0,452 # 200001c4 <ucRcvAddress.6565>
    116e:	1c660613          	addi	a2,a2,454 # 200001c6 <usLength.6567>
    1172:	1c058593          	addi	a1,a1,448 # 200001c0 <ucMBFrame.6564>
    1176:	1c450513          	addi	a0,a0,452
    117a:	9782                	jalr	a5
    117c:	842a                	mv	s0,a0
    117e:	f905                	bnez	a0,10ae <eMBPoll+0x1e>
    1180:	209c                	lbu	a5,0(s1)
    1182:	8141c703          	lbu	a4,-2028(gp) # 20000114 <ucMBAddress>
    1186:	00f70363          	beq	a4,a5,118c <eMBPoll+0xfc>
    118a:	f395                	bnez	a5,10ae <eMBPoll+0x1e>
    118c:	4509                	li	a0,2
    118e:	c6cff0ef          	jal	ra,5fa <xMBPortEventPost>
    1192:	8522                	mv	a0,s0
    1194:	0141                	addi	sp,sp,16
    1196:	ba4ff06f          	j	53a <__riscv_restore_0>
    119a:	0785                	addi	a5,a5,1
    119c:	0621                	addi	a2,a2,8
    119e:	f5079be3          	bne	a5,a6,10f4 <eMBPoll+0x64>
    11a2:	b7b5                	j	110e <eMBPoll+0x7e>

000011a4 <NMI_Handler>:
    11a4:	30200073          	mret

000011a8 <HardFault_Handler>:
    11a8:	0000d537          	lui	a0,0xd
    11ac:	a6c50513          	addi	a0,a0,-1428 # ca6c <_read+0x136>
    11b0:	4bd0a0ef          	jal	ra,be6c <puts>
    11b4:	0fb030ef          	jal	ra,4aae <__get_MEPC>
    11b8:	85aa                	mv	a1,a0
    11ba:	0000d537          	lui	a0,0xd
    11be:	a8050513          	addi	a0,a0,-1408 # ca80 <_read+0x14a>
    11c2:	36d0a0ef          	jal	ra,bd2e <iprintf>
    11c6:	0ef030ef          	jal	ra,4ab4 <__get_MCAUSE>
    11ca:	85aa                	mv	a1,a0
    11cc:	0000d537          	lui	a0,0xd
    11d0:	a9050513          	addi	a0,a0,-1392 # ca90 <_read+0x15a>
    11d4:	35b0a0ef          	jal	ra,bd2e <iprintf>
    11d8:	0e3030ef          	jal	ra,4aba <__get_MTVAL>
    11dc:	85aa                	mv	a1,a0
    11de:	0000d537          	lui	a0,0xd
    11e2:	aa050513          	addi	a0,a0,-1376 # caa0 <_read+0x16a>
    11e6:	3490a0ef          	jal	ra,bd2e <iprintf>
    11ea:	a001                	j	11ea <HardFault_Handler+0x42>

000011ec <EXTI9_5_IRQHandler>:
    11ec:	7139                	addi	sp,sp,-64
    11ee:	de06                	sw	ra,60(sp)
    11f0:	dc16                	sw	t0,56(sp)
    11f2:	da1a                	sw	t1,52(sp)
    11f4:	d81e                	sw	t2,48(sp)
    11f6:	d62a                	sw	a0,44(sp)
    11f8:	d42e                	sw	a1,40(sp)
    11fa:	d232                	sw	a2,36(sp)
    11fc:	d036                	sw	a3,32(sp)
    11fe:	ce3a                	sw	a4,28(sp)
    1200:	cc3e                	sw	a5,24(sp)
    1202:	ca42                	sw	a6,20(sp)
    1204:	c846                	sw	a7,16(sp)
    1206:	c672                	sw	t3,12(sp)
    1208:	c476                	sw	t4,8(sp)
    120a:	c27a                	sw	t5,4(sp)
    120c:	c07e                	sw	t6,0(sp)
    120e:	534010ef          	jal	ra,2742 <ETH_PHYLink>
    1212:	08000513          	li	a0,128
    1216:	137000ef          	jal	ra,1b4c <EXTI_ClearITPendingBit>
    121a:	50f2                	lw	ra,60(sp)
    121c:	52e2                	lw	t0,56(sp)
    121e:	5352                	lw	t1,52(sp)
    1220:	53c2                	lw	t2,48(sp)
    1222:	5532                	lw	a0,44(sp)
    1224:	55a2                	lw	a1,40(sp)
    1226:	5612                	lw	a2,36(sp)
    1228:	5682                	lw	a3,32(sp)
    122a:	4772                	lw	a4,28(sp)
    122c:	47e2                	lw	a5,24(sp)
    122e:	4852                	lw	a6,20(sp)
    1230:	48c2                	lw	a7,16(sp)
    1232:	4e32                	lw	t3,12(sp)
    1234:	4ea2                	lw	t4,8(sp)
    1236:	4f12                	lw	t5,4(sp)
    1238:	4f82                	lw	t6,0(sp)
    123a:	6121                	addi	sp,sp,64
    123c:	30200073          	mret

00001240 <ETH_IRQHandler>:
    1240:	339010ef          	jal	ra,2d78 <WCHNET_ETHIsr>
    1244:	30200073          	mret

00001248 <TIM2_IRQHandler>:
    1248:	4529                	li	a0,10
    124a:	6a9000ef          	jal	ra,20f2 <WCHNET_TimeIsr>
    124e:	4585                	li	a1,1
    1250:	40000537          	lui	a0,0x40000
    1254:	503000ef          	jal	ra,1f56 <TIM_ClearITPendingBit>
    1258:	30200073          	mret

0000125c <xGetOSEvent>:
    125c:	20000537          	lui	a0,0x20000
    1260:	1c850513          	addi	a0,a0,456 # 200001c8 <xOSEventGroupHandle>
    1264:	8082                	ret

00001266 <GPIO_Toggle_INIT>:
    1266:	ab0ff2ef          	jal	t0,516 <__riscv_save_0>
    126a:	1141                	addi	sp,sp,-16
    126c:	4585                	li	a1,1
    126e:	4511                	li	a0,4
    1270:	40011437          	lui	s0,0x40011
    1274:	c202                	sw	zero,4(sp)
    1276:	c402                	sw	zero,8(sp)
    1278:	c602                	sw	zero,12(sp)
    127a:	33b000ef          	jal	ra,1db4 <RCC_APB2PeriphClockCmd>
    127e:	478d                	li	a5,3
    1280:	4941                	li	s2,16
    1282:	448d                	li	s1,3
    1284:	004c                	addi	a1,sp,4
    1286:	80040513          	addi	a0,s0,-2048 # 40010800 <__freertos_irq_stack_top+0x20000800>
    128a:	827c                	sh	a5,4(sp)
    128c:	c64a                	sw	s2,12(sp)
    128e:	c426                	sw	s1,8(sp)
    1290:	0c7000ef          	jal	ra,1b56 <GPIO_Init>
    1294:	4585                	li	a1,1
    1296:	4521                	li	a0,8
    1298:	31d000ef          	jal	ra,1db4 <RCC_APB2PeriphClockCmd>
    129c:	6789                	lui	a5,0x2
    129e:	004c                	addi	a1,sp,4
    12a0:	c0040513          	addi	a0,s0,-1024
    12a4:	827c                	sh	a5,4(sp)
    12a6:	c64a                	sw	s2,12(sp)
    12a8:	c426                	sw	s1,8(sp)
    12aa:	0ad000ef          	jal	ra,1b56 <GPIO_Init>
    12ae:	4585                	li	a1,1
    12b0:	4541                	li	a0,16
    12b2:	303000ef          	jal	ra,1db4 <RCC_APB2PeriphClockCmd>
    12b6:	4785                	li	a5,1
    12b8:	004c                	addi	a1,sp,4
    12ba:	c0040513          	addi	a0,s0,-1024
    12be:	827c                	sh	a5,4(sp)
    12c0:	c64a                	sw	s2,12(sp)
    12c2:	c426                	sw	s1,8(sp)
    12c4:	093000ef          	jal	ra,1b56 <GPIO_Init>
    12c8:	0141                	addi	sp,sp,16
    12ca:	a70ff06f          	j	53a <__riscv_restore_0>

000012ce <mStopIfError>:
    12ce:	cd01                	beqz	a0,12e6 <mStopIfError+0x18>
    12d0:	a46ff2ef          	jal	t0,516 <__riscv_save_0>
    12d4:	85aa                	mv	a1,a0
    12d6:	0000d537          	lui	a0,0xd
    12da:	ab050513          	addi	a0,a0,-1360 # cab0 <_read+0x17a>
    12de:	2510a0ef          	jal	ra,bd2e <iprintf>
    12e2:	a58ff06f          	j	53a <__riscv_restore_0>
    12e6:	8082                	ret

000012e8 <eMBRegInputCB>:
    12e8:	c589                	beqz	a1,12f2 <eMBRegInputCB+0xa>
    12ea:	95b2                	add	a1,a1,a2
    12ec:	47ad                	li	a5,11
    12ee:	00b7dc63          	bge	a5,a1,1306 <eMBRegInputCB+0x1e>
    12f2:	4505                	li	a0,1
    12f4:	8082                	ret
    12f6:	167d                	addi	a2,a2,-1
    12f8:	00050023          	sb	zero,0(a0)
    12fc:	0642                	slli	a2,a2,0x10
    12fe:	0509                	addi	a0,a0,2
    1300:	fe050fa3          	sb	zero,-1(a0)
    1304:	8241                	srli	a2,a2,0x10
    1306:	fa65                	bnez	a2,12f6 <eMBRegInputCB+0xe>
    1308:	4501                	li	a0,0
    130a:	8082                	ret

0000130c <eMBRegHoldingCB>:
    130c:	87aa                	mv	a5,a0
    130e:	c9b5                	beqz	a1,1382 <eMBRegHoldingCB+0x76>
    1310:	00c58733          	add	a4,a1,a2
    1314:	482d                	li	a6,11
    1316:	4505                	li	a0,1
    1318:	06e84663          	blt	a6,a4,1384 <eMBRegHoldingCB+0x78>
    131c:	ce85                	beqz	a3,1354 <eMBRegHoldingCB+0x48>
    131e:	4705                	li	a4,1
    1320:	4501                	li	a0,0
    1322:	06e69163          	bne	a3,a4,1384 <eMBRegHoldingCB+0x78>
    1326:	20002737          	lui	a4,0x20002
    132a:	0586                	slli	a1,a1,0x1
    132c:	c2870713          	addi	a4,a4,-984 # 20001c28 <usRegHoldingBuf>
    1330:	95ba                	add	a1,a1,a4
    1332:	0589                	addi	a1,a1,2
    1334:	ca05                	beqz	a2,1364 <eMBRegHoldingCB+0x58>
    1336:	3398                	lbu	a4,1(a5)
    1338:	2394                	lbu	a3,0(a5)
    133a:	167d                	addi	a2,a2,-1
    133c:	0722                	slli	a4,a4,0x8
    133e:	8f55                	or	a4,a4,a3
    1340:	00871693          	slli	a3,a4,0x8
    1344:	8321                	srli	a4,a4,0x8
    1346:	8f55                	or	a4,a4,a3
    1348:	0642                	slli	a2,a2,0x10
    134a:	0789                	addi	a5,a5,2
    134c:	fee59e23          	sh	a4,-4(a1)
    1350:	8241                	srli	a2,a2,0x10
    1352:	b7c5                	j	1332 <eMBRegHoldingCB+0x26>
    1354:	20002737          	lui	a4,0x20002
    1358:	0586                	slli	a1,a1,0x1
    135a:	c2870713          	addi	a4,a4,-984 # 20001c28 <usRegHoldingBuf>
    135e:	95ba                	add	a1,a1,a4
    1360:	0589                	addi	a1,a1,2
    1362:	e219                	bnez	a2,1368 <eMBRegHoldingCB+0x5c>
    1364:	4501                	li	a0,0
    1366:	8082                	ret
    1368:	ffc5d703          	lhu	a4,-4(a1)
    136c:	167d                	addi	a2,a2,-1
    136e:	0789                	addi	a5,a5,2
    1370:	00875693          	srli	a3,a4,0x8
    1374:	fed78f23          	sb	a3,-2(a5) # 1ffe <USART_Init+0x9c>
    1378:	0642                	slli	a2,a2,0x10
    137a:	fee78fa3          	sb	a4,-1(a5)
    137e:	8241                	srli	a2,a2,0x10
    1380:	b7c5                	j	1360 <eMBRegHoldingCB+0x54>
    1382:	4505                	li	a0,1
    1384:	8082                	ret

00001386 <eMBRegCoilsCB>:
    1386:	4505                	li	a0,1
    1388:	8082                	ret

0000138a <eMBRegDiscreteCB>:
    138a:	4505                	li	a0,1
    138c:	8082                	ret

0000138e <main>:
    138e:	988ff2ef          	jal	t0,516 <__riscv_save_0>
    1392:	4509                	li	a0,2
    1394:	083000ef          	jal	ra,1c16 <NVIC_PriorityGroupConfig>
    1398:	2a2d                	jal	14d2 <SystemCoreClockUpdate>
    139a:	5c0030ef          	jal	ra,495a <Delay_Init>
    139e:	6571                	lui	a0,0x1c
    13a0:	20050513          	addi	a0,a0,512 # 1c200 <_data_lma+0xf4e0>
    13a4:	648030ef          	jal	ra,49ec <USART_Printf_Init>
    13a8:	8181a583          	lw	a1,-2024(gp) # 20000118 <SystemCoreClock>
    13ac:	0000d537          	lui	a0,0xd
    13b0:	ac050513          	addi	a0,a0,-1344 # cac0 <_read+0x18a>
    13b4:	17b0a0ef          	jal	ra,bd2e <iprintf>
    13b8:	357d                	jal	1266 <GPIO_Toggle_INIT>
    13ba:	0000d437          	lui	s0,0xd
    13be:	af4ff0ef          	jal	ra,6b2 <vNetInit>
    13c2:	24f1                	jal	168e <vSYSqueueInit>
    13c4:	2c45                	jal	1674 <vSYSeventInit>
    13c6:	241d                	jal	15ec <vSYStaskInit>
    13c8:	1f9020ef          	jal	ra,3dc0 <vTaskStartScheduler>
    13cc:	ad040513          	addi	a0,s0,-1328 # cad0 <_read+0x19a>
    13d0:	29d0a0ef          	jal	ra,be6c <puts>
    13d4:	bfe5                	j	13cc <main+0x3e>

000013d6 <SystemInit>:
    13d6:	400217b7          	lui	a5,0x40021
    13da:	4398                	lw	a4,0(a5)
    13dc:	f8ff06b7          	lui	a3,0xf8ff0
    13e0:	1141                	addi	sp,sp,-16
    13e2:	00176713          	ori	a4,a4,1
    13e6:	c398                	sw	a4,0(a5)
    13e8:	43d8                	lw	a4,4(a5)
    13ea:	00020637          	lui	a2,0x20
    13ee:	8f75                	and	a4,a4,a3
    13f0:	c3d8                	sw	a4,4(a5)
    13f2:	4398                	lw	a4,0(a5)
    13f4:	fef706b7          	lui	a3,0xfef70
    13f8:	16fd                	addi	a3,a3,-1
    13fa:	8f75                	and	a4,a4,a3
    13fc:	c398                	sw	a4,0(a5)
    13fe:	4398                	lw	a4,0(a5)
    1400:	fffc06b7          	lui	a3,0xfffc0
    1404:	16fd                	addi	a3,a3,-1
    1406:	8f75                	and	a4,a4,a3
    1408:	c398                	sw	a4,0(a5)
    140a:	43d8                	lw	a4,4(a5)
    140c:	ff8106b7          	lui	a3,0xff810
    1410:	16fd                	addi	a3,a3,-1
    1412:	8f75                	and	a4,a4,a3
    1414:	c3d8                	sw	a4,4(a5)
    1416:	4398                	lw	a4,0(a5)
    1418:	ec0006b7          	lui	a3,0xec000
    141c:	16fd                	addi	a3,a3,-1
    141e:	8f75                	and	a4,a4,a3
    1420:	c398                	sw	a4,0(a5)
    1422:	00ff0737          	lui	a4,0xff0
    1426:	c798                	sw	a4,8(a5)
    1428:	0207a623          	sw	zero,44(a5) # 4002102c <__freertos_irq_stack_top+0x2001102c>
    142c:	c402                	sw	zero,8(sp)
    142e:	c602                	sw	zero,12(sp)
    1430:	4398                	lw	a4,0(a5)
    1432:	66c1                	lui	a3,0x10
    1434:	8f55                	or	a4,a4,a3
    1436:	c398                	sw	a4,0(a5)
    1438:	400216b7          	lui	a3,0x40021
    143c:	6705                	lui	a4,0x1
    143e:	429c                	lw	a5,0(a3)
    1440:	8ff1                	and	a5,a5,a2
    1442:	c63e                	sw	a5,12(sp)
    1444:	47a2                	lw	a5,8(sp)
    1446:	0785                	addi	a5,a5,1
    1448:	c43e                	sw	a5,8(sp)
    144a:	47b2                	lw	a5,12(sp)
    144c:	e781                	bnez	a5,1454 <SystemInit+0x7e>
    144e:	47a2                	lw	a5,8(sp)
    1450:	fee797e3          	bne	a5,a4,143e <SystemInit+0x68>
    1454:	400217b7          	lui	a5,0x40021
    1458:	439c                	lw	a5,0(a5)
    145a:	00e79713          	slli	a4,a5,0xe
    145e:	06075863          	bgez	a4,14ce <SystemInit+0xf8>
    1462:	4785                	li	a5,1
    1464:	c63e                	sw	a5,12(sp)
    1466:	4732                	lw	a4,12(sp)
    1468:	4785                	li	a5,1
    146a:	06f71063          	bne	a4,a5,14ca <SystemInit+0xf4>
    146e:	400217b7          	lui	a5,0x40021
    1472:	43d8                	lw	a4,4(a5)
    1474:	6689                	lui	a3,0x2
    1476:	c3d8                	sw	a4,4(a5)
    1478:	43d8                	lw	a4,4(a5)
    147a:	8f55                	or	a4,a4,a3
    147c:	c3d8                	sw	a4,4(a5)
    147e:	43d8                	lw	a4,4(a5)
    1480:	ffc106b7          	lui	a3,0xffc10
    1484:	16fd                	addi	a3,a3,-1
    1486:	40076713          	ori	a4,a4,1024
    148a:	c3d8                	sw	a4,4(a5)
    148c:	43d8                	lw	a4,4(a5)
    148e:	8f75                	and	a4,a4,a3
    1490:	c3d8                	sw	a4,4(a5)
    1492:	43d8                	lw	a4,4(a5)
    1494:	66c1                	lui	a3,0x10
    1496:	8f55                	or	a4,a4,a3
    1498:	c3d8                	sw	a4,4(a5)
    149a:	4398                	lw	a4,0(a5)
    149c:	010006b7          	lui	a3,0x1000
    14a0:	8f55                	or	a4,a4,a3
    14a2:	c398                	sw	a4,0(a5)
    14a4:	4398                	lw	a4,0(a5)
    14a6:	00671693          	slli	a3,a4,0x6
    14aa:	fe06dde3          	bgez	a3,14a4 <SystemInit+0xce>
    14ae:	43d8                	lw	a4,4(a5)
    14b0:	400216b7          	lui	a3,0x40021
    14b4:	9b71                	andi	a4,a4,-4
    14b6:	c3d8                	sw	a4,4(a5)
    14b8:	43d8                	lw	a4,4(a5)
    14ba:	00276713          	ori	a4,a4,2
    14be:	c3d8                	sw	a4,4(a5)
    14c0:	4721                	li	a4,8
    14c2:	42dc                	lw	a5,4(a3)
    14c4:	8bb1                	andi	a5,a5,12
    14c6:	fee79ee3          	bne	a5,a4,14c2 <SystemInit+0xec>
    14ca:	0141                	addi	sp,sp,16
    14cc:	8082                	ret
    14ce:	c602                	sw	zero,12(sp)
    14d0:	bf59                	j	1466 <SystemInit+0x90>

000014d2 <SystemCoreClockUpdate>:
    14d2:	40021637          	lui	a2,0x40021
    14d6:	425c                	lw	a5,4(a2)
    14d8:	4691                	li	a3,4
    14da:	8bb1                	andi	a5,a5,12
    14dc:	81818713          	addi	a4,gp,-2024 # 20000118 <SystemCoreClock>
    14e0:	00d78563          	beq	a5,a3,14ea <SystemCoreClockUpdate+0x18>
    14e4:	46a1                	li	a3,8
    14e6:	02d78863          	beq	a5,a3,1516 <SystemCoreClockUpdate+0x44>
    14ea:	007a17b7          	lui	a5,0x7a1
    14ee:	20078793          	addi	a5,a5,512 # 7a1200 <_data_lma+0x7944e0>
    14f2:	c31c                	sw	a5,0(a4)
    14f4:	400217b7          	lui	a5,0x40021
    14f8:	43dc                	lw	a5,4(a5)
    14fa:	8391                	srli	a5,a5,0x4
    14fc:	00f7f693          	andi	a3,a5,15
    1500:	200007b7          	lui	a5,0x20000
    1504:	08078793          	addi	a5,a5,128 # 20000080 <AHBPrescTable>
    1508:	97b6                	add	a5,a5,a3
    150a:	2394                	lbu	a3,0(a5)
    150c:	431c                	lw	a5,0(a4)
    150e:	00d7d7b3          	srl	a5,a5,a3
    1512:	c31c                	sw	a5,0(a4)
    1514:	8082                	ret
    1516:	4254                	lw	a3,4(a2)
    1518:	4250                	lw	a2,4(a2)
    151a:	67c1                	lui	a5,0x10
    151c:	82c9                	srli	a3,a3,0x12
    151e:	8abd                	andi	a3,a3,15
    1520:	8e7d                	and	a2,a2,a5
    1522:	00268793          	addi	a5,a3,2 # 40021002 <__freertos_irq_stack_top+0x20011002>
    1526:	ca85                	beqz	a3,1556 <SystemCoreClockUpdate+0x84>
    1528:	46bd                	li	a3,15
    152a:	02d78963          	beq	a5,a3,155c <SystemCoreClockUpdate+0x8a>
    152e:	46c1                	li	a3,16
    1530:	02d78963          	beq	a5,a3,1562 <SystemCoreClockUpdate+0x90>
    1534:	45c5                	li	a1,17
    1536:	4681                	li	a3,0
    1538:	00b79363          	bne	a5,a1,153e <SystemCoreClockUpdate+0x6c>
    153c:	47c1                	li	a5,16
    153e:	e60d                	bnez	a2,1568 <SystemCoreClockUpdate+0x96>
    1540:	40024637          	lui	a2,0x40024
    1544:	80062603          	lw	a2,-2048(a2) # 40023800 <__freertos_irq_stack_top+0x20013800>
    1548:	8a41                	andi	a2,a2,16
    154a:	c615                	beqz	a2,1576 <SystemCoreClockUpdate+0xa4>
    154c:	007a1637          	lui	a2,0x7a1
    1550:	20060613          	addi	a2,a2,512 # 7a1200 <_data_lma+0x7944e0>
    1554:	a02d                	j	157e <SystemCoreClockUpdate+0xac>
    1556:	4681                	li	a3,0
    1558:	47c9                	li	a5,18
    155a:	b7d5                	j	153e <SystemCoreClockUpdate+0x6c>
    155c:	4685                	li	a3,1
    155e:	47b5                	li	a5,13
    1560:	bff9                	j	153e <SystemCoreClockUpdate+0x6c>
    1562:	4681                	li	a3,0
    1564:	47bd                	li	a5,15
    1566:	bfe1                	j	153e <SystemCoreClockUpdate+0x6c>
    1568:	40021637          	lui	a2,0x40021
    156c:	4250                	lw	a2,4(a2)
    156e:	00e61593          	slli	a1,a2,0xe
    1572:	fc05dde3          	bgez	a1,154c <SystemCoreClockUpdate+0x7a>
    1576:	003d1637          	lui	a2,0x3d1
    157a:	90060613          	addi	a2,a2,-1792 # 3d0900 <_data_lma+0x3c3be0>
    157e:	02c787b3          	mul	a5,a5,a2
    1582:	c31c                	sw	a5,0(a4)
    1584:	daa5                	beqz	a3,14f4 <SystemCoreClockUpdate+0x22>
    1586:	431c                	lw	a5,0(a4)
    1588:	8385                	srli	a5,a5,0x1
    158a:	b7a5                	j	14f2 <SystemCoreClockUpdate+0x20>

0000158c <vDefaultTask>:
    158c:	f8bfe2ef          	jal	t0,516 <__riscv_save_0>
    1590:	06400513          	li	a0,100
    1594:	397020ef          	jal	ra,412a <vTaskDelay>
    1598:	bfe5                	j	1590 <vDefaultTask+0x4>

0000159a <WCHNET_task>:
    159a:	f7dfe2ef          	jal	t0,516 <__riscv_save_0>
    159e:	5be010ef          	jal	ra,2b5c <WCHNET_MainTask>
    15a2:	678040ef          	jal	ra,5c1a <WCHNET_QueryGlobalInt>
    15a6:	c119                	beqz	a0,15ac <WCHNET_task+0x12>
    15a8:	b1aff0ef          	jal	ra,8c2 <WCHNET_HandleGlobalInt>
    15ac:	4505                	li	a0,1
    15ae:	37d020ef          	jal	ra,412a <vTaskDelay>
    15b2:	b7f5                	j	159e <WCHNET_task+0x4>

000015b4 <vApplicationGetIdleTaskMemory>:
    15b4:	200037b7          	lui	a5,0x20003
    15b8:	75878793          	addi	a5,a5,1880 # 20003758 <xIdleTaskTCB>
    15bc:	c11c                	sw	a5,0(a0)
    15be:	200037b7          	lui	a5,0x20003
    15c2:	f5878793          	addi	a5,a5,-168 # 20002f58 <uxIdleTaskStack>
    15c6:	c19c                	sw	a5,0(a1)
    15c8:	10000793          	li	a5,256
    15cc:	c21c                	sw	a5,0(a2)
    15ce:	8082                	ret

000015d0 <vApplicationGetTimerTaskMemory>:
    15d0:	200047b7          	lui	a5,0x20004
    15d4:	81078793          	addi	a5,a5,-2032 # 20003810 <xTimerTaskTCB>
    15d8:	c11c                	sw	a5,0(a0)
    15da:	200037b7          	lui	a5,0x20003
    15de:	35878793          	addi	a5,a5,856 # 20003358 <uxTimerTaskStack>
    15e2:	c19c                	sw	a5,0(a1)
    15e4:	10000793          	li	a5,256
    15e8:	c21c                	sw	a5,0(a2)
    15ea:	8082                	ret

000015ec <vSYStaskInit>:
    15ec:	f2bfe2ef          	jal	t0,516 <__riscv_save_0>
    15f0:	0000d437          	lui	s0,0xd
    15f4:	20002837          	lui	a6,0x20002
    15f8:	200027b7          	lui	a5,0x20002
    15fc:	00001537          	lui	a0,0x1
    1600:	ae840593          	addi	a1,s0,-1304 # cae8 <_read+0x1b2>
    1604:	43c80813          	addi	a6,a6,1084 # 2000243c <MBTCPTaskControlBlock>
    1608:	c3c78793          	addi	a5,a5,-964 # 20001c3c <MBTCPTaskBuffer>
    160c:	4715                	li	a4,5
    160e:	4685                	li	a3,1
    1610:	20000613          	li	a2,512
    1614:	92c50513          	addi	a0,a0,-1748 # 92c <MBTCP_task>
    1618:	702020ef          	jal	ra,3d1a <xTaskCreateStatic>
    161c:	20003837          	lui	a6,0x20003
    1620:	200027b7          	lui	a5,0x20002
    1624:	00001537          	lui	a0,0x1
    1628:	ae840593          	addi	a1,s0,-1304
    162c:	c9080813          	addi	a6,a6,-880 # 20002c90 <WCHNETTaskControlBlock>
    1630:	49078793          	addi	a5,a5,1168 # 20002490 <WCHNETTaskBuffer>
    1634:	4715                	li	a4,5
    1636:	4685                	li	a3,1
    1638:	20000613          	li	a2,512
    163c:	59a50513          	addi	a0,a0,1434 # 159a <WCHNET_task>
    1640:	6da020ef          	jal	ra,3d1a <xTaskCreateStatic>
    1644:	20003837          	lui	a6,0x20003
    1648:	200037b7          	lui	a5,0x20003
    164c:	0000d5b7          	lui	a1,0xd
    1650:	00001537          	lui	a0,0x1
    1654:	ee480813          	addi	a6,a6,-284 # 20002ee4 <defaultTaskControlBlock>
    1658:	ce478793          	addi	a5,a5,-796 # 20002ce4 <defaultTaskBuffer>
    165c:	4715                	li	a4,5
    165e:	4685                	li	a3,1
    1660:	08000613          	li	a2,128
    1664:	af058593          	addi	a1,a1,-1296 # caf0 <_read+0x1ba>
    1668:	58c50513          	addi	a0,a0,1420 # 158c <vDefaultTask>
    166c:	6ae020ef          	jal	ra,3d1a <xTaskCreateStatic>
    1670:	ecbfe06f          	j	53a <__riscv_restore_0>

00001674 <vSYSeventInit>:
    1674:	ea3fe2ef          	jal	t0,516 <__riscv_save_0>
    1678:	36d5                	jal	125c <xGetOSEvent>
    167a:	842a                	mv	s0,a0
    167c:	20003537          	lui	a0,0x20003
    1680:	7ac50513          	addi	a0,a0,1964 # 200037ac <xOSStateEventGroup>
    1684:	43b010ef          	jal	ra,32be <xEventGroupCreateStatic>
    1688:	c008                	sw	a0,0(s0)
    168a:	eb1fe06f          	j	53a <__riscv_restore_0>

0000168e <vSYSqueueInit>:
    168e:	e89fe2ef          	jal	t0,516 <__riscv_save_0>
    1692:	08f010ef          	jal	ra,2f20 <xKeyboardQueue>
    1696:	200036b7          	lui	a3,0x20003
    169a:	20003637          	lui	a2,0x20003
    169e:	842a                	mv	s0,a0
    16a0:	4701                	li	a4,0
    16a2:	7c868693          	addi	a3,a3,1992 # 200037c8 <xStaticQueue>
    16a6:	f3860613          	addi	a2,a2,-200 # 20002f38 <ucQueueStorageArea>
    16aa:	4589                	li	a1,2
    16ac:	4541                	li	a0,16
    16ae:	08a020ef          	jal	ra,3738 <xQueueGenericCreateStatic>
    16b2:	c008                	sw	a0,0(s0)
    16b4:	e87fe06f          	j	53a <__riscv_restore_0>
    16b8:	a001                	j	16b8 <vSYSqueueInit+0x2a>
    16ba:	a001                	j	16ba <vSYSqueueInit+0x2c>

000016bc <Ecall_M_Mode_Handler>:
    16bc:	a001                	j	16bc <Ecall_M_Mode_Handler>

000016be <Ecall_U_Mode_Handler>:
    16be:	a001                	j	16be <Ecall_U_Mode_Handler>

000016c0 <Break_Point_Handler>:
    16c0:	a001                	j	16c0 <Break_Point_Handler>
    16c2:	a001                	j	16c2 <Break_Point_Handler+0x2>
    16c4:	a001                	j	16c4 <Break_Point_Handler+0x4>

000016c6 <WWDG_IRQHandler>:
    16c6:	a001                	j	16c6 <WWDG_IRQHandler>

000016c8 <PVD_IRQHandler>:
    16c8:	a001                	j	16c8 <PVD_IRQHandler>

000016ca <TAMPER_IRQHandler>:
    16ca:	a001                	j	16ca <TAMPER_IRQHandler>

000016cc <RTC_IRQHandler>:
    16cc:	a001                	j	16cc <RTC_IRQHandler>

000016ce <FLASH_IRQHandler>:
    16ce:	a001                	j	16ce <FLASH_IRQHandler>

000016d0 <RCC_IRQHandler>:
    16d0:	a001                	j	16d0 <RCC_IRQHandler>

000016d2 <EXTI0_IRQHandler>:
    16d2:	a001                	j	16d2 <EXTI0_IRQHandler>

000016d4 <EXTI1_IRQHandler>:
    16d4:	a001                	j	16d4 <EXTI1_IRQHandler>

000016d6 <EXTI2_IRQHandler>:
    16d6:	a001                	j	16d6 <EXTI2_IRQHandler>

000016d8 <EXTI3_IRQHandler>:
    16d8:	a001                	j	16d8 <EXTI3_IRQHandler>

000016da <EXTI4_IRQHandler>:
    16da:	a001                	j	16da <EXTI4_IRQHandler>
    16dc:	a001                	j	16dc <EXTI4_IRQHandler+0x2>
    16de:	a001                	j	16de <EXTI4_IRQHandler+0x4>

000016e0 <DMA1_Channel3_IRQHandler>:
    16e0:	a001                	j	16e0 <DMA1_Channel3_IRQHandler>

000016e2 <DMA1_Channel4_IRQHandler>:
    16e2:	a001                	j	16e2 <DMA1_Channel4_IRQHandler>

000016e4 <DMA1_Channel5_IRQHandler>:
    16e4:	a001                	j	16e4 <DMA1_Channel5_IRQHandler>

000016e6 <DMA1_Channel6_IRQHandler>:
    16e6:	a001                	j	16e6 <DMA1_Channel6_IRQHandler>

000016e8 <DMA1_Channel7_IRQHandler>:
    16e8:	a001                	j	16e8 <DMA1_Channel7_IRQHandler>
    16ea:	a001                	j	16ea <DMA1_Channel7_IRQHandler+0x2>

000016ec <USB_HP_CAN1_TX_IRQHandler>:
    16ec:	a001                	j	16ec <USB_HP_CAN1_TX_IRQHandler>

000016ee <USB_LP_CAN1_RX0_IRQHandler>:
    16ee:	a001                	j	16ee <USB_LP_CAN1_RX0_IRQHandler>

000016f0 <CAN1_RX1_IRQHandler>:
    16f0:	a001                	j	16f0 <CAN1_RX1_IRQHandler>

000016f2 <CAN1_SCE_IRQHandler>:
    16f2:	a001                	j	16f2 <CAN1_SCE_IRQHandler>
    16f4:	a001                	j	16f4 <CAN1_SCE_IRQHandler+0x2>

000016f6 <TIM1_BRK_IRQHandler>:
    16f6:	a001                	j	16f6 <TIM1_BRK_IRQHandler>

000016f8 <TIM1_UP_IRQHandler>:
    16f8:	a001                	j	16f8 <TIM1_UP_IRQHandler>

000016fa <TIM1_TRG_COM_IRQHandler>:
    16fa:	a001                	j	16fa <TIM1_TRG_COM_IRQHandler>

000016fc <TIM1_CC_IRQHandler>:
    16fc:	a001                	j	16fc <TIM1_CC_IRQHandler>
    16fe:	a001                	j	16fe <TIM1_CC_IRQHandler+0x2>

00001700 <TIM3_IRQHandler>:
    1700:	a001                	j	1700 <TIM3_IRQHandler>

00001702 <TIM4_IRQHandler>:
    1702:	a001                	j	1702 <TIM4_IRQHandler>

00001704 <I2C1_EV_IRQHandler>:
    1704:	a001                	j	1704 <I2C1_EV_IRQHandler>

00001706 <I2C1_ER_IRQHandler>:
    1706:	a001                	j	1706 <I2C1_ER_IRQHandler>

00001708 <I2C2_EV_IRQHandler>:
    1708:	a001                	j	1708 <I2C2_EV_IRQHandler>

0000170a <I2C2_ER_IRQHandler>:
    170a:	a001                	j	170a <I2C2_ER_IRQHandler>

0000170c <SPI1_IRQHandler>:
    170c:	a001                	j	170c <SPI1_IRQHandler>

0000170e <SPI2_IRQHandler>:
    170e:	a001                	j	170e <SPI2_IRQHandler>

00001710 <USART1_IRQHandler>:
    1710:	a001                	j	1710 <USART1_IRQHandler>

00001712 <USART2_IRQHandler>:
    1712:	a001                	j	1712 <USART2_IRQHandler>

00001714 <USART3_IRQHandler>:
    1714:	a001                	j	1714 <USART3_IRQHandler>

00001716 <EXTI15_10_IRQHandler>:
    1716:	a001                	j	1716 <EXTI15_10_IRQHandler>

00001718 <RTCAlarm_IRQHandler>:
    1718:	a001                	j	1718 <RTCAlarm_IRQHandler>

0000171a <USBWakeUp_IRQHandler>:
    171a:	a001                	j	171a <USBWakeUp_IRQHandler>

0000171c <TIM8_BRK_IRQHandler>:
    171c:	a001                	j	171c <TIM8_BRK_IRQHandler>

0000171e <TIM8_UP_IRQHandler>:
    171e:	a001                	j	171e <TIM8_UP_IRQHandler>

00001720 <TIM8_TRG_COM_IRQHandler>:
    1720:	a001                	j	1720 <TIM8_TRG_COM_IRQHandler>

00001722 <TIM8_CC_IRQHandler>:
    1722:	a001                	j	1722 <TIM8_CC_IRQHandler>

00001724 <RNG_IRQHandler>:
    1724:	a001                	j	1724 <RNG_IRQHandler>

00001726 <FSMC_IRQHandler>:
    1726:	a001                	j	1726 <FSMC_IRQHandler>

00001728 <SDIO_IRQHandler>:
    1728:	a001                	j	1728 <SDIO_IRQHandler>

0000172a <TIM5_IRQHandler>:
    172a:	a001                	j	172a <TIM5_IRQHandler>

0000172c <SPI3_IRQHandler>:
    172c:	a001                	j	172c <SPI3_IRQHandler>

0000172e <UART4_IRQHandler>:
    172e:	a001                	j	172e <UART4_IRQHandler>

00001730 <UART5_IRQHandler>:
    1730:	a001                	j	1730 <UART5_IRQHandler>

00001732 <TIM6_IRQHandler>:
    1732:	a001                	j	1732 <TIM6_IRQHandler>

00001734 <TIM7_IRQHandler>:
    1734:	a001                	j	1734 <TIM7_IRQHandler>

00001736 <DMA2_Channel1_IRQHandler>:
    1736:	a001                	j	1736 <DMA2_Channel1_IRQHandler>

00001738 <DMA2_Channel2_IRQHandler>:
    1738:	a001                	j	1738 <DMA2_Channel2_IRQHandler>

0000173a <DMA2_Channel3_IRQHandler>:
    173a:	a001                	j	173a <DMA2_Channel3_IRQHandler>

0000173c <DMA2_Channel4_IRQHandler>:
    173c:	a001                	j	173c <DMA2_Channel4_IRQHandler>

0000173e <DMA2_Channel5_IRQHandler>:
    173e:	a001                	j	173e <DMA2_Channel5_IRQHandler>
    1740:	a001                	j	1740 <DMA2_Channel5_IRQHandler+0x2>

00001742 <ETH_WKUP_IRQHandler>:
    1742:	a001                	j	1742 <ETH_WKUP_IRQHandler>

00001744 <CAN2_TX_IRQHandler>:
    1744:	a001                	j	1744 <CAN2_TX_IRQHandler>

00001746 <CAN2_RX0_IRQHandler>:
    1746:	a001                	j	1746 <CAN2_RX0_IRQHandler>

00001748 <CAN2_RX1_IRQHandler>:
    1748:	a001                	j	1748 <CAN2_RX1_IRQHandler>

0000174a <CAN2_SCE_IRQHandler>:
    174a:	a001                	j	174a <CAN2_SCE_IRQHandler>

0000174c <OTG_FS_IRQHandler>:
    174c:	a001                	j	174c <OTG_FS_IRQHandler>

0000174e <USBHSWakeup_IRQHandler>:
    174e:	a001                	j	174e <USBHSWakeup_IRQHandler>

00001750 <USBHS_IRQHandler>:
    1750:	a001                	j	1750 <USBHS_IRQHandler>

00001752 <DVP_IRQHandler>:
    1752:	a001                	j	1752 <DVP_IRQHandler>

00001754 <UART6_IRQHandler>:
    1754:	a001                	j	1754 <UART6_IRQHandler>

00001756 <UART7_IRQHandler>:
    1756:	a001                	j	1756 <UART7_IRQHandler>

00001758 <UART8_IRQHandler>:
    1758:	a001                	j	1758 <UART8_IRQHandler>

0000175a <TIM9_BRK_IRQHandler>:
    175a:	a001                	j	175a <TIM9_BRK_IRQHandler>

0000175c <TIM9_UP_IRQHandler>:
    175c:	a001                	j	175c <TIM9_UP_IRQHandler>

0000175e <TIM9_TRG_COM_IRQHandler>:
    175e:	a001                	j	175e <TIM9_TRG_COM_IRQHandler>

00001760 <TIM9_CC_IRQHandler>:
    1760:	a001                	j	1760 <TIM9_CC_IRQHandler>

00001762 <TIM10_BRK_IRQHandler>:
    1762:	a001                	j	1762 <TIM10_BRK_IRQHandler>

00001764 <TIM10_UP_IRQHandler>:
    1764:	a001                	j	1764 <TIM10_UP_IRQHandler>

00001766 <TIM10_TRG_COM_IRQHandler>:
    1766:	a001                	j	1766 <TIM10_TRG_COM_IRQHandler>

00001768 <TIM10_CC_IRQHandler>:
    1768:	a001                	j	1768 <TIM10_CC_IRQHandler>

0000176a <DMA2_Channel6_IRQHandler>:
    176a:	a001                	j	176a <DMA2_Channel6_IRQHandler>

0000176c <DMA2_Channel7_IRQHandler>:
    176c:	a001                	j	176c <DMA2_Channel7_IRQHandler>

0000176e <DMA2_Channel8_IRQHandler>:
    176e:	a001                	j	176e <DMA2_Channel8_IRQHandler>

00001770 <DMA2_Channel9_IRQHandler>:
    1770:	a001                	j	1770 <DMA2_Channel9_IRQHandler>

00001772 <DMA2_Channel10_IRQHandler>:
    1772:	a001                	j	1772 <DMA2_Channel10_IRQHandler>

00001774 <DMA2_Channel11_IRQHandler>:
    1774:	a001                	j	1774 <DMA2_Channel11_IRQHandler>

00001776 <handle_reset>:
    1776:	1ffff197          	auipc	gp,0x1ffff
    177a:	18a18193          	addi	gp,gp,394 # 20000900 <__global_pointer$>
    177e:	2000f117          	auipc	sp,0x2000f
    1782:	88210113          	addi	sp,sp,-1918 # 20010000 <__freertos_irq_stack_top>
    1786:	0000b517          	auipc	a0,0xb
    178a:	59a50513          	addi	a0,a0,1434 # cd20 <_data_lma>
    178e:	1ffff597          	auipc	a1,0x1ffff
    1792:	87258593          	addi	a1,a1,-1934 # 20000000 <_data_vma>
    1796:	88018613          	addi	a2,gp,-1920 # 20000180 <_edata>
    179a:	00c5fa63          	bgeu	a1,a2,17ae <handle_reset+0x38>
    179e:	00052283          	lw	t0,0(a0)
    17a2:	0055a023          	sw	t0,0(a1)
    17a6:	0511                	addi	a0,a0,4
    17a8:	0591                	addi	a1,a1,4
    17aa:	fec5eae3          	bltu	a1,a2,179e <handle_reset+0x28>
    17ae:	1ffff517          	auipc	a0,0x1ffff
    17b2:	9d250513          	addi	a0,a0,-1582 # 20000180 <_edata>
    17b6:	20009597          	auipc	a1,0x20009
    17ba:	c4258593          	addi	a1,a1,-958 # 2000a3f8 <_ebss>
    17be:	00b57763          	bgeu	a0,a1,17cc <handle_reset+0x56>
    17c2:	00052023          	sw	zero,0(a0)
    17c6:	0511                	addi	a0,a0,4
    17c8:	feb56de3          	bltu	a0,a1,17c2 <handle_reset+0x4c>
    17cc:	42fd                	li	t0,31
    17ce:	bc029073          	csrw	0xbc0,t0
    17d2:	42fd                	li	t0,31
    17d4:	80429073          	csrw	0x804,t0
    17d8:	000082b7          	lui	t0,0x8
    17dc:	80028293          	addi	t0,t0,-2048 # 7800 <mem_free+0x5a>
    17e0:	3002a073          	csrs	mstatus,t0
    17e4:	fffff297          	auipc	t0,0xfffff
    17e8:	85428293          	addi	t0,t0,-1964 # 38 <_einit>
    17ec:	0032e293          	ori	t0,t0,3
    17f0:	30529073          	csrw	mtvec,t0
    17f4:	be3ff0ef          	jal	ra,13d6 <SystemInit>
    17f8:	00000297          	auipc	t0,0x0
    17fc:	b9628293          	addi	t0,t0,-1130 # 138e <main>
    1800:	34129073          	csrw	mepc,t0
    1804:	30200073          	mret

00001808 <ADC_GetITStatus>:
    1808:	4158                	lw	a4,4(a0)
    180a:	4114                	lw	a3,0(a0)
    180c:	0085d793          	srli	a5,a1,0x8
    1810:	8ff5                	and	a5,a5,a3
    1812:	c799                	beqz	a5,1820 <ADC_GetITStatus+0x18>
    1814:	0ff5f513          	andi	a0,a1,255
    1818:	8d79                	and	a0,a0,a4
    181a:	00a03533          	snez	a0,a0
    181e:	8082                	ret
    1820:	4501                	li	a0,0
    1822:	8082                	ret

00001824 <ADC_ClearITPendingBit>:
    1824:	81a1                	srli	a1,a1,0x8
    1826:	fff5c593          	not	a1,a1
    182a:	c10c                	sw	a1,0(a0)
    182c:	8082                	ret

0000182e <DBGMCU_GetCHIPID>:
    182e:	1ffff7b7          	lui	a5,0x1ffff
    1832:	7047a503          	lw	a0,1796(a5) # 1ffff704 <_data_lma+0x1fff29e4>
    1836:	8082                	ret

00001838 <DMA_GetFlagStatus>:
    1838:	00351793          	slli	a5,a0,0x3
    183c:	0007da63          	bgez	a5,1850 <DMA_GetFlagStatus+0x18>
    1840:	400207b7          	lui	a5,0x40020
    1844:	4007a783          	lw	a5,1024(a5) # 40020400 <__freertos_irq_stack_top+0x20010400>
    1848:	8d7d                	and	a0,a0,a5
    184a:	00a03533          	snez	a0,a0
    184e:	8082                	ret
    1850:	00251793          	slli	a5,a0,0x2
    1854:	0007d763          	bgez	a5,1862 <DMA_GetFlagStatus+0x2a>
    1858:	400207b7          	lui	a5,0x40020
    185c:	4d07a783          	lw	a5,1232(a5) # 400204d0 <__freertos_irq_stack_top+0x200104d0>
    1860:	b7e5                	j	1848 <DMA_GetFlagStatus+0x10>
    1862:	400207b7          	lui	a5,0x40020
    1866:	439c                	lw	a5,0(a5)
    1868:	b7c5                	j	1848 <DMA_GetFlagStatus+0x10>

0000186a <DMA_ClearFlag>:
    186a:	00351793          	slli	a5,a0,0x3
    186e:	0007d763          	bgez	a5,187c <DMA_ClearFlag+0x12>
    1872:	400207b7          	lui	a5,0x40020
    1876:	40a7a223          	sw	a0,1028(a5) # 40020404 <__freertos_irq_stack_top+0x20010404>
    187a:	8082                	ret
    187c:	00251793          	slli	a5,a0,0x2
    1880:	0007d763          	bgez	a5,188e <DMA_ClearFlag+0x24>
    1884:	400207b7          	lui	a5,0x40020
    1888:	4ca7aa23          	sw	a0,1236(a5) # 400204d4 <__freertos_irq_stack_top+0x200104d4>
    188c:	8082                	ret
    188e:	400207b7          	lui	a5,0x40020
    1892:	c3c8                	sw	a0,4(a5)
    1894:	8082                	ret

00001896 <DMA_GetITStatus>:
    1896:	c81fe2ef          	jal	t0,516 <__riscv_save_0>
    189a:	3f79                	jal	1838 <DMA_GetFlagStatus>
    189c:	c9ffe06f          	j	53a <__riscv_restore_0>

000018a0 <DMA_ClearITPendingBit>:
    18a0:	c77fe2ef          	jal	t0,516 <__riscv_save_0>
    18a4:	37d9                	jal	186a <DMA_ClearFlag>
    18a6:	c95fe06f          	j	53a <__riscv_restore_0>

000018aa <ETH_DeInit>:
    18aa:	c6dfe2ef          	jal	t0,516 <__riscv_save_0>
    18ae:	4585                	li	a1,1
    18b0:	6511                	lui	a0,0x4
    18b2:	2b4d                	jal	1e64 <RCC_AHBPeriphResetCmd>
    18b4:	4581                	li	a1,0
    18b6:	6511                	lui	a0,0x4
    18b8:	2375                	jal	1e64 <RCC_AHBPeriphResetCmd>
    18ba:	c81fe06f          	j	53a <__riscv_restore_0>

000018be <ETH_StructInit>:
    18be:	04000793          	li	a5,64
    18c2:	c13c                	sw	a5,64(a0)
    18c4:	02000793          	li	a5,32
    18c8:	c17c                	sw	a5,68(a0)
    18ca:	08000793          	li	a5,128
    18ce:	d17c                	sw	a5,100(a0)
    18d0:	00052023          	sw	zero,0(a0) # 4000 <xTaskResumeAll+0x1e>
    18d4:	040007b7          	lui	a5,0x4000
    18d8:	00052223          	sw	zero,4(a0)
    18dc:	00052423          	sw	zero,8(a0)
    18e0:	00052623          	sw	zero,12(a0)
    18e4:	00052823          	sw	zero,16(a0)
    18e8:	00052a23          	sw	zero,20(a0)
    18ec:	00052c23          	sw	zero,24(a0)
    18f0:	00052e23          	sw	zero,28(a0)
    18f4:	02052023          	sw	zero,32(a0)
    18f8:	02052223          	sw	zero,36(a0)
    18fc:	02052423          	sw	zero,40(a0)
    1900:	02052623          	sw	zero,44(a0)
    1904:	02052823          	sw	zero,48(a0)
    1908:	02052a23          	sw	zero,52(a0)
    190c:	02052c23          	sw	zero,56(a0)
    1910:	02052e23          	sw	zero,60(a0)
    1914:	04052423          	sw	zero,72(a0)
    1918:	04052623          	sw	zero,76(a0)
    191c:	04052823          	sw	zero,80(a0)
    1920:	04052a23          	sw	zero,84(a0)
    1924:	04052c23          	sw	zero,88(a0)
    1928:	04052e23          	sw	zero,92(a0)
    192c:	06052023          	sw	zero,96(a0)
    1930:	06052423          	sw	zero,104(a0)
    1934:	06052623          	sw	zero,108(a0)
    1938:	06052823          	sw	zero,112(a0)
    193c:	06052a23          	sw	zero,116(a0)
    1940:	06052c23          	sw	zero,120(a0)
    1944:	06052e23          	sw	zero,124(a0)
    1948:	08f52023          	sw	a5,128(a0)
    194c:	020007b7          	lui	a5,0x2000
    1950:	08f52223          	sw	a5,132(a0)
    1954:	0af52223          	sw	a5,164(a0)
    1958:	000207b7          	lui	a5,0x20
    195c:	00200737          	lui	a4,0x200
    1960:	0af52623          	sw	a5,172(a0)
    1964:	10000793          	li	a5,256
    1968:	08052423          	sw	zero,136(a0)
    196c:	08e52623          	sw	a4,140(a0)
    1970:	08052823          	sw	zero,144(a0)
    1974:	08052a23          	sw	zero,148(a0)
    1978:	08052c23          	sw	zero,152(a0)
    197c:	08052e23          	sw	zero,156(a0)
    1980:	0a052023          	sw	zero,160(a0)
    1984:	0a052423          	sw	zero,168(a0)
    1988:	0af52823          	sw	a5,176(a0)
    198c:	0a052a23          	sw	zero,180(a0)
    1990:	0a052c23          	sw	zero,184(a0)
    1994:	8082                	ret

00001996 <ETH_ReadPHYRegister>:
    1996:	1141                	addi	sp,sp,-16
    1998:	c602                	sw	zero,12(sp)
    199a:	400286b7          	lui	a3,0x40028
    199e:	4a9c                	lw	a5,16(a3)
    19a0:	6741                	lui	a4,0x10
    19a2:	052e                	slli	a0,a0,0xb
    19a4:	177d                	addi	a4,a4,-1
    19a6:	8bf1                	andi	a5,a5,28
    19a8:	8d79                	and	a0,a0,a4
    19aa:	059a                	slli	a1,a1,0x6
    19ac:	8d5d                	or	a0,a0,a5
    19ae:	7c05f593          	andi	a1,a1,1984
    19b2:	8dc9                	or	a1,a1,a0
    19b4:	0015e593          	ori	a1,a1,1
    19b8:	005007b7          	lui	a5,0x500
    19bc:	ca8c                	sw	a1,16(a3)
    19be:	17f9                	addi	a5,a5,-2
    19c0:	4732                	lw	a4,12(sp)
    19c2:	0705                	addi	a4,a4,1
    19c4:	c63a                	sw	a4,12(sp)
    19c6:	4a98                	lw	a4,16(a3)
    19c8:	8b05                	andi	a4,a4,1
    19ca:	c701                	beqz	a4,19d2 <ETH_ReadPHYRegister+0x3c>
    19cc:	4732                	lw	a4,12(sp)
    19ce:	fee7f9e3          	bgeu	a5,a4,19c0 <ETH_ReadPHYRegister+0x2a>
    19d2:	4732                	lw	a4,12(sp)
    19d4:	005007b7          	lui	a5,0x500
    19d8:	17fd                	addi	a5,a5,-1
    19da:	4501                	li	a0,0
    19dc:	00f70763          	beq	a4,a5,19ea <ETH_ReadPHYRegister+0x54>
    19e0:	400287b7          	lui	a5,0x40028
    19e4:	4bc8                	lw	a0,20(a5)
    19e6:	0542                	slli	a0,a0,0x10
    19e8:	8141                	srli	a0,a0,0x10
    19ea:	0141                	addi	sp,sp,16
    19ec:	8082                	ret

000019ee <ETH_WritePHYRegister>:
    19ee:	1141                	addi	sp,sp,-16
    19f0:	400287b7          	lui	a5,0x40028
    19f4:	c602                	sw	zero,12(sp)
    19f6:	4b98                	lw	a4,16(a5)
    19f8:	66c1                	lui	a3,0x10
    19fa:	16fd                	addi	a3,a3,-1
    19fc:	052e                	slli	a0,a0,0xb
    19fe:	8d75                	and	a0,a0,a3
    1a00:	8b71                	andi	a4,a4,28
    1a02:	059a                	slli	a1,a1,0x6
    1a04:	8d59                	or	a0,a0,a4
    1a06:	7c05f593          	andi	a1,a1,1984
    1a0a:	8dc9                	or	a1,a1,a0
    1a0c:	cbd0                	sw	a2,20(a5)
    1a0e:	0035e593          	ori	a1,a1,3
    1a12:	cb8c                	sw	a1,16(a5)
    1a14:	000507b7          	lui	a5,0x50
    1a18:	400286b7          	lui	a3,0x40028
    1a1c:	17f9                	addi	a5,a5,-2
    1a1e:	4732                	lw	a4,12(sp)
    1a20:	0705                	addi	a4,a4,1
    1a22:	c63a                	sw	a4,12(sp)
    1a24:	4a98                	lw	a4,16(a3)
    1a26:	8b05                	andi	a4,a4,1
    1a28:	c701                	beqz	a4,1a30 <ETH_WritePHYRegister+0x42>
    1a2a:	4732                	lw	a4,12(sp)
    1a2c:	fee7f9e3          	bgeu	a5,a4,1a1e <ETH_WritePHYRegister+0x30>
    1a30:	4532                	lw	a0,12(sp)
    1a32:	000507b7          	lui	a5,0x50
    1a36:	17fd                	addi	a5,a5,-1
    1a38:	00f53533          	sltu	a0,a0,a5
    1a3c:	0141                	addi	sp,sp,16
    1a3e:	8082                	ret

00001a40 <ETH_DMATxDescChainInit>:
    1a40:	200007b7          	lui	a5,0x20000
    1a44:	1ca7a823          	sw	a0,464(a5) # 200001d0 <DMATxDescToSet>
    1a48:	872a                	mv	a4,a0
    1a4a:	4781                	li	a5,0
    1a4c:	401008b7          	lui	a7,0x40100
    1a50:	60000313          	li	t1,1536
    1a54:	fff60e13          	addi	t3,a2,-1
    1a58:	00c79663          	bne	a5,a2,1a64 <ETH_DMATxDescChainInit+0x24>
    1a5c:	400297b7          	lui	a5,0x40029
    1a60:	cb88                	sw	a0,16(a5)
    1a62:	8082                	ret
    1a64:	026786b3          	mul	a3,a5,t1
    1a68:	01172023          	sw	a7,0(a4) # 10000 <_data_lma+0x32e0>
    1a6c:	882a                	mv	a6,a0
    1a6e:	96ae                	add	a3,a3,a1
    1a70:	c714                	sw	a3,8(a4)
    1a72:	01070693          	addi	a3,a4,16
    1a76:	01c7f363          	bgeu	a5,t3,1a7c <ETH_DMATxDescChainInit+0x3c>
    1a7a:	8836                	mv	a6,a3
    1a7c:	01072623          	sw	a6,12(a4)
    1a80:	0785                	addi	a5,a5,1
    1a82:	8736                	mv	a4,a3
    1a84:	bfd1                	j	1a58 <ETH_DMATxDescChainInit+0x18>

00001a86 <ETH_DMARxDescChainInit>:
    1a86:	200007b7          	lui	a5,0x20000
    1a8a:	6691                	lui	a3,0x4
    1a8c:	1ca7a623          	sw	a0,460(a5) # 200001cc <DMARxDescToGet>
    1a90:	4701                	li	a4,0
    1a92:	87aa                	mv	a5,a0
    1a94:	80000337          	lui	t1,0x80000
    1a98:	60068693          	addi	a3,a3,1536 # 4600 <xTaskGetSchedulerState+0x2>
    1a9c:	60000e13          	li	t3,1536
    1aa0:	fff60e93          	addi	t4,a2,-1
    1aa4:	00c71663          	bne	a4,a2,1ab0 <ETH_DMARxDescChainInit+0x2a>
    1aa8:	400297b7          	lui	a5,0x40029
    1aac:	c7c8                	sw	a0,12(a5)
    1aae:	8082                	ret
    1ab0:	03c70833          	mul	a6,a4,t3
    1ab4:	0067a023          	sw	t1,0(a5) # 40029000 <__freertos_irq_stack_top+0x20019000>
    1ab8:	c3d4                	sw	a3,4(a5)
    1aba:	88aa                	mv	a7,a0
    1abc:	982e                	add	a6,a6,a1
    1abe:	0107a423          	sw	a6,8(a5)
    1ac2:	01078813          	addi	a6,a5,16
    1ac6:	01d77363          	bgeu	a4,t4,1acc <ETH_DMARxDescChainInit+0x46>
    1aca:	88c2                	mv	a7,a6
    1acc:	0117a623          	sw	a7,12(a5)
    1ad0:	0705                	addi	a4,a4,1
    1ad2:	87c2                	mv	a5,a6
    1ad4:	bfc1                	j	1aa4 <ETH_DMARxDescChainInit+0x1e>

00001ad6 <ETH_SoftwareReset>:
    1ad6:	40029737          	lui	a4,0x40029
    1ada:	431c                	lw	a5,0(a4)
    1adc:	0017e793          	ori	a5,a5,1
    1ae0:	c31c                	sw	a5,0(a4)
    1ae2:	8082                	ret

00001ae4 <ETH_DMAClearITPendingBit>:
    1ae4:	400297b7          	lui	a5,0x40029
    1ae8:	cbc8                	sw	a0,20(a5)
    1aea:	8082                	ret

00001aec <ETH_FlushTransmitFIFO>:
    1aec:	40029737          	lui	a4,0x40029
    1af0:	4f1c                	lw	a5,24(a4)
    1af2:	001006b7          	lui	a3,0x100
    1af6:	8fd5                	or	a5,a5,a3
    1af8:	cf1c                	sw	a5,24(a4)
    1afa:	8082                	ret

00001afc <ETH_Start>:
    1afc:	a1bfe2ef          	jal	t0,516 <__riscv_save_0>
    1b00:	40028437          	lui	s0,0x40028
    1b04:	401c                	lw	a5,0(s0)
    1b06:	0087e793          	ori	a5,a5,8
    1b0a:	c01c                	sw	a5,0(s0)
    1b0c:	37c5                	jal	1aec <ETH_FlushTransmitFIFO>
    1b0e:	401c                	lw	a5,0(s0)
    1b10:	6689                	lui	a3,0x2
    1b12:	0047e793          	ori	a5,a5,4
    1b16:	c01c                	sw	a5,0(s0)
    1b18:	400297b7          	lui	a5,0x40029
    1b1c:	4f98                	lw	a4,24(a5)
    1b1e:	8f55                	or	a4,a4,a3
    1b20:	cf98                	sw	a4,24(a5)
    1b22:	4f98                	lw	a4,24(a5)
    1b24:	00276713          	ori	a4,a4,2
    1b28:	cf98                	sw	a4,24(a5)
    1b2a:	a11fe06f          	j	53a <__riscv_restore_0>

00001b2e <ETH_DMAITConfig>:
    1b2e:	c599                	beqz	a1,1b3c <ETH_DMAITConfig+0xe>
    1b30:	40029737          	lui	a4,0x40029
    1b34:	4f5c                	lw	a5,28(a4)
    1b36:	8d5d                	or	a0,a0,a5
    1b38:	cf48                	sw	a0,28(a4)
    1b3a:	8082                	ret
    1b3c:	400297b7          	lui	a5,0x40029
    1b40:	4fd8                	lw	a4,28(a5)
    1b42:	fff54513          	not	a0,a0
    1b46:	8d79                	and	a0,a0,a4
    1b48:	cfc8                	sw	a0,28(a5)
    1b4a:	8082                	ret

00001b4c <EXTI_ClearITPendingBit>:
    1b4c:	400107b7          	lui	a5,0x40010
    1b50:	40a7aa23          	sw	a0,1044(a5) # 40010414 <__freertos_irq_stack_top+0x20000414>
    1b54:	8082                	ret

00001b56 <GPIO_Init>:
    1b56:	459c                	lw	a5,8(a1)
    1b58:	0107f713          	andi	a4,a5,16
    1b5c:	00f7f813          	andi	a6,a5,15
    1b60:	c701                	beqz	a4,1b68 <GPIO_Init+0x12>
    1b62:	41d8                	lw	a4,4(a1)
    1b64:	00e86833          	or	a6,a6,a4
    1b68:	218e                	lhu	a1,0(a1)
    1b6a:	0ff5f713          	andi	a4,a1,255
    1b6e:	c339                	beqz	a4,1bb4 <GPIO_Init+0x5e>
    1b70:	4118                	lw	a4,0(a0)
    1b72:	4681                	li	a3,0
    1b74:	4e85                	li	t4,1
    1b76:	4f3d                	li	t5,15
    1b78:	02800f93          	li	t6,40
    1b7c:	04800293          	li	t0,72
    1b80:	4e21                	li	t3,8
    1b82:	00de9633          	sll	a2,t4,a3
    1b86:	00c5f8b3          	and	a7,a1,a2
    1b8a:	03161163          	bne	a2,a7,1bac <GPIO_Init+0x56>
    1b8e:	00269893          	slli	a7,a3,0x2
    1b92:	011f1333          	sll	t1,t5,a7
    1b96:	fff34313          	not	t1,t1
    1b9a:	00e37733          	and	a4,t1,a4
    1b9e:	011818b3          	sll	a7,a6,a7
    1ba2:	00e8e733          	or	a4,a7,a4
    1ba6:	05f79f63          	bne	a5,t6,1c04 <GPIO_Init+0xae>
    1baa:	c950                	sw	a2,20(a0)
    1bac:	0685                	addi	a3,a3,1
    1bae:	fdc69ae3          	bne	a3,t3,1b82 <GPIO_Init+0x2c>
    1bb2:	c118                	sw	a4,0(a0)
    1bb4:	0ff00713          	li	a4,255
    1bb8:	04b77563          	bgeu	a4,a1,1c02 <GPIO_Init+0xac>
    1bbc:	4154                	lw	a3,4(a0)
    1bbe:	4621                	li	a2,8
    1bc0:	4e85                	li	t4,1
    1bc2:	4f3d                	li	t5,15
    1bc4:	02800f93          	li	t6,40
    1bc8:	04800293          	li	t0,72
    1bcc:	4e41                	li	t3,16
    1bce:	00ce98b3          	sll	a7,t4,a2
    1bd2:	0115f733          	and	a4,a1,a7
    1bd6:	02e89263          	bne	a7,a4,1bfa <GPIO_Init+0xa4>
    1bda:	00261713          	slli	a4,a2,0x2
    1bde:	1701                	addi	a4,a4,-32
    1be0:	00ef1333          	sll	t1,t5,a4
    1be4:	fff34313          	not	t1,t1
    1be8:	00d376b3          	and	a3,t1,a3
    1bec:	00e81733          	sll	a4,a6,a4
    1bf0:	8ed9                	or	a3,a3,a4
    1bf2:	01f79d63          	bne	a5,t6,1c0c <GPIO_Init+0xb6>
    1bf6:	01152a23          	sw	a7,20(a0)
    1bfa:	0605                	addi	a2,a2,1
    1bfc:	fdc619e3          	bne	a2,t3,1bce <GPIO_Init+0x78>
    1c00:	c154                	sw	a3,4(a0)
    1c02:	8082                	ret
    1c04:	fa5794e3          	bne	a5,t0,1bac <GPIO_Init+0x56>
    1c08:	c910                	sw	a2,16(a0)
    1c0a:	b74d                	j	1bac <GPIO_Init+0x56>
    1c0c:	fe5797e3          	bne	a5,t0,1bfa <GPIO_Init+0xa4>
    1c10:	01152823          	sw	a7,16(a0)
    1c14:	b7dd                	j	1bfa <GPIO_Init+0xa4>

00001c16 <NVIC_PriorityGroupConfig>:
    1c16:	200007b7          	lui	a5,0x20000
    1c1a:	1ca7aa23          	sw	a0,468(a5) # 200001d4 <NVIC_Priority_Group>
    1c1e:	8082                	ret

00001c20 <RCC_GetClocksFreq>:
    1c20:	40021737          	lui	a4,0x40021
    1c24:	435c                	lw	a5,4(a4)
    1c26:	4691                	li	a3,4
    1c28:	8bb1                	andi	a5,a5,12
    1c2a:	00d78563          	beq	a5,a3,1c34 <RCC_GetClocksFreq+0x14>
    1c2e:	46a1                	li	a3,8
    1c30:	06d78263          	beq	a5,a3,1c94 <RCC_GetClocksFreq+0x74>
    1c34:	007a17b7          	lui	a5,0x7a1
    1c38:	20078793          	addi	a5,a5,512 # 7a1200 <_data_lma+0x7944e0>
    1c3c:	c11c                	sw	a5,0(a0)
    1c3e:	40021637          	lui	a2,0x40021
    1c42:	425c                	lw	a5,4(a2)
    1c44:	20000737          	lui	a4,0x20000
    1c48:	09070713          	addi	a4,a4,144 # 20000090 <APBAHBPrescTable>
    1c4c:	8391                	srli	a5,a5,0x4
    1c4e:	8bbd                	andi	a5,a5,15
    1c50:	97ba                	add	a5,a5,a4
    1c52:	2394                	lbu	a3,0(a5)
    1c54:	411c                	lw	a5,0(a0)
    1c56:	00d7d7b3          	srl	a5,a5,a3
    1c5a:	c15c                	sw	a5,4(a0)
    1c5c:	4254                	lw	a3,4(a2)
    1c5e:	82a1                	srli	a3,a3,0x8
    1c60:	8a9d                	andi	a3,a3,7
    1c62:	96ba                	add	a3,a3,a4
    1c64:	2294                	lbu	a3,0(a3)
    1c66:	00d7d6b3          	srl	a3,a5,a3
    1c6a:	c514                	sw	a3,8(a0)
    1c6c:	4254                	lw	a3,4(a2)
    1c6e:	82ad                	srli	a3,a3,0xb
    1c70:	8a9d                	andi	a3,a3,7
    1c72:	9736                	add	a4,a4,a3
    1c74:	2318                	lbu	a4,0(a4)
    1c76:	00e7d7b3          	srl	a5,a5,a4
    1c7a:	c55c                	sw	a5,12(a0)
    1c7c:	4258                	lw	a4,4(a2)
    1c7e:	8339                	srli	a4,a4,0xe
    1c80:	00377693          	andi	a3,a4,3
    1c84:	81c18713          	addi	a4,gp,-2020 # 2000011c <ADCPrescTable>
    1c88:	9736                	add	a4,a4,a3
    1c8a:	2318                	lbu	a4,0(a4)
    1c8c:	02e7d7b3          	divu	a5,a5,a4
    1c90:	c91c                	sw	a5,16(a0)
    1c92:	8082                	ret
    1c94:	435c                	lw	a5,4(a4)
    1c96:	4358                	lw	a4,4(a4)
    1c98:	66c1                	lui	a3,0x10
    1c9a:	83c9                	srli	a5,a5,0x12
    1c9c:	8f75                	and	a4,a4,a3
    1c9e:	1ffff6b7          	lui	a3,0x1ffff
    1ca2:	70c6a683          	lw	a3,1804(a3) # 1ffff70c <_data_lma+0x1fff29ec>
    1ca6:	8bbd                	andi	a5,a5,15
    1ca8:	0789                	addi	a5,a5,2
    1caa:	01169613          	slli	a2,a3,0x11
    1cae:	00064863          	bltz	a2,1cbe <RCC_GetClocksFreq+0x9e>
    1cb2:	46c5                	li	a3,17
    1cb4:	4601                	li	a2,0
    1cb6:	02d79263          	bne	a5,a3,1cda <RCC_GetClocksFreq+0xba>
    1cba:	47c9                	li	a5,18
    1cbc:	a839                	j	1cda <RCC_GetClocksFreq+0xba>
    1cbe:	4689                	li	a3,2
    1cc0:	02d78f63          	beq	a5,a3,1cfe <RCC_GetClocksFreq+0xde>
    1cc4:	46bd                	li	a3,15
    1cc6:	02d78e63          	beq	a5,a3,1d02 <RCC_GetClocksFreq+0xe2>
    1cca:	46c1                	li	a3,16
    1ccc:	02d78e63          	beq	a5,a3,1d08 <RCC_GetClocksFreq+0xe8>
    1cd0:	46c5                	li	a3,17
    1cd2:	4601                	li	a2,0
    1cd4:	00d79363          	bne	a5,a3,1cda <RCC_GetClocksFreq+0xba>
    1cd8:	47c1                	li	a5,16
    1cda:	ef1d                	bnez	a4,1d18 <RCC_GetClocksFreq+0xf8>
    1cdc:	40024737          	lui	a4,0x40024
    1ce0:	80072703          	lw	a4,-2048(a4) # 40023800 <__freertos_irq_stack_top+0x20013800>
    1ce4:	8b41                	andi	a4,a4,16
    1ce6:	c705                	beqz	a4,1d0e <RCC_GetClocksFreq+0xee>
    1ce8:	007a1737          	lui	a4,0x7a1
    1cec:	20070713          	addi	a4,a4,512 # 7a1200 <_data_lma+0x7944e0>
    1cf0:	02f707b3          	mul	a5,a4,a5
    1cf4:	c11c                	sw	a5,0(a0)
    1cf6:	d621                	beqz	a2,1c3e <RCC_GetClocksFreq+0x1e>
    1cf8:	411c                	lw	a5,0(a0)
    1cfa:	8385                	srli	a5,a5,0x1
    1cfc:	b781                	j	1c3c <RCC_GetClocksFreq+0x1c>
    1cfe:	4601                	li	a2,0
    1d00:	bf6d                	j	1cba <RCC_GetClocksFreq+0x9a>
    1d02:	4605                	li	a2,1
    1d04:	47b5                	li	a5,13
    1d06:	bfd1                	j	1cda <RCC_GetClocksFreq+0xba>
    1d08:	4601                	li	a2,0
    1d0a:	47bd                	li	a5,15
    1d0c:	b7f9                	j	1cda <RCC_GetClocksFreq+0xba>
    1d0e:	003d1737          	lui	a4,0x3d1
    1d12:	90070713          	addi	a4,a4,-1792 # 3d0900 <_data_lma+0x3c3be0>
    1d16:	bfe9                	j	1cf0 <RCC_GetClocksFreq+0xd0>
    1d18:	400215b7          	lui	a1,0x40021
    1d1c:	55d8                	lw	a4,44(a1)
    1d1e:	00f71693          	slli	a3,a4,0xf
    1d22:	55d8                	lw	a4,44(a1)
    1d24:	0406df63          	bgez	a3,1d82 <RCC_GetClocksFreq+0x162>
    1d28:	8311                	srli	a4,a4,0x4
    1d2a:	8b3d                	andi	a4,a4,15
    1d2c:	00170693          	addi	a3,a4,1
    1d30:	007a1737          	lui	a4,0x7a1
    1d34:	20070713          	addi	a4,a4,512 # 7a1200 <_data_lma+0x7944e0>
    1d38:	02d75733          	divu	a4,a4,a3
    1d3c:	c118                	sw	a4,0(a0)
    1d3e:	55d4                	lw	a3,44(a1)
    1d40:	82a1                	srli	a3,a3,0x8
    1d42:	8abd                	andi	a3,a3,15
    1d44:	e28d                	bnez	a3,1d66 <RCC_GetClocksFreq+0x146>
    1d46:	4695                	li	a3,5
    1d48:	02d70733          	mul	a4,a4,a3
    1d4c:	8305                	srli	a4,a4,0x1
    1d4e:	c118                	sw	a4,0(a0)
    1d50:	40021737          	lui	a4,0x40021
    1d54:	5758                	lw	a4,44(a4)
    1d56:	4114                	lw	a3,0(a0)
    1d58:	8b3d                	andi	a4,a4,15
    1d5a:	0705                	addi	a4,a4,1
    1d5c:	02e6d733          	divu	a4,a3,a4
    1d60:	c118                	sw	a4,0(a0)
    1d62:	4118                	lw	a4,0(a0)
    1d64:	b771                	j	1cf0 <RCC_GetClocksFreq+0xd0>
    1d66:	4585                	li	a1,1
    1d68:	00b69463          	bne	a3,a1,1d70 <RCC_GetClocksFreq+0x150>
    1d6c:	46e5                	li	a3,25
    1d6e:	bfe9                	j	1d48 <RCC_GetClocksFreq+0x128>
    1d70:	45bd                	li	a1,15
    1d72:	00b69663          	bne	a3,a1,1d7e <RCC_GetClocksFreq+0x15e>
    1d76:	46d1                	li	a3,20
    1d78:	02e68733          	mul	a4,a3,a4
    1d7c:	bfc9                	j	1d4e <RCC_GetClocksFreq+0x12e>
    1d7e:	0689                	addi	a3,a3,2
    1d80:	bfe5                	j	1d78 <RCC_GetClocksFreq+0x158>
    1d82:	8b3d                	andi	a4,a4,15
    1d84:	00170693          	addi	a3,a4,1 # 40021001 <__freertos_irq_stack_top+0x20011001>
    1d88:	007a1737          	lui	a4,0x7a1
    1d8c:	20070713          	addi	a4,a4,512 # 7a1200 <_data_lma+0x7944e0>
    1d90:	02d75733          	divu	a4,a4,a3
    1d94:	b7f1                	j	1d60 <RCC_GetClocksFreq+0x140>

00001d96 <RCC_AHBPeriphClockCmd>:
    1d96:	c599                	beqz	a1,1da4 <RCC_AHBPeriphClockCmd+0xe>
    1d98:	40021737          	lui	a4,0x40021
    1d9c:	4b5c                	lw	a5,20(a4)
    1d9e:	8d5d                	or	a0,a0,a5
    1da0:	cb48                	sw	a0,20(a4)
    1da2:	8082                	ret
    1da4:	400217b7          	lui	a5,0x40021
    1da8:	4bd8                	lw	a4,20(a5)
    1daa:	fff54513          	not	a0,a0
    1dae:	8d79                	and	a0,a0,a4
    1db0:	cbc8                	sw	a0,20(a5)
    1db2:	8082                	ret

00001db4 <RCC_APB2PeriphClockCmd>:
    1db4:	c599                	beqz	a1,1dc2 <RCC_APB2PeriphClockCmd+0xe>
    1db6:	40021737          	lui	a4,0x40021
    1dba:	4f1c                	lw	a5,24(a4)
    1dbc:	8d5d                	or	a0,a0,a5
    1dbe:	cf08                	sw	a0,24(a4)
    1dc0:	8082                	ret
    1dc2:	400217b7          	lui	a5,0x40021
    1dc6:	4f98                	lw	a4,24(a5)
    1dc8:	fff54513          	not	a0,a0
    1dcc:	8d79                	and	a0,a0,a4
    1dce:	cf88                	sw	a0,24(a5)
    1dd0:	8082                	ret

00001dd2 <RCC_APB1PeriphClockCmd>:
    1dd2:	c599                	beqz	a1,1de0 <RCC_APB1PeriphClockCmd+0xe>
    1dd4:	40021737          	lui	a4,0x40021
    1dd8:	4f5c                	lw	a5,28(a4)
    1dda:	8d5d                	or	a0,a0,a5
    1ddc:	cf48                	sw	a0,28(a4)
    1dde:	8082                	ret
    1de0:	400217b7          	lui	a5,0x40021
    1de4:	4fd8                	lw	a4,28(a5)
    1de6:	fff54513          	not	a0,a0
    1dea:	8d79                	and	a0,a0,a4
    1dec:	cfc8                	sw	a0,28(a5)
    1dee:	8082                	ret

00001df0 <RCC_GetFlagStatus>:
    1df0:	00555793          	srli	a5,a0,0x5
    1df4:	4705                	li	a4,1
    1df6:	00e79963          	bne	a5,a4,1e08 <RCC_GetFlagStatus+0x18>
    1dfa:	400217b7          	lui	a5,0x40021
    1dfe:	439c                	lw	a5,0(a5)
    1e00:	00a7d533          	srl	a0,a5,a0
    1e04:	8905                	andi	a0,a0,1
    1e06:	8082                	ret
    1e08:	4709                	li	a4,2
    1e0a:	00e79663          	bne	a5,a4,1e16 <RCC_GetFlagStatus+0x26>
    1e0e:	400217b7          	lui	a5,0x40021
    1e12:	539c                	lw	a5,32(a5)
    1e14:	b7f5                	j	1e00 <RCC_GetFlagStatus+0x10>
    1e16:	400217b7          	lui	a5,0x40021
    1e1a:	53dc                	lw	a5,36(a5)
    1e1c:	b7d5                	j	1e00 <RCC_GetFlagStatus+0x10>

00001e1e <RCC_PREDIV2Config>:
    1e1e:	40021737          	lui	a4,0x40021
    1e22:	575c                	lw	a5,44(a4)
    1e24:	f0f7f793          	andi	a5,a5,-241
    1e28:	8d5d                	or	a0,a0,a5
    1e2a:	d748                	sw	a0,44(a4)
    1e2c:	8082                	ret

00001e2e <RCC_PLL3Config>:
    1e2e:	400216b7          	lui	a3,0x40021
    1e32:	56dc                	lw	a5,44(a3)
    1e34:	7745                	lui	a4,0xffff1
    1e36:	177d                	addi	a4,a4,-1
    1e38:	8ff9                	and	a5,a5,a4
    1e3a:	8d5d                	or	a0,a0,a5
    1e3c:	d6c8                	sw	a0,44(a3)
    1e3e:	8082                	ret

00001e40 <RCC_PLL3Cmd>:
    1e40:	c909                	beqz	a0,1e52 <RCC_PLL3Cmd+0x12>
    1e42:	40021737          	lui	a4,0x40021
    1e46:	431c                	lw	a5,0(a4)
    1e48:	100006b7          	lui	a3,0x10000
    1e4c:	8fd5                	or	a5,a5,a3
    1e4e:	c31c                	sw	a5,0(a4)
    1e50:	8082                	ret
    1e52:	400216b7          	lui	a3,0x40021
    1e56:	429c                	lw	a5,0(a3)
    1e58:	f0000737          	lui	a4,0xf0000
    1e5c:	177d                	addi	a4,a4,-1
    1e5e:	8ff9                	and	a5,a5,a4
    1e60:	c29c                	sw	a5,0(a3)
    1e62:	8082                	ret

00001e64 <RCC_AHBPeriphResetCmd>:
    1e64:	c599                	beqz	a1,1e72 <RCC_AHBPeriphResetCmd+0xe>
    1e66:	40021737          	lui	a4,0x40021
    1e6a:	571c                	lw	a5,40(a4)
    1e6c:	8d5d                	or	a0,a0,a5
    1e6e:	d708                	sw	a0,40(a4)
    1e70:	8082                	ret
    1e72:	400217b7          	lui	a5,0x40021
    1e76:	5798                	lw	a4,40(a5)
    1e78:	fff54513          	not	a0,a0
    1e7c:	8d79                	and	a0,a0,a4
    1e7e:	d788                	sw	a0,40(a5)
    1e80:	8082                	ret

00001e82 <TIM_TimeBaseInit>:
    1e82:	211e                	lhu	a5,0(a0)
    1e84:	40013737          	lui	a4,0x40013
    1e88:	c0070693          	addi	a3,a4,-1024 # 40012c00 <__freertos_irq_stack_top+0x20002c00>
    1e8c:	07c2                	slli	a5,a5,0x10
    1e8e:	83c1                	srli	a5,a5,0x10
    1e90:	04d50063          	beq	a0,a3,1ed0 <TIM_TimeBaseInit+0x4e>
    1e94:	400006b7          	lui	a3,0x40000
    1e98:	02d50c63          	beq	a0,a3,1ed0 <TIM_TimeBaseInit+0x4e>
    1e9c:	40068693          	addi	a3,a3,1024 # 40000400 <__freertos_irq_stack_top+0x1fff0400>
    1ea0:	02d50863          	beq	a0,a3,1ed0 <TIM_TimeBaseInit+0x4e>
    1ea4:	400016b7          	lui	a3,0x40001
    1ea8:	80068613          	addi	a2,a3,-2048 # 40000800 <__freertos_irq_stack_top+0x1fff0800>
    1eac:	02c50263          	beq	a0,a2,1ed0 <TIM_TimeBaseInit+0x4e>
    1eb0:	c0068693          	addi	a3,a3,-1024
    1eb4:	00d50e63          	beq	a0,a3,1ed0 <TIM_TimeBaseInit+0x4e>
    1eb8:	40070713          	addi	a4,a4,1024
    1ebc:	00e50a63          	beq	a0,a4,1ed0 <TIM_TimeBaseInit+0x4e>
    1ec0:	40015737          	lui	a4,0x40015
    1ec4:	c0070693          	addi	a3,a4,-1024 # 40014c00 <__freertos_irq_stack_top+0x20004c00>
    1ec8:	00d50463          	beq	a0,a3,1ed0 <TIM_TimeBaseInit+0x4e>
    1ecc:	00e51663          	bne	a0,a4,1ed8 <TIM_TimeBaseInit+0x56>
    1ed0:	21ba                	lhu	a4,2(a1)
    1ed2:	f8f7f793          	andi	a5,a5,-113
    1ed6:	8fd9                	or	a5,a5,a4
    1ed8:	40001737          	lui	a4,0x40001
    1edc:	00e50c63          	beq	a0,a4,1ef4 <TIM_TimeBaseInit+0x72>
    1ee0:	40070713          	addi	a4,a4,1024 # 40001400 <__freertos_irq_stack_top+0x1fff1400>
    1ee4:	00e50863          	beq	a0,a4,1ef4 <TIM_TimeBaseInit+0x72>
    1ee8:	cff7f793          	andi	a5,a5,-769
    1eec:	21fa                	lhu	a4,6(a1)
    1eee:	07c2                	slli	a5,a5,0x10
    1ef0:	83c1                	srli	a5,a5,0x10
    1ef2:	8fd9                	or	a5,a5,a4
    1ef4:	a11e                	sh	a5,0(a0)
    1ef6:	21de                	lhu	a5,4(a1)
    1ef8:	b55e                	sh	a5,44(a0)
    1efa:	219e                	lhu	a5,0(a1)
    1efc:	b51e                	sh	a5,40(a0)
    1efe:	400137b7          	lui	a5,0x40013
    1f02:	c0078713          	addi	a4,a5,-1024 # 40012c00 <__freertos_irq_stack_top+0x20002c00>
    1f06:	00e50e63          	beq	a0,a4,1f22 <TIM_TimeBaseInit+0xa0>
    1f0a:	40078793          	addi	a5,a5,1024
    1f0e:	00f50a63          	beq	a0,a5,1f22 <TIM_TimeBaseInit+0xa0>
    1f12:	400157b7          	lui	a5,0x40015
    1f16:	c0078713          	addi	a4,a5,-1024 # 40014c00 <__freertos_irq_stack_top+0x20004c00>
    1f1a:	00e50463          	beq	a0,a4,1f22 <TIM_TimeBaseInit+0xa0>
    1f1e:	00f51463          	bne	a0,a5,1f26 <TIM_TimeBaseInit+0xa4>
    1f22:	259c                	lbu	a5,8(a1)
    1f24:	b91e                	sh	a5,48(a0)
    1f26:	4785                	li	a5,1
    1f28:	a95e                	sh	a5,20(a0)
    1f2a:	8082                	ret

00001f2c <TIM_Cmd>:
    1f2c:	211e                	lhu	a5,0(a0)
    1f2e:	c589                	beqz	a1,1f38 <TIM_Cmd+0xc>
    1f30:	0017e793          	ori	a5,a5,1
    1f34:	a11e                	sh	a5,0(a0)
    1f36:	8082                	ret
    1f38:	07c2                	slli	a5,a5,0x10
    1f3a:	83c1                	srli	a5,a5,0x10
    1f3c:	9bf9                	andi	a5,a5,-2
    1f3e:	07c2                	slli	a5,a5,0x10
    1f40:	83c1                	srli	a5,a5,0x10
    1f42:	bfcd                	j	1f34 <TIM_Cmd+0x8>

00001f44 <TIM_ITConfig>:
    1f44:	255e                	lhu	a5,12(a0)
    1f46:	c601                	beqz	a2,1f4e <TIM_ITConfig+0xa>
    1f48:	8ddd                	or	a1,a1,a5
    1f4a:	a54e                	sh	a1,12(a0)
    1f4c:	8082                	ret
    1f4e:	fff5c593          	not	a1,a1
    1f52:	8dfd                	and	a1,a1,a5
    1f54:	bfdd                	j	1f4a <TIM_ITConfig+0x6>

00001f56 <TIM_ClearITPendingBit>:
    1f56:	fff5c593          	not	a1,a1
    1f5a:	05c2                	slli	a1,a1,0x10
    1f5c:	81c1                	srli	a1,a1,0x10
    1f5e:	a90e                	sh	a1,16(a0)
    1f60:	8082                	ret

00001f62 <USART_Init>:
    1f62:	db4fe2ef          	jal	t0,516 <__riscv_save_0>
    1f66:	2916                	lhu	a3,16(a0)
    1f68:	77f5                	lui	a5,0xffffd
    1f6a:	17fd                	addi	a5,a5,-1
    1f6c:	8ff5                	and	a5,a5,a3
    1f6e:	21f6                	lhu	a3,6(a1)
    1f70:	25da                	lhu	a4,12(a1)
    1f72:	7179                	addi	sp,sp,-48
    1f74:	8fd5                	or	a5,a5,a3
    1f76:	a91e                	sh	a5,16(a0)
    1f78:	2556                	lhu	a3,12(a0)
    1f7a:	77fd                	lui	a5,0xfffff
    1f7c:	9f378793          	addi	a5,a5,-1549 # ffffe9f3 <__freertos_irq_stack_top+0xdffee9f3>
    1f80:	8ff5                	and	a5,a5,a3
    1f82:	21d6                	lhu	a3,4(a1)
    1f84:	842a                	mv	s0,a0
    1f86:	c62e                	sw	a1,12(sp)
    1f88:	8fd5                	or	a5,a5,a3
    1f8a:	2596                	lhu	a3,8(a1)
    1f8c:	8fd5                	or	a5,a5,a3
    1f8e:	25b6                	lhu	a3,10(a1)
    1f90:	8fd5                	or	a5,a5,a3
    1f92:	a55e                	sh	a5,12(a0)
    1f94:	295e                	lhu	a5,20(a0)
    1f96:	07c2                	slli	a5,a5,0x10
    1f98:	83c1                	srli	a5,a5,0x10
    1f9a:	cff7f793          	andi	a5,a5,-769
    1f9e:	8fd9                	or	a5,a5,a4
    1fa0:	a95e                	sh	a5,20(a0)
    1fa2:	0868                	addi	a0,sp,28
    1fa4:	39b5                	jal	1c20 <RCC_GetClocksFreq>
    1fa6:	400147b7          	lui	a5,0x40014
    1faa:	80078793          	addi	a5,a5,-2048 # 40013800 <__freertos_irq_stack_top+0x20003800>
    1fae:	45b2                	lw	a1,12(sp)
    1fb0:	04f41a63          	bne	s0,a5,2004 <USART_Init+0xa2>
    1fb4:	57a2                	lw	a5,40(sp)
    1fb6:	2456                	lhu	a3,12(s0)
    1fb8:	4765                	li	a4,25
    1fba:	02e787b3          	mul	a5,a5,a4
    1fbe:	06c2                	slli	a3,a3,0x10
    1fc0:	86c1                	srai	a3,a3,0x10
    1fc2:	4198                	lw	a4,0(a1)
    1fc4:	0406d263          	bgez	a3,2008 <USART_Init+0xa6>
    1fc8:	0706                	slli	a4,a4,0x1
    1fca:	2452                	lhu	a2,12(s0)
    1fcc:	0642                	slli	a2,a2,0x10
    1fce:	02e7d7b3          	divu	a5,a5,a4
    1fd2:	06400713          	li	a4,100
    1fd6:	8641                	srai	a2,a2,0x10
    1fd8:	02e7d6b3          	divu	a3,a5,a4
    1fdc:	02e7f7b3          	remu	a5,a5,a4
    1fe0:	0692                	slli	a3,a3,0x4
    1fe2:	02065563          	bgez	a2,200c <USART_Init+0xaa>
    1fe6:	078e                	slli	a5,a5,0x3
    1fe8:	03278793          	addi	a5,a5,50
    1fec:	02e7d7b3          	divu	a5,a5,a4
    1ff0:	0077f713          	andi	a4,a5,7
    1ff4:	00d767b3          	or	a5,a4,a3
    1ff8:	07c2                	slli	a5,a5,0x10
    1ffa:	83c1                	srli	a5,a5,0x10
    1ffc:	a41e                	sh	a5,8(s0)
    1ffe:	6145                	addi	sp,sp,48
    2000:	d3afe06f          	j	53a <__riscv_restore_0>
    2004:	5792                	lw	a5,36(sp)
    2006:	bf45                	j	1fb6 <USART_Init+0x54>
    2008:	070a                	slli	a4,a4,0x2
    200a:	b7c1                	j	1fca <USART_Init+0x68>
    200c:	0792                	slli	a5,a5,0x4
    200e:	03278793          	addi	a5,a5,50
    2012:	02e7d7b3          	divu	a5,a5,a4
    2016:	8bbd                	andi	a5,a5,15
    2018:	8fd5                	or	a5,a5,a3
    201a:	bff9                	j	1ff8 <USART_Init+0x96>

0000201c <USART_Cmd>:
    201c:	c591                	beqz	a1,2028 <USART_Cmd+0xc>
    201e:	255e                	lhu	a5,12(a0)
    2020:	6709                	lui	a4,0x2
    2022:	8fd9                	or	a5,a5,a4
    2024:	a55e                	sh	a5,12(a0)
    2026:	8082                	ret
    2028:	255a                	lhu	a4,12(a0)
    202a:	77f9                	lui	a5,0xffffe
    202c:	17fd                	addi	a5,a5,-1
    202e:	8ff9                	and	a5,a5,a4
    2030:	bfd5                	j	2024 <USART_Cmd+0x8>

00002032 <USART_SendData>:
    2032:	1ff5f593          	andi	a1,a1,511
    2036:	a14e                	sh	a1,4(a0)
    2038:	8082                	ret

0000203a <USART_GetFlagStatus>:
    203a:	210a                	lhu	a0,0(a0)
    203c:	8d6d                	and	a0,a0,a1
    203e:	00a03533          	snez	a0,a0
    2042:	8082                	ret

00002044 <ETH_TxPktChainMode>:
    2044:	200006b7          	lui	a3,0x20000
    2048:	1d06a783          	lw	a5,464(a3) # 200001d0 <DMATxDescToSet>
    204c:	4398                	lw	a4,0(a5)
    204e:	02074b63          	bltz	a4,2084 <ETH_TxPktChainMode+0x40>
    2052:	4398                	lw	a4,0(a5)
    2054:	30000637          	lui	a2,0x30000
    2058:	054e                	slli	a0,a0,0x13
    205a:	8f51                	or	a4,a4,a2
    205c:	c398                	sw	a4,0(a5)
    205e:	4398                	lw	a4,0(a5)
    2060:	80000637          	lui	a2,0x80000
    2064:	814d                	srli	a0,a0,0x13
    2066:	8f51                	or	a4,a4,a2
    2068:	c398                	sw	a4,0(a5)
    206a:	c3c8                	sw	a0,4(a5)
    206c:	c78c                	sw	a1,8(a5)
    206e:	40029737          	lui	a4,0x40029
    2072:	4611                	li	a2,4
    2074:	cb50                	sw	a2,20(a4)
    2076:	00072223          	sw	zero,4(a4) # 40029004 <__freertos_irq_stack_top+0x20019004>
    207a:	47dc                	lw	a5,12(a5)
    207c:	4505                	li	a0,1
    207e:	1cf6a823          	sw	a5,464(a3)
    2082:	8082                	ret
    2084:	4501                	li	a0,0
    2086:	8082                	ret

00002088 <ETH_LedDataSet>:
    2088:	c8efe2ef          	jal	t0,516 <__riscv_save_0>
    208c:	6585                	lui	a1,0x1
    208e:	4785                	li	a5,1
    2090:	80058593          	addi	a1,a1,-2048 # 800 <__stack_size>
    2094:	00f51863          	bne	a0,a5,20a4 <ETH_LedDataSet+0x1c>
    2098:	40011537          	lui	a0,0x40011
    209c:	7e5000ef          	jal	ra,3080 <HAL_SetBit>
    20a0:	c9afe06f          	j	53a <__riscv_restore_0>
    20a4:	40011537          	lui	a0,0x40011
    20a8:	7dd000ef          	jal	ra,3084 <HAL_ResetBit>
    20ac:	bfd5                	j	20a0 <ETH_LedDataSet+0x18>

000020ae <ETH_LedLinkSet>:
    20ae:	c68fe2ef          	jal	t0,516 <__riscv_save_0>
    20b2:	4785                	li	a5,1
    20b4:	40000593          	li	a1,1024
    20b8:	00f51863          	bne	a0,a5,20c8 <ETH_LedLinkSet+0x1a>
    20bc:	40011537          	lui	a0,0x40011
    20c0:	7c1000ef          	jal	ra,3080 <HAL_SetBit>
    20c4:	c76fe06f          	j	53a <__riscv_restore_0>
    20c8:	40011537          	lui	a0,0x40011
    20cc:	7b9000ef          	jal	ra,3084 <HAL_ResetBit>
    20d0:	bfd5                	j	20c4 <ETH_LedLinkSet+0x16>

000020d2 <WCHNET_GetMacAddr>:
    20d2:	1ffff737          	lui	a4,0x1ffff
    20d6:	4781                	li	a5,0
    20d8:	7ed70713          	addi	a4,a4,2029 # 1ffff7ed <_data_lma+0x1fff2acd>
    20dc:	4699                	li	a3,6
    20de:	40f70633          	sub	a2,a4,a5
    20e2:	220c                	lbu	a1,0(a2)
    20e4:	00f50633          	add	a2,a0,a5
    20e8:	0785                	addi	a5,a5,1
    20ea:	a20c                	sb	a1,0(a2)
    20ec:	fed799e3          	bne	a5,a3,20de <WCHNET_GetMacAddr+0xc>
    20f0:	8082                	ret

000020f2 <WCHNET_TimeIsr>:
    20f2:	200007b7          	lui	a5,0x20000
    20f6:	1e478793          	addi	a5,a5,484 # 200001e4 <LocalTime>
    20fa:	4398                	lw	a4,0(a5)
    20fc:	953a                	add	a0,a0,a4
    20fe:	c388                	sw	a0,0(a5)
    2100:	8082                	ret

00002102 <WCHNET_PhyPNProcess>:
    2102:	200007b7          	lui	a5,0x20000
    2106:	1e47a703          	lw	a4,484(a5) # 200001e4 <LocalTime>
    210a:	200007b7          	lui	a5,0x20000
    210e:	1ee7a023          	sw	a4,480(a5) # 200001e0 <LinkSuccTime>
    2112:	400287b7          	lui	a5,0x40028
    2116:	1c47a703          	lw	a4,452(a5) # 400281c4 <__freertos_irq_stack_top+0x200181c4>
    211a:	e341                	bnez	a4,219a <WCHNET_PhyPNProcess+0x98>
    211c:	1947a703          	lw	a4,404(a5)
    2120:	4789                	li	a5,2
    2122:	06e7fc63          	bgeu	a5,a4,219a <WCHNET_PhyPNProcess+0x98>
    2126:	bf0fe2ef          	jal	t0,516 <__riscv_save_0>
    212a:	20000437          	lui	s0,0x20000
    212e:	1f445503          	lhu	a0,500(s0) # 200001f4 <gPHYAddress>
    2132:	45f9                	li	a1,30
    2134:	1f440413          	addi	s0,s0,500
    2138:	85fff0ef          	jal	ra,1996 <ETH_ReadPHYRegister>
    213c:	00255793          	srli	a5,a0,0x2
    2140:	8b85                	andi	a5,a5,1
    2142:	c7b9                	beqz	a5,2190 <WCHNET_PhyPNProcess+0x8e>
    2144:	994d                	andi	a0,a0,-13
    2146:	01051613          	slli	a2,a0,0x10
    214a:	200a                	lhu	a0,0(s0)
    214c:	8241                	srli	a2,a2,0x10
    214e:	45f9                	li	a1,30
    2150:	89fff0ef          	jal	ra,19ee <ETH_WritePHYRegister>
    2154:	40028737          	lui	a4,0x40028
    2158:	10072783          	lw	a5,256(a4) # 40028100 <__freertos_irq_stack_top+0x20018100>
    215c:	0017e793          	ori	a5,a5,1
    2160:	10f72023          	sw	a5,256(a4)
    2164:	10072783          	lw	a5,256(a4)
    2168:	8b85                	andi	a5,a5,1
    216a:	ffed                	bnez	a5,2164 <WCHNET_PhyPNProcess+0x62>
    216c:	400287b7          	lui	a5,0x40028
    2170:	1c47a703          	lw	a4,452(a5) # 400281c4 <__freertos_irq_stack_top+0x200181c4>
    2174:	cf01                	beqz	a4,218c <WCHNET_PhyPNProcess+0x8a>
    2176:	20000737          	lui	a4,0x20000
    217a:	1e070423          	sb	zero,488(a4) # 200001e8 <PhyPolarityDetect>
    217e:	43d8                	lw	a4,4(a5)
    2180:	800006b7          	lui	a3,0x80000
    2184:	ffe6c693          	xori	a3,a3,-2
    2188:	8f75                	and	a4,a4,a3
    218a:	c3d8                	sw	a4,4(a5)
    218c:	baefe06f          	j	53a <__riscv_restore_0>
    2190:	00456513          	ori	a0,a0,4
    2194:	0542                	slli	a0,a0,0x10
    2196:	8141                	srli	a0,a0,0x10
    2198:	b77d                	j	2146 <WCHNET_PhyPNProcess+0x44>
    219a:	400287b7          	lui	a5,0x40028
    219e:	1c47a703          	lw	a4,452(a5) # 400281c4 <__freertos_irq_stack_top+0x200181c4>
    21a2:	cf09                	beqz	a4,21bc <WCHNET_PhyPNProcess+0xba>
    21a4:	20000737          	lui	a4,0x20000
    21a8:	1e070423          	sb	zero,488(a4) # 200001e8 <PhyPolarityDetect>
    21ac:	43d8                	lw	a4,4(a5)
    21ae:	800006b7          	lui	a3,0x80000
    21b2:	ffe6c693          	xori	a3,a3,-2
    21b6:	8f75                	and	a4,a4,a3
    21b8:	c3d8                	sw	a4,4(a5)
    21ba:	8082                	ret
    21bc:	8082                	ret

000021be <WCHNET_LinkProcess>:
    21be:	b3efe2ef          	jal	t0,4fc <__riscv_save_4>
    21c2:	20000437          	lui	s0,0x20000
    21c6:	1f440493          	addi	s1,s0,500 # 200001f4 <gPHYAddress>
    21ca:	208a                	lhu	a0,0(s1)
    21cc:	4595                	li	a1,5
    21ce:	1f440413          	addi	s0,s0,500
    21d2:	fc4ff0ef          	jal	ra,1996 <ETH_ReadPHYRegister>
    21d6:	892a                	mv	s2,a0
    21d8:	208a                	lhu	a0,0(s1)
    21da:	4585                	li	a1,1
    21dc:	fbaff0ef          	jal	ra,1996 <ETH_ReadPHYRegister>
    21e0:	01f97793          	andi	a5,s2,31
    21e4:	20000937          	lui	s2,0x20000
    21e8:	1f290913          	addi	s2,s2,498 # 200001f2 <TRDetectStep>
    21ec:	16078063          	beqz	a5,234c <WCHNET_LinkProcess+0x18e>
    21f0:	00094783          	lbu	a5,0(s2)
    21f4:	e7c1                	bnez	a5,227c <WCHNET_LinkProcess+0xbe>
    21f6:	200a                	lhu	a0,0(s0)
    21f8:	4785                	li	a5,1
    21fa:	20000737          	lui	a4,0x20000
    21fe:	45f9                	li	a1,30
    2200:	00f90023          	sb	a5,0(s2)
    2204:	1ef708a3          	sb	a5,497(a4) # 200001f1 <TRDetectCnt>
    2208:	f8eff0ef          	jal	ra,1996 <ETH_ReadPHYRegister>
    220c:	ffc57613          	andi	a2,a0,-4
    2210:	0642                	slli	a2,a2,0x10
    2212:	00157793          	andi	a5,a0,1
    2216:	8241                	srli	a2,a2,0x10
    2218:	cfb9                	beqz	a5,2276 <WCHNET_LinkProcess+0xb8>
    221a:	00266613          	ori	a2,a2,2
    221e:	200a                	lhu	a0,0(s0)
    2220:	45f9                	li	a1,30
    2222:	fccff0ef          	jal	ra,19ee <ETH_WritePHYRegister>
    2226:	200a                	lhu	a0,0(s0)
    2228:	4581                	li	a1,0
    222a:	f6cff0ef          	jal	ra,1996 <ETH_ReadPHYRegister>
    222e:	ffe57613          	andi	a2,a0,-2
    2232:	0642                	slli	a2,a2,0x10
    2234:	200a                	lhu	a0,0(s0)
    2236:	8241                	srli	a2,a2,0x10
    2238:	20066613          	ori	a2,a2,512
    223c:	4581                	li	a1,0
    223e:	fb0ff0ef          	jal	ra,19ee <ETH_WritePHYRegister>
    2242:	200a                	lhu	a0,0(s0)
    2244:	4581                	li	a1,0
    2246:	f50ff0ef          	jal	ra,1996 <ETH_ReadPHYRegister>
    224a:	20356613          	ori	a2,a0,515
    224e:	200a                	lhu	a0,0(s0)
    2250:	0642                	slli	a2,a2,0x10
    2252:	8241                	srli	a2,a2,0x10
    2254:	4581                	li	a1,0
    2256:	f98ff0ef          	jal	ra,19ee <ETH_WritePHYRegister>
    225a:	200007b7          	lui	a5,0x20000
    225e:	1ec7a783          	lw	a5,492(a5) # 200001ec <RandVal>
    2262:	06400713          	li	a4,100
    2266:	02e7f7b3          	remu	a5,a5,a4
    226a:	03278793          	addi	a5,a5,50
    226e:	82f18023          	sb	a5,-2016(gp) # 20000120 <LinkTaskPeriod>
    2272:	abefe06f          	j	530 <__riscv_restore_4>
    2276:	00166613          	ori	a2,a2,1
    227a:	b755                	j	221e <WCHNET_LinkProcess+0x60>
    227c:	4705                	li	a4,1
    227e:	00e79963          	bne	a5,a4,2290 <WCHNET_LinkProcess+0xd2>
    2282:	4789                	li	a5,2
    2284:	00f90023          	sb	a5,0(s2)
    2288:	200007b7          	lui	a5,0x20000
    228c:	1e0788a3          	sb	zero,497(a5) # 200001f1 <TRDetectCnt>
    2290:	90218793          	addi	a5,gp,-1790 # 20000202 <phyLinkStatus>
    2294:	00078703          	lb	a4,0(a5)
    2298:	06074663          	bltz	a4,2304 <WCHNET_LinkProcess+0x146>
    229c:	82118493          	addi	s1,gp,-2015 # 20000121 <phyPN>
    22a0:	2094                	lbu	a3,0(s1)
    22a2:	4721                	li	a4,8
    22a4:	04e69a63          	bne	a3,a4,22f8 <WCHNET_LinkProcess+0x13a>
    22a8:	200a                	lhu	a0,0(s0)
    22aa:	45f9                	li	a1,30
    22ac:	eeaff0ef          	jal	ra,1996 <ETH_ReadPHYRegister>
    22b0:	0f357613          	andi	a2,a0,243
    22b4:	200a                	lhu	a0,0(s0)
    22b6:	45f9                	li	a1,30
    22b8:	a090                	sb	a2,0(s1)
    22ba:	f34ff0ef          	jal	ra,19ee <ETH_WritePHYRegister>
    22be:	00048023          	sb	zero,0(s1)
    22c2:	200a                	lhu	a0,0(s0)
    22c4:	4581                	li	a1,0
    22c6:	ed0ff0ef          	jal	ra,1996 <ETH_ReadPHYRegister>
    22ca:	ffe57613          	andi	a2,a0,-2
    22ce:	0642                	slli	a2,a2,0x10
    22d0:	200a                	lhu	a0,0(s0)
    22d2:	8241                	srli	a2,a2,0x10
    22d4:	20066613          	ori	a2,a2,512
    22d8:	4581                	li	a1,0
    22da:	f14ff0ef          	jal	ra,19ee <ETH_WritePHYRegister>
    22de:	200a                	lhu	a0,0(s0)
    22e0:	4581                	li	a1,0
    22e2:	eb4ff0ef          	jal	ra,1996 <ETH_ReadPHYRegister>
    22e6:	20356613          	ori	a2,a0,515
    22ea:	200a                	lhu	a0,0(s0)
    22ec:	0642                	slli	a2,a2,0x10
    22ee:	8241                	srli	a2,a2,0x10
    22f0:	4581                	li	a1,0
    22f2:	efcff0ef          	jal	ra,19ee <ETH_WritePHYRegister>
    22f6:	a021                	j	22fe <WCHNET_LinkProcess+0x140>
    22f8:	f8000713          	li	a4,-128
    22fc:	a398                	sb	a4,0(a5)
    22fe:	90018023          	sb	zero,-1792(gp) # 20000200 <phyLinkCnt>
    2302:	bf85                	j	2272 <WCHNET_LinkProcess+0xb4>
    2304:	90918793          	addi	a5,gp,-1783 # 20000209 <phySucCnt>
    2308:	2398                	lbu	a4,0(a5)
    230a:	00170693          	addi	a3,a4,1
    230e:	a394                	sb	a3,0(a5)
    2310:	4695                	li	a3,5
    2312:	fed716e3          	bne	a4,a3,22fe <WCHNET_LinkProcess+0x140>
    2316:	02057513          	andi	a0,a0,32
    231a:	f175                	bnez	a0,22fe <WCHNET_LinkProcess+0x140>
    231c:	82118493          	addi	s1,gp,-2015 # 20000121 <phyPN>
    2320:	00078023          	sb	zero,0(a5)
    2324:	209c                	lbu	a5,0(s1)
    2326:	4911                	li	s2,4
    2328:	200a                	lhu	a0,0(s0)
    232a:	45f9                	li	a1,30
    232c:	f92780e3          	beq	a5,s2,22ac <WCHNET_LinkProcess+0xee>
    2330:	e66ff0ef          	jal	ra,1996 <ETH_ReadPHYRegister>
    2334:	0f357613          	andi	a2,a0,243
    2338:	200a                	lhu	a0,0(s0)
    233a:	00466613          	ori	a2,a2,4
    233e:	45f9                	li	a1,30
    2340:	a090                	sb	a2,0(s1)
    2342:	eacff0ef          	jal	ra,19ee <ETH_WritePHYRegister>
    2346:	01248023          	sb	s2,0(s1)
    234a:	bfa5                	j	22c2 <WCHNET_LinkProcess+0x104>
    234c:	00094703          	lbu	a4,0(s2)
    2350:	4785                	li	a5,1
    2352:	08f71463          	bne	a4,a5,23da <WCHNET_LinkProcess+0x21c>
    2356:	20000737          	lui	a4,0x20000
    235a:	1f170713          	addi	a4,a4,497 # 200001f1 <TRDetectCnt>
    235e:	231c                	lbu	a5,0(a4)
    2360:	46a1                	li	a3,8
    2362:	208a                	lhu	a0,0(s1)
    2364:	0785                	addi	a5,a5,1
    2366:	0ff7f793          	andi	a5,a5,255
    236a:	a31c                	sb	a5,0(a4)
    236c:	00d79b63          	bne	a5,a3,2382 <WCHNET_LinkProcess+0x1c4>
    2370:	00070023          	sb	zero,0(a4)
    2374:	00090023          	sb	zero,0(s2)
    2378:	4621                	li	a2,8
    237a:	45f9                	li	a1,30
    237c:	e72ff0ef          	jal	ra,19ee <ETH_WritePHYRegister>
    2380:	bdcd                	j	2272 <WCHNET_LinkProcess+0xb4>
    2382:	45f9                	li	a1,30
    2384:	e12ff0ef          	jal	ra,1996 <ETH_ReadPHYRegister>
    2388:	ffc57613          	andi	a2,a0,-4
    238c:	0642                	slli	a2,a2,0x10
    238e:	00157793          	andi	a5,a0,1
    2392:	8241                	srli	a2,a2,0x10
    2394:	c3a1                	beqz	a5,23d4 <WCHNET_LinkProcess+0x216>
    2396:	00266613          	ori	a2,a2,2
    239a:	200a                	lhu	a0,0(s0)
    239c:	45f9                	li	a1,30
    239e:	e50ff0ef          	jal	ra,19ee <ETH_WritePHYRegister>
    23a2:	200a                	lhu	a0,0(s0)
    23a4:	4581                	li	a1,0
    23a6:	df0ff0ef          	jal	ra,1996 <ETH_ReadPHYRegister>
    23aa:	ffe57613          	andi	a2,a0,-2
    23ae:	0642                	slli	a2,a2,0x10
    23b0:	200a                	lhu	a0,0(s0)
    23b2:	8241                	srli	a2,a2,0x10
    23b4:	20066613          	ori	a2,a2,512
    23b8:	4581                	li	a1,0
    23ba:	e34ff0ef          	jal	ra,19ee <ETH_WritePHYRegister>
    23be:	200a                	lhu	a0,0(s0)
    23c0:	4581                	li	a1,0
    23c2:	dd4ff0ef          	jal	ra,1996 <ETH_ReadPHYRegister>
    23c6:	20356613          	ori	a2,a0,515
    23ca:	0642                	slli	a2,a2,0x10
    23cc:	8241                	srli	a2,a2,0x10
    23ce:	4581                	li	a1,0
    23d0:	200a                	lhu	a0,0(s0)
    23d2:	b76d                	j	237c <WCHNET_LinkProcess+0x1be>
    23d4:	00166613          	ori	a2,a2,1
    23d8:	b7c9                	j	239a <WCHNET_LinkProcess+0x1dc>
    23da:	90018413          	addi	s0,gp,-1792 # 20000200 <phyLinkCnt>
    23de:	00044a83          	lbu	s5,0(s0)
    23e2:	90218a13          	addi	s4,gp,-1790 # 20000202 <phyLinkStatus>
    23e6:	000a4683          	lbu	a3,0(s4)
    23ea:	001a8793          	addi	a5,s5,1
    23ee:	08000713          	li	a4,128
    23f2:	0ff7f793          	andi	a5,a5,255
    23f6:	06e69463          	bne	a3,a4,245e <WCHNET_LinkProcess+0x2a0>
    23fa:	473d                	li	a4,15
    23fc:	00ea8463          	beq	s5,a4,2404 <WCHNET_LinkProcess+0x246>
    2400:	a01c                	sb	a5,0(s0)
    2402:	bd85                	j	2272 <WCHNET_LinkProcess+0xb4>
    2404:	208a                	lhu	a0,0(s1)
    2406:	00040023          	sb	zero,0(s0)
    240a:	00090023          	sb	zero,0(s2)
    240e:	82118413          	addi	s0,gp,-2015 # 20000121 <phyPN>
    2412:	4921                	li	s2,8
    2414:	4621                	li	a2,8
    2416:	45f9                	li	a1,30
    2418:	900184a3          	sb	zero,-1783(gp) # 20000209 <phySucCnt>
    241c:	000a0023          	sb	zero,0(s4)
    2420:	01240023          	sb	s2,0(s0)
    2424:	dcaff0ef          	jal	ra,19ee <ETH_WritePHYRegister>
    2428:	01240023          	sb	s2,0(s0)
    242c:	208a                	lhu	a0,0(s1)
    242e:	4581                	li	a1,0
    2430:	d66ff0ef          	jal	ra,1996 <ETH_ReadPHYRegister>
    2434:	ffe57613          	andi	a2,a0,-2
    2438:	0642                	slli	a2,a2,0x10
    243a:	208a                	lhu	a0,0(s1)
    243c:	8241                	srli	a2,a2,0x10
    243e:	20066613          	ori	a2,a2,512
    2442:	4581                	li	a1,0
    2444:	daaff0ef          	jal	ra,19ee <ETH_WritePHYRegister>
    2448:	208a                	lhu	a0,0(s1)
    244a:	4581                	li	a1,0
    244c:	d4aff0ef          	jal	ra,1996 <ETH_ReadPHYRegister>
    2450:	20356613          	ori	a2,a0,515
    2454:	0642                	slli	a2,a2,0x10
    2456:	8241                	srli	a2,a2,0x10
    2458:	4581                	li	a1,0
    245a:	208a                	lhu	a0,0(s1)
    245c:	b705                	j	237c <WCHNET_LinkProcess+0x1be>
    245e:	82118993          	addi	s3,gp,-2015 # 20000121 <phyPN>
    2462:	0009c703          	lbu	a4,0(s3)
    2466:	e71d                	bnez	a4,2494 <WCHNET_LinkProcess+0x2d6>
    2468:	4711                	li	a4,4
    246a:	f8ea9be3          	bne	s5,a4,2400 <WCHNET_LinkProcess+0x242>
    246e:	208a                	lhu	a0,0(s1)
    2470:	45f9                	li	a1,30
    2472:	00040023          	sb	zero,0(s0)
    2476:	d20ff0ef          	jal	ra,1996 <ETH_ReadPHYRegister>
    247a:	0f357613          	andi	a2,a0,243
    247e:	208a                	lhu	a0,0(s1)
    2480:	00466613          	ori	a2,a2,4
    2484:	45f9                	li	a1,30
    2486:	00c98023          	sb	a2,0(s3)
    248a:	d64ff0ef          	jal	ra,19ee <ETH_WritePHYRegister>
    248e:	01598023          	sb	s5,0(s3)
    2492:	bf69                	j	242c <WCHNET_LinkProcess+0x26e>
    2494:	4691                	li	a3,4
    2496:	02d71863          	bne	a4,a3,24c6 <WCHNET_LinkProcess+0x308>
    249a:	473d                	li	a4,15
    249c:	f6ea92e3          	bne	s5,a4,2400 <WCHNET_LinkProcess+0x242>
    24a0:	208a                	lhu	a0,0(s1)
    24a2:	00040023          	sb	zero,0(s0)
    24a6:	4421                	li	s0,8
    24a8:	4621                	li	a2,8
    24aa:	45f9                	li	a1,30
    24ac:	900184a3          	sb	zero,-1783(gp) # 20000209 <phySucCnt>
    24b0:	00090023          	sb	zero,0(s2)
    24b4:	000a0023          	sb	zero,0(s4)
    24b8:	00898023          	sb	s0,0(s3)
    24bc:	d32ff0ef          	jal	ra,19ee <ETH_WritePHYRegister>
    24c0:	00898023          	sb	s0,0(s3)
    24c4:	b7a5                	j	242c <WCHNET_LinkProcess+0x26e>
    24c6:	a01c                	sb	a5,0(s0)
    24c8:	06400793          	li	a5,100
    24cc:	dafa93e3          	bne	s5,a5,2272 <WCHNET_LinkProcess+0xb4>
    24d0:	208a                	lhu	a0,0(s1)
    24d2:	6621                	lui	a2,0x8
    24d4:	4581                	li	a1,0
    24d6:	d18ff0ef          	jal	ra,19ee <ETH_WritePHYRegister>
    24da:	90018423          	sb	zero,-1784(gp) # 20000208 <phyStatus>
    24de:	900184a3          	sb	zero,-1783(gp) # 20000209 <phySucCnt>
    24e2:	200007b7          	lui	a5,0x20000
    24e6:	1e078423          	sb	zero,488(a5) # 200001e8 <PhyPolarityDetect>
    24ea:	47a1                	li	a5,8
    24ec:	00040023          	sb	zero,0(s0)
    24f0:	00090023          	sb	zero,0(s2)
    24f4:	000a0023          	sb	zero,0(s4)
    24f8:	00f98023          	sb	a5,0(s3)
    24fc:	4621                	li	a2,8
    24fe:	45f9                	li	a1,30
    2500:	bfa9                	j	245a <WCHNET_LinkProcess+0x29c>

00002502 <WCHNET_HandlePhyNegotiation>:
    2502:	814fe2ef          	jal	t0,516 <__riscv_save_0>
    2506:	90118793          	addi	a5,gp,-1791 # 20000201 <phyLinkReset>
    250a:	2398                	lbu	a4,0(a5)
    250c:	0ff77713          	andi	a4,a4,255
    2510:	cb2d                	beqz	a4,2582 <WCHNET_HandlePhyNegotiation+0x80>
    2512:	20000737          	lui	a4,0x20000
    2516:	1e472703          	lw	a4,484(a4) # 200001e4 <LocalTime>
    251a:	9041a683          	lw	a3,-1788(gp) # 20000204 <phyLinkTime>
    251e:	8f15                	sub	a4,a4,a3
    2520:	1f300693          	li	a3,499
    2524:	04e6fd63          	bgeu	a3,a4,257e <WCHNET_HandlePhyNegotiation+0x7c>
    2528:	40024737          	lui	a4,0x40024
    252c:	00078023          	sb	zero,0(a5)
    2530:	80072783          	lw	a5,-2048(a4) # 40023800 <__freertos_irq_stack_top+0x20013800>
    2534:	20000437          	lui	s0,0x20000
    2538:	1f440413          	addi	s0,s0,500 # 200001f4 <gPHYAddress>
    253c:	200a                	lhu	a0,0(s0)
    253e:	0047e793          	ori	a5,a5,4
    2542:	80f72023          	sw	a5,-2048(a4)
    2546:	6621                	lui	a2,0x8
    2548:	4581                	li	a1,0
    254a:	ca4ff0ef          	jal	ra,19ee <ETH_WritePHYRegister>
    254e:	90018423          	sb	zero,-1784(gp) # 20000208 <phyStatus>
    2552:	900184a3          	sb	zero,-1783(gp) # 20000209 <phySucCnt>
    2556:	90018023          	sb	zero,-1792(gp) # 20000200 <phyLinkCnt>
    255a:	200007b7          	lui	a5,0x20000
    255e:	1e078923          	sb	zero,498(a5) # 200001f2 <TRDetectStep>
    2562:	200a                	lhu	a0,0(s0)
    2564:	200007b7          	lui	a5,0x20000
    2568:	1e078423          	sb	zero,488(a5) # 200001e8 <PhyPolarityDetect>
    256c:	90018123          	sb	zero,-1790(gp) # 20000202 <phyLinkStatus>
    2570:	4721                	li	a4,8
    2572:	4621                	li	a2,8
    2574:	45f9                	li	a1,30
    2576:	82e180a3          	sb	a4,-2015(gp) # 20000121 <phyPN>
    257a:	c74ff0ef          	jal	ra,19ee <ETH_WritePHYRegister>
    257e:	fbdfd06f          	j	53a <__riscv_restore_0>
    2582:	90818913          	addi	s2,gp,-1784 # 20000208 <phyStatus>
    2586:	00094783          	lbu	a5,0(s2)
    258a:	20000437          	lui	s0,0x20000
    258e:	1f040413          	addi	s0,s0,496 # 200001f0 <ReInitMACFlag>
    2592:	e3c5                	bnez	a5,2632 <WCHNET_HandlePhyNegotiation+0x130>
    2594:	200007b7          	lui	a5,0x20000
    2598:	1f27c683          	lbu	a3,498(a5) # 200001f2 <TRDetectStep>
    259c:	4705                	li	a4,1
    259e:	1f278913          	addi	s2,a5,498
    25a2:	82018493          	addi	s1,gp,-2016 # 20000120 <LinkTaskPeriod>
    25a6:	00d76d63          	bltu	a4,a3,25c0 <WCHNET_HandlePhyNegotiation+0xbe>
    25aa:	200007b7          	lui	a5,0x20000
    25ae:	1f47d503          	lhu	a0,500(a5) # 200001f4 <gPHYAddress>
    25b2:	4595                	li	a1,5
    25b4:	be2ff0ef          	jal	ra,1996 <ETH_ReadPHYRegister>
    25b8:	897d                	andi	a0,a0,31
    25ba:	c119                	beqz	a0,25c0 <WCHNET_HandlePhyNegotiation+0xbe>
    25bc:	00048023          	sb	zero,0(s1)
    25c0:	20000737          	lui	a4,0x20000
    25c4:	1e470793          	addi	a5,a4,484 # 200001e4 <LocalTime>
    25c8:	4390                	lw	a2,0(a5)
    25ca:	90418693          	addi	a3,gp,-1788 # 20000204 <phyLinkTime>
    25ce:	4294                	lw	a3,0(a3)
    25d0:	208c                	lbu	a1,0(s1)
    25d2:	8e15                	sub	a2,a2,a3
    25d4:	1e470693          	addi	a3,a4,484
    25d8:	90418713          	addi	a4,gp,-1788 # 20000204 <phyLinkTime>
    25dc:	04b66363          	bltu	a2,a1,2622 <WCHNET_HandlePhyNegotiation+0x120>
    25e0:	00094603          	lbu	a2,0(s2)
    25e4:	4785                	li	a5,1
    25e6:	04f61363          	bne	a2,a5,262c <WCHNET_HandlePhyNegotiation+0x12a>
    25ea:	20000637          	lui	a2,0x20000
    25ee:	1ec60613          	addi	a2,a2,492 # 200001ec <RandVal>
    25f2:	421c                	lw	a5,0(a2)
    25f4:	000345b7          	lui	a1,0x34
    25f8:	40158593          	addi	a1,a1,1025 # 34401 <_data_lma+0x276e1>
    25fc:	02b787b3          	mul	a5,a5,a1
    2600:	0026a5b7          	lui	a1,0x26a
    2604:	ec958593          	addi	a1,a1,-311 # 269ec9 <_data_lma+0x25d1a9>
    2608:	97ae                	add	a5,a5,a1
    260a:	c21c                	sw	a5,0(a2)
    260c:	06400613          	li	a2,100
    2610:	02c7f7b3          	remu	a5,a5,a2
    2614:	03278793          	addi	a5,a5,50
    2618:	a09c                	sb	a5,0(s1)
    261a:	429c                	lw	a5,0(a3)
    261c:	c31c                	sw	a5,0(a4)
    261e:	ba1ff0ef          	jal	ra,21be <WCHNET_LinkProcess>
    2622:	201c                	lbu	a5,0(s0)
    2624:	dfa9                	beqz	a5,257e <WCHNET_HandlePhyNegotiation+0x7c>
    2626:	00040023          	sb	zero,0(s0)
    262a:	bf91                	j	257e <WCHNET_HandlePhyNegotiation+0x7c>
    262c:	03200793          	li	a5,50
    2630:	b7e5                	j	2618 <WCHNET_HandlePhyNegotiation+0x116>
    2632:	201c                	lbu	a5,0(s0)
    2634:	200004b7          	lui	s1,0x20000
    2638:	1e848493          	addi	s1,s1,488 # 200001e8 <PhyPolarityDetect>
    263c:	c7b5                	beqz	a5,26a8 <WCHNET_HandlePhyNegotiation+0x1a6>
    263e:	200007b7          	lui	a5,0x20000
    2642:	1e47a783          	lw	a5,484(a5) # 200001e4 <LocalTime>
    2646:	9041a703          	lw	a4,-1788(gp) # 20000204 <phyLinkTime>
    264a:	8f99                	sub	a5,a5,a4
    264c:	0f900713          	li	a4,249
    2650:	04f77c63          	bgeu	a4,a5,26a8 <WCHNET_HandlePhyNegotiation+0x1a6>
    2654:	00040023          	sb	zero,0(s0)
    2658:	20000437          	lui	s0,0x20000
    265c:	1f440413          	addi	s0,s0,500 # 200001f4 <gPHYAddress>
    2660:	200a                	lhu	a0,0(s0)
    2662:	4585                	li	a1,1
    2664:	b32ff0ef          	jal	ra,1996 <ETH_ReadPHYRegister>
    2668:	00457793          	andi	a5,a0,4
    266c:	ef95                	bnez	a5,26a8 <WCHNET_HandlePhyNegotiation+0x1a6>
    266e:	622020ef          	jal	ra,4c90 <WCHNET_PhyStatus>
    2672:	200a                	lhu	a0,0(s0)
    2674:	6621                	lui	a2,0x8
    2676:	4581                	li	a1,0
    2678:	b76ff0ef          	jal	ra,19ee <ETH_WritePHYRegister>
    267c:	900184a3          	sb	zero,-1783(gp) # 20000209 <phySucCnt>
    2680:	90018023          	sb	zero,-1792(gp) # 20000200 <phyLinkCnt>
    2684:	200a                	lhu	a0,0(s0)
    2686:	200007b7          	lui	a5,0x20000
    268a:	1e078923          	sb	zero,498(a5) # 200001f2 <TRDetectStep>
    268e:	90018123          	sb	zero,-1790(gp) # 20000202 <phyLinkStatus>
    2692:	4721                	li	a4,8
    2694:	4621                	li	a2,8
    2696:	45f9                	li	a1,30
    2698:	00090023          	sb	zero,0(s2)
    269c:	00048023          	sb	zero,0(s1)
    26a0:	82e180a3          	sb	a4,-2015(gp) # 20000121 <phyPN>
    26a4:	b4aff0ef          	jal	ra,19ee <ETH_WritePHYRegister>
    26a8:	209c                	lbu	a5,0(s1)
    26aa:	ec078ae3          	beqz	a5,257e <WCHNET_HandlePhyNegotiation+0x7c>
    26ae:	200007b7          	lui	a5,0x20000
    26b2:	20000737          	lui	a4,0x20000
    26b6:	1e072703          	lw	a4,480(a4) # 200001e0 <LinkSuccTime>
    26ba:	1e47a783          	lw	a5,484(a5) # 200001e4 <LocalTime>
    26be:	8f99                	sub	a5,a5,a4
    26c0:	06300713          	li	a4,99
    26c4:	eaf77de3          	bgeu	a4,a5,257e <WCHNET_HandlePhyNegotiation+0x7c>
    26c8:	a3bff0ef          	jal	ra,2102 <WCHNET_PhyPNProcess>
    26cc:	bd4d                	j	257e <WCHNET_HandlePhyNegotiation+0x7c>

000026ce <ETH_LedConfiguration>:
    26ce:	e49fd2ef          	jal	t0,516 <__riscv_save_0>
    26d2:	1141                	addi	sp,sp,-16
    26d4:	4585                	li	a1,1
    26d6:	4541                	li	a0,16
    26d8:	c202                	sw	zero,4(sp)
    26da:	c402                	sw	zero,8(sp)
    26dc:	c602                	sw	zero,12(sp)
    26de:	ed6ff0ef          	jal	ra,1db4 <RCC_APB2PeriphClockCmd>
    26e2:	478d                	li	a5,3
    26e4:	827c                	sh	a5,4(sp)
    26e6:	47c1                	li	a5,16
    26e8:	c63e                	sw	a5,12(sp)
    26ea:	004c                	addi	a1,sp,4
    26ec:	478d                	li	a5,3
    26ee:	40011537          	lui	a0,0x40011
    26f2:	c43e                	sw	a5,8(sp)
    26f4:	c62ff0ef          	jal	ra,1b56 <GPIO_Init>
    26f8:	6585                	lui	a1,0x1
    26fa:	80058593          	addi	a1,a1,-2048 # 800 <__stack_size>
    26fe:	40011537          	lui	a0,0x40011
    2702:	17f000ef          	jal	ra,3080 <HAL_SetBit>
    2706:	40000593          	li	a1,1024
    270a:	40011537          	lui	a0,0x40011
    270e:	173000ef          	jal	ra,3080 <HAL_SetBit>
    2712:	0141                	addi	sp,sp,16
    2714:	e27fd06f          	j	53a <__riscv_restore_0>

00002718 <ETH_SetClock>:
    2718:	dfffd2ef          	jal	t0,516 <__riscv_save_0>
    271c:	4501                	li	a0,0
    271e:	f22ff0ef          	jal	ra,1e40 <RCC_PLL3Cmd>
    2722:	4541                	li	a0,16
    2724:	efaff0ef          	jal	ra,1e1e <RCC_PREDIV2Config>
    2728:	6535                	lui	a0,0xd
    272a:	f04ff0ef          	jal	ra,1e2e <RCC_PLL3Config>
    272e:	4505                	li	a0,1
    2730:	f10ff0ef          	jal	ra,1e40 <RCC_PLL3Cmd>
    2734:	03d00513          	li	a0,61
    2738:	eb8ff0ef          	jal	ra,1df0 <RCC_GetFlagStatus>
    273c:	dd65                	beqz	a0,2734 <ETH_SetClock+0x1c>
    273e:	dfdfd06f          	j	53a <__riscv_restore_0>

00002742 <ETH_PHYLink>:
    2742:	dd5fd2ef          	jal	t0,516 <__riscv_save_0>
    2746:	20000937          	lui	s2,0x20000
    274a:	1f490413          	addi	s0,s2,500 # 200001f4 <gPHYAddress>
    274e:	200a                	lhu	a0,0(s0)
    2750:	4595                	li	a1,5
    2752:	1f490913          	addi	s2,s2,500
    2756:	a40ff0ef          	jal	ra,1996 <ETH_ReadPHYRegister>
    275a:	84aa                	mv	s1,a0
    275c:	200a                	lhu	a0,0(s0)
    275e:	4585                	li	a1,1
    2760:	a36ff0ef          	jal	ra,1996 <ETH_ReadPHYRegister>
    2764:	00457793          	andi	a5,a0,4
    2768:	842a                	mv	s0,a0
    276a:	c785                	beqz	a5,2792 <ETH_PHYLink+0x50>
    276c:	e09d                	bnez	s1,2792 <ETH_PHYLink+0x50>
    276e:	40024737          	lui	a4,0x40024
    2772:	80072783          	lw	a5,-2048(a4) # 40023800 <__freertos_irq_stack_top+0x20013800>
    2776:	9bed                	andi	a5,a5,-5
    2778:	80f72023          	sw	a5,-2048(a4)
    277c:	4705                	li	a4,1
    277e:	90e180a3          	sb	a4,-1791(gp) # 20000201 <phyLinkReset>
    2782:	200007b7          	lui	a5,0x20000
    2786:	1e47a703          	lw	a4,484(a5) # 200001e4 <LocalTime>
    278a:	90e1a223          	sw	a4,-1788(gp) # 20000204 <phyLinkTime>
    278e:	dadfd06f          	j	53a <__riscv_restore_0>
    2792:	8522                	mv	a0,s0
    2794:	4fc020ef          	jal	ra,4c90 <WCHNET_PhyStatus>
    2798:	02447413          	andi	s0,s0,36
    279c:	02400793          	li	a5,36
    27a0:	0af41263          	bne	s0,a5,2844 <ETH_PHYLink+0x102>
    27a4:	00095503          	lhu	a0,0(s2)
    27a8:	45c1                	li	a1,16
    27aa:	9ecff0ef          	jal	ra,1996 <ETH_ReadPHYRegister>
    27ae:	8911                	andi	a0,a0,4
    27b0:	400286b7          	lui	a3,0x40028
    27b4:	e519                	bnez	a0,27c2 <ETH_PHYLink+0x80>
    27b6:	88fd                	andi	s1,s1,31
    27b8:	4785                	li	a5,1
    27ba:	400286b7          	lui	a3,0x40028
    27be:	06f48d63          	beq	s1,a5,2838 <ETH_PHYLink+0xf6>
    27c2:	429c                	lw	a5,0(a3)
    27c4:	6705                	lui	a4,0x1
    27c6:	80070713          	addi	a4,a4,-2048 # 800 <__stack_size>
    27ca:	8fd9                	or	a5,a5,a4
    27cc:	c29c                	sw	a5,0(a3)
    27ce:	400287b7          	lui	a5,0x40028
    27d2:	4398                	lw	a4,0(a5)
    27d4:	76d1                	lui	a3,0xffff4
    27d6:	16fd                	addi	a3,a3,-1
    27d8:	8f75                	and	a4,a4,a3
    27da:	c398                	sw	a4,0(a5)
    27dc:	4691                	li	a3,4
    27de:	90d18423          	sb	a3,-1784(gp) # 20000208 <phyStatus>
    27e2:	43d8                	lw	a4,4(a5)
    27e4:	800006b7          	lui	a3,0x80000
    27e8:	0685                	addi	a3,a3,1
    27ea:	8f55                	or	a4,a4,a3
    27ec:	c3d8                	sw	a4,4(a5)
    27ee:	1007a703          	lw	a4,256(a5) # 40028100 <__freertos_irq_stack_top+0x20018100>
    27f2:	00176713          	ori	a4,a4,1
    27f6:	10e7a023          	sw	a4,256(a5)
    27fa:	40028737          	lui	a4,0x40028
    27fe:	10072783          	lw	a5,256(a4) # 40028100 <__freertos_irq_stack_top+0x20018100>
    2802:	8b85                	andi	a5,a5,1
    2804:	ffed                	bnez	a5,27fe <ETH_PHYLink+0xbc>
    2806:	200007b7          	lui	a5,0x20000
    280a:	4705                	li	a4,1
    280c:	1ee78423          	sb	a4,488(a5) # 200001e8 <PhyPolarityDetect>
    2810:	200007b7          	lui	a5,0x20000
    2814:	1e47a703          	lw	a4,484(a5) # 200001e4 <LocalTime>
    2818:	200007b7          	lui	a5,0x20000
    281c:	1ee7a023          	sw	a4,480(a5) # 200001e0 <LinkSuccTime>
    2820:	adcff0ef          	jal	ra,1afc <ETH_Start>
    2824:	400287b7          	lui	a5,0x40028
    2828:	439c                	lw	a5,0(a5)
    282a:	20000737          	lui	a4,0x20000
    282e:	83ad                	srli	a5,a5,0xb
    2830:	8b85                	andi	a5,a5,1
    2832:	1cf70e23          	sb	a5,476(a4) # 200001dc <DuplexMode>
    2836:	bfa1                	j	278e <ETH_PHYLink+0x4c>
    2838:	429c                	lw	a5,0(a3)
    283a:	777d                	lui	a4,0xfffff
    283c:	7ff70713          	addi	a4,a4,2047 # fffff7ff <__freertos_irq_stack_top+0xdffef7ff>
    2840:	8ff9                	and	a5,a5,a4
    2842:	b769                	j	27cc <ETH_PHYLink+0x8a>
    2844:	40024737          	lui	a4,0x40024
    2848:	80072783          	lw	a5,-2048(a4) # 40023800 <__freertos_irq_stack_top+0x20013800>
    284c:	9bed                	andi	a5,a5,-5
    284e:	80f72023          	sw	a5,-2048(a4)
    2852:	4705                	li	a4,1
    2854:	90e180a3          	sb	a4,-1791(gp) # 20000201 <phyLinkReset>
    2858:	200007b7          	lui	a5,0x20000
    285c:	1e47a703          	lw	a4,484(a5) # 200001e4 <LocalTime>
    2860:	90e1a223          	sw	a4,-1788(gp) # 20000204 <phyLinkTime>
    2864:	b7c1                	j	2824 <ETH_PHYLink+0xe2>

00002866 <ReInitMACReg>:
    2866:	c97fd2ef          	jal	t0,4fc <__riscv_save_4>
    286a:	7131                	addi	sp,sp,-192
    286c:	40029637          	lui	a2,0x40029
    2870:	007006b7          	lui	a3,0x700
    2874:	00600737          	lui	a4,0x600
    2878:	4a5c                	lw	a5,20(a2)
    287a:	8ff5                	and	a5,a5,a3
    287c:	fee79ee3          	bne	a5,a4,2878 <ReInitMACReg+0x12>
    2880:	9081c783          	lbu	a5,-1784(gp) # 20000208 <phyStatus>
    2884:	90818493          	addi	s1,gp,-1784 # 20000208 <phyStatus>
    2888:	cb85                	beqz	a5,28b8 <ReInitMACReg+0x52>
    288a:	20000437          	lui	s0,0x20000
    288e:	1f445503          	lhu	a0,500(s0) # 200001f4 <gPHYAddress>
    2892:	45f9                	li	a1,30
    2894:	1f440413          	addi	s0,s0,500
    2898:	8feff0ef          	jal	ra,1996 <ETH_ReadPHYRegister>
    289c:	ffc57613          	andi	a2,a0,-4
    28a0:	0642                	slli	a2,a2,0x10
    28a2:	00157793          	andi	a5,a0,1
    28a6:	8241                	srli	a2,a2,0x10
    28a8:	24078863          	beqz	a5,2af8 <ReInitMACReg+0x292>
    28ac:	00266613          	ori	a2,a2,2
    28b0:	200a                	lhu	a0,0(s0)
    28b2:	45f9                	li	a1,30
    28b4:	93aff0ef          	jal	ra,19ee <ETH_WritePHYRegister>
    28b8:	6409                	lui	s0,0x2
    28ba:	a1cff0ef          	jal	ra,1ad6 <ETH_SoftwareReset>
    28be:	71040413          	addi	s0,s0,1808 # 2710 <ETH_LedConfiguration+0x42>
    28c2:	40029937          	lui	s2,0x40029
    28c6:	147d                	addi	s0,s0,-1
    28c8:	0442                	slli	s0,s0,0x10
    28ca:	4529                	li	a0,10
    28cc:	8041                	srli	s0,s0,0x10
    28ce:	0b2020ef          	jal	ra,4980 <Delay_Us>
    28d2:	c409                	beqz	s0,28dc <ReInitMACReg+0x76>
    28d4:	00092783          	lw	a5,0(s2) # 40029000 <__freertos_irq_stack_top+0x20019000>
    28d8:	8b85                	andi	a5,a5,1
    28da:	f7f5                	bnez	a5,28c6 <ReInitMACReg+0x60>
    28dc:	0048                	addi	a0,sp,4
    28de:	fe1fe0ef          	jal	ra,18be <ETH_StructInit>
    28e2:	4785                	li	a5,1
    28e4:	c23e                	sw	a5,4(sp)
    28e6:	20000793          	li	a5,512
    28ea:	d63e                	sw	a5,44(sp)
    28ec:	020007b7          	lui	a5,0x2000
    28f0:	c53e                	sw	a5,136(sp)
    28f2:	6685                	lui	a3,0x1
    28f4:	08000793          	li	a5,128
    28f8:	cd3e                	sw	a5,152(sp)
    28fa:	00200737          	lui	a4,0x200
    28fe:	80068913          	addi	s2,a3,-2048 # 800 <__stack_size>
    2902:	04000793          	li	a5,64
    2906:	40028437          	lui	s0,0x40028
    290a:	c93a                	sw	a4,144(sp)
    290c:	d24a                	sw	s2,36(sp)
    290e:	cc02                	sw	zero,24(sp)
    2910:	d002                	sw	zero,32(sp)
    2912:	d802                	sw	zero,48(sp)
    2914:	de02                	sw	zero,60(sp)
    2916:	c482                	sw	zero,72(sp)
    2918:	c882                	sw	zero,80(sp)
    291a:	ca82                	sw	zero,84(sp)
    291c:	cc82                	sw	zero,88(sp)
    291e:	c302                	sw	zero,132(sp)
    2920:	cf3e                	sw	a5,156(sp)
    2922:	d302                	sw	zero,164(sp)
    2924:	481c                	lw	a5,16(s0)
    2926:	a0168693          	addi	a3,a3,-1535
    292a:	80018537          	lui	a0,0x80018
    292e:	9b8d                	andi	a5,a5,-29
    2930:	c81c                	sw	a5,16(s0)
    2932:	45b2                	lw	a1,12(sp)
    2934:	47a2                	lw	a5,8(sp)
    2936:	4010                	lw	a2,0(s0)
    2938:	0c150513          	addi	a0,a0,193 # 800180c1 <__freertos_irq_stack_top+0x600080c1>
    293c:	8fcd                	or	a5,a5,a1
    293e:	ff2085b7          	lui	a1,0xff208
    2942:	10f58593          	addi	a1,a1,271 # ff20810f <__freertos_irq_stack_top+0xdf1f810f>
    2946:	8e6d                	and	a2,a2,a1
    2948:	8fd1                	or	a5,a5,a2
    294a:	4642                	lw	a2,16(sp)
    294c:	400295b7          	lui	a1,0x40029
    2950:	8fd1                	or	a5,a5,a2
    2952:	4652                	lw	a2,20(sp)
    2954:	8fd1                	or	a5,a5,a2
    2956:	4672                	lw	a2,28(sp)
    2958:	8fd1                	or	a5,a5,a2
    295a:	5622                	lw	a2,40(sp)
    295c:	8fd1                	or	a5,a5,a2
    295e:	5652                	lw	a2,52(sp)
    2960:	8fd1                	or	a5,a5,a2
    2962:	5662                	lw	a2,56(sp)
    2964:	8fd1                	or	a5,a5,a2
    2966:	8fd5                	or	a5,a5,a3
    2968:	c01c                	sw	a5,0(s0)
    296a:	401c                	lw	a5,0(s0)
    296c:	001006b7          	lui	a3,0x100
    2970:	8fd5                	or	a5,a5,a3
    2972:	c01c                	sw	a5,0(s0)
    2974:	4786                	lw	a5,64(sp)
    2976:	4696                	lw	a3,68(sp)
    2978:	8fd5                	or	a5,a5,a3
    297a:	46b6                	lw	a3,76(sp)
    297c:	8fd5                	or	a5,a5,a3
    297e:	c05c                	sw	a5,4(s0)
    2980:	47f6                	lw	a5,92(sp)
    2982:	c41c                	sw	a5,8(s0)
    2984:	5786                	lw	a5,96(sp)
    2986:	c45c                	sw	a5,12(s0)
    2988:	5636                	lw	a2,108(sp)
    298a:	57a6                	lw	a5,104(sp)
    298c:	4c14                	lw	a3,24(s0)
    298e:	8fd1                	or	a5,a5,a2
    2990:	5646                	lw	a2,112(sp)
    2992:	8fd1                	or	a5,a5,a2
    2994:	5656                	lw	a2,116(sp)
    2996:	8fd1                	or	a5,a5,a2
    2998:	5666                	lw	a2,120(sp)
    299a:	8fd1                	or	a5,a5,a2
    299c:	6641                	lui	a2,0x10
    299e:	f4160613          	addi	a2,a2,-191 # ff41 <_data_lma+0x3221>
    29a2:	8ef1                	and	a3,a3,a2
    29a4:	8fd5                	or	a5,a5,a3
    29a6:	5696                	lw	a3,100(sp)
    29a8:	06c2                	slli	a3,a3,0x10
    29aa:	8fd5                	or	a5,a5,a3
    29ac:	cc1c                	sw	a5,24(s0)
    29ae:	468a                	lw	a3,128(sp)
    29b0:	57f6                	lw	a5,124(sp)
    29b2:	8fd5                	or	a5,a5,a3
    29b4:	cc5c                	sw	a5,28(s0)
    29b6:	465a                	lw	a2,148(sp)
    29b8:	47ba                	lw	a5,140(sp)
    29ba:	4d94                	lw	a3,24(a1)
    29bc:	8fd1                	or	a5,a5,a2
    29be:	f8de4637          	lui	a2,0xf8de4
    29c2:	f2360613          	addi	a2,a2,-221 # f8de3f23 <__freertos_irq_stack_top+0xd8dd3f23>
    29c6:	8ef1                	and	a3,a3,a2
    29c8:	8fd5                	or	a5,a5,a3
    29ca:	568a                	lw	a3,160(sp)
    29cc:	20000637          	lui	a2,0x20000
    29d0:	8fd5                	or	a5,a5,a3
    29d2:	022006b7          	lui	a3,0x2200
    29d6:	0c068693          	addi	a3,a3,192 # 22000c0 <_data_lma+0x21f33a0>
    29da:	8fd5                	or	a5,a5,a3
    29dc:	cd9c                	sw	a5,24(a1)
    29de:	18c60693          	addi	a3,a2,396 # 2000018c <MACAddr>
    29e2:	32dc                	lbu	a5,5(a3)
    29e4:	22cc                	lbu	a1,4(a3)
    29e6:	07a2                	slli	a5,a5,0x8
    29e8:	8fcd                	or	a5,a5,a1
    29ea:	c03c                	sw	a5,64(s0)
    29ec:	18d64683          	lbu	a3,397(a2)
    29f0:	18c64783          	lbu	a5,396(a2)
    29f4:	4585                	li	a1,1
    29f6:	06a2                	slli	a3,a3,0x8
    29f8:	8edd                	or	a3,a3,a5
    29fa:	18e64783          	lbu	a5,398(a2)
    29fe:	07c2                	slli	a5,a5,0x10
    2a00:	8edd                	or	a3,a3,a5
    2a02:	18f64783          	lbu	a5,399(a2)
    2a06:	07e2                	slli	a5,a5,0x18
    2a08:	8fd5                	or	a5,a5,a3
    2a0a:	c07c                	sw	a5,68(s0)
    2a0c:	000207b7          	lui	a5,0x20
    2a10:	10e42823          	sw	a4,272(s0) # 40028110 <__freertos_irq_stack_top+0x20018110>
    2a14:	02078793          	addi	a5,a5,32 # 20020 <_data_lma+0x13300>
    2a18:	10f42623          	sw	a5,268(s0)
    2a1c:	912ff0ef          	jal	ra,1b2e <ETH_DMAITConfig>
    2a20:	20004537          	lui	a0,0x20004
    2a24:	200065b7          	lui	a1,0x20006
    2a28:	8d450993          	addi	s3,a0,-1836 # 200038d4 <DMATxDscrTab>
    2a2c:	4609                	li	a2,2
    2a2e:	2f458593          	addi	a1,a1,756 # 200062f4 <MACTxBuf>
    2a32:	8d450513          	addi	a0,a0,-1836
    2a36:	80aff0ef          	jal	ra,1a40 <ETH_DMATxDescChainInit>
    2a3a:	20004537          	lui	a0,0x20004
    2a3e:	200045b7          	lui	a1,0x20004
    2a42:	86450a13          	addi	s4,a0,-1948 # 20003864 <DMARxDscrTab>
    2a46:	461d                	li	a2,7
    2a48:	8f458593          	addi	a1,a1,-1804 # 200038f4 <MACRxBuf>
    2a4c:	86450513          	addi	a0,a0,-1948
    2a50:	836ff0ef          	jal	ra,1a86 <ETH_DMARxDescChainInit>
    2a54:	200007b7          	lui	a5,0x20000
    2a58:	1f47ac23          	sw	s4,504(a5) # 200001f8 <pDMARxSet>
    2a5c:	200007b7          	lui	a5,0x20000
    2a60:	1f37ae23          	sw	s3,508(a5) # 200001fc <pDMATxSet>
    2a64:	401c                	lw	a5,0(s0)
    2a66:	777d                	lui	a4,0xfffff
    2a68:	7ff70713          	addi	a4,a4,2047 # fffff7ff <__freertos_irq_stack_top+0xdffef7ff>
    2a6c:	8ff9                	and	a5,a5,a4
    2a6e:	c01c                	sw	a5,0(s0)
    2a70:	200007b7          	lui	a5,0x20000
    2a74:	1dc7c783          	lbu	a5,476(a5) # 200001dc <DuplexMode>
    2a78:	c791                	beqz	a5,2a84 <ReInitMACReg+0x21e>
    2a7a:	401c                	lw	a5,0(s0)
    2a7c:	0127e933          	or	s2,a5,s2
    2a80:	01242023          	sw	s2,0(s0)
    2a84:	400286b7          	lui	a3,0x40028
    2a88:	429c                	lw	a5,0(a3)
    2a8a:	7751                	lui	a4,0xffff4
    2a8c:	177d                	addi	a4,a4,-1
    2a8e:	8ff9                	and	a5,a5,a4
    2a90:	c29c                	sw	a5,0(a3)
    2a92:	86aff0ef          	jal	ra,1afc <ETH_Start>
    2a96:	209c                	lbu	a5,0(s1)
    2a98:	20000437          	lui	s0,0x20000
    2a9c:	1f440413          	addi	s0,s0,500 # 200001f4 <gPHYAddress>
    2aa0:	efb9                	bnez	a5,2afe <ReInitMACReg+0x298>
    2aa2:	200a                	lhu	a0,0(s0)
    2aa4:	6621                	lui	a2,0x8
    2aa6:	4581                	li	a1,0
    2aa8:	f47fe0ef          	jal	ra,19ee <ETH_WritePHYRegister>
    2aac:	900184a3          	sb	zero,-1783(gp) # 20000209 <phySucCnt>
    2ab0:	90018023          	sb	zero,-1792(gp) # 20000200 <phyLinkCnt>
    2ab4:	200007b7          	lui	a5,0x20000
    2ab8:	1e078923          	sb	zero,498(a5) # 200001f2 <TRDetectStep>
    2abc:	200a                	lhu	a0,0(s0)
    2abe:	200007b7          	lui	a5,0x20000
    2ac2:	1e078423          	sb	zero,488(a5) # 200001e8 <PhyPolarityDetect>
    2ac6:	90018123          	sb	zero,-1790(gp) # 20000202 <phyLinkStatus>
    2aca:	4721                	li	a4,8
    2acc:	4621                	li	a2,8
    2ace:	45f9                	li	a1,30
    2ad0:	00048023          	sb	zero,0(s1)
    2ad4:	82e180a3          	sb	a4,-2015(gp) # 20000121 <phyPN>
    2ad8:	f17fe0ef          	jal	ra,19ee <ETH_WritePHYRegister>
    2adc:	200007b7          	lui	a5,0x20000
    2ae0:	4705                	li	a4,1
    2ae2:	1ee78823          	sb	a4,496(a5) # 200001f0 <ReInitMACFlag>
    2ae6:	200007b7          	lui	a5,0x20000
    2aea:	1e47a703          	lw	a4,484(a5) # 200001e4 <LocalTime>
    2aee:	90e1a223          	sw	a4,-1788(gp) # 20000204 <phyLinkTime>
    2af2:	6129                	addi	sp,sp,192
    2af4:	a3dfd06f          	j	530 <__riscv_restore_4>
    2af8:	00166613          	ori	a2,a2,1
    2afc:	bb55                	j	28b0 <ReInitMACReg+0x4a>
    2afe:	200a                	lhu	a0,0(s0)
    2b00:	45f9                	li	a1,30
    2b02:	e95fe0ef          	jal	ra,1996 <ETH_ReadPHYRegister>
    2b06:	ffc57613          	andi	a2,a0,-4
    2b0a:	0642                	slli	a2,a2,0x10
    2b0c:	00157793          	andi	a5,a0,1
    2b10:	8241                	srli	a2,a2,0x10
    2b12:	cb91                	beqz	a5,2b26 <ReInitMACReg+0x2c0>
    2b14:	00266613          	ori	a2,a2,2
    2b18:	200a                	lhu	a0,0(s0)
    2b1a:	45f9                	li	a1,30
    2b1c:	ed3fe0ef          	jal	ra,19ee <ETH_WritePHYRegister>
    2b20:	209c                	lbu	a5,0(s1)
    2b22:	ffcd                	bnez	a5,2adc <ReInitMACReg+0x276>
    2b24:	bfbd                	j	2aa2 <ReInitMACReg+0x23c>
    2b26:	00166613          	ori	a2,a2,1
    2b2a:	b7fd                	j	2b18 <ReInitMACReg+0x2b2>

00002b2c <WCHNET_RecProcess>:
    2b2c:	200007b7          	lui	a5,0x20000
    2b30:	1d87a783          	lw	a5,472(a5) # 200001d8 <ChipId>
    2b34:	02000713          	li	a4,32
    2b38:	0f07f793          	andi	a5,a5,240
    2b3c:	00e79f63          	bne	a5,a4,2b5a <WCHNET_RecProcess+0x2e>
    2b40:	400297b7          	lui	a5,0x40029
    2b44:	539c                	lw	a5,32(a5)
    2b46:	1ffe0737          	lui	a4,0x1ffe0
    2b4a:	8ff9                	and	a5,a5,a4
    2b4c:	c799                	beqz	a5,2b5a <WCHNET_RecProcess+0x2e>
    2b4e:	9c9fd2ef          	jal	t0,516 <__riscv_save_0>
    2b52:	d15ff0ef          	jal	ra,2866 <ReInitMACReg>
    2b56:	9e5fd06f          	j	53a <__riscv_restore_0>
    2b5a:	8082                	ret

00002b5c <WCHNET_MainTask>:
    2b5c:	9bbfd2ef          	jal	t0,516 <__riscv_save_0>
    2b60:	11c020ef          	jal	ra,4c7c <WCHNET_NetInput>
    2b64:	75d010ef          	jal	ra,4ac0 <WCHNET_PeriodicHandle>
    2b68:	99bff0ef          	jal	ra,2502 <WCHNET_HandlePhyNegotiation>
    2b6c:	37c1                	jal	2b2c <WCHNET_RecProcess>
    2b6e:	9cdfd06f          	j	53a <__riscv_restore_0>

00002b72 <ETH_RegInit>:
    2b72:	9a5fd2ef          	jal	t0,516 <__riscv_save_0>
    2b76:	40028737          	lui	a4,0x40028
    2b7a:	4b1c                	lw	a5,16(a4)
    2b7c:	842e                	mv	s0,a1
    2b7e:	4581                	li	a1,0
    2b80:	9b8d                	andi	a5,a5,-29
    2b82:	cb1c                	sw	a5,16(a4)
    2b84:	4150                	lw	a2,4(a0)
    2b86:	411c                	lw	a5,0(a0)
    2b88:	4314                	lw	a3,0(a4)
    2b8a:	8fd1                	or	a5,a5,a2
    2b8c:	ff208637          	lui	a2,0xff208
    2b90:	10f60613          	addi	a2,a2,271 # ff20810f <__freertos_irq_stack_top+0xdf1f810f>
    2b94:	8ef1                	and	a3,a3,a2
    2b96:	8fd5                	or	a5,a5,a3
    2b98:	4514                	lw	a3,8(a0)
    2b9a:	8fd5                	or	a5,a5,a3
    2b9c:	4554                	lw	a3,12(a0)
    2b9e:	8fd5                	or	a5,a5,a3
    2ba0:	4914                	lw	a3,16(a0)
    2ba2:	8fd5                	or	a5,a5,a3
    2ba4:	4954                	lw	a3,20(a0)
    2ba6:	8fd5                	or	a5,a5,a3
    2ba8:	4d14                	lw	a3,24(a0)
    2baa:	8fd5                	or	a5,a5,a3
    2bac:	4d54                	lw	a3,28(a0)
    2bae:	8fd5                	or	a5,a5,a3
    2bb0:	5114                	lw	a3,32(a0)
    2bb2:	8fd5                	or	a5,a5,a3
    2bb4:	5154                	lw	a3,36(a0)
    2bb6:	8fd5                	or	a5,a5,a3
    2bb8:	5514                	lw	a3,40(a0)
    2bba:	8fd5                	or	a5,a5,a3
    2bbc:	5554                	lw	a3,44(a0)
    2bbe:	8fd5                	or	a5,a5,a3
    2bc0:	5914                	lw	a3,48(a0)
    2bc2:	8fd5                	or	a5,a5,a3
    2bc4:	5954                	lw	a3,52(a0)
    2bc6:	8fd5                	or	a5,a5,a3
    2bc8:	c31c                	sw	a5,0(a4)
    2bca:	431c                	lw	a5,0(a4)
    2bcc:	001006b7          	lui	a3,0x100
    2bd0:	8fd5                	or	a5,a5,a3
    2bd2:	c31c                	sw	a5,0(a4)
    2bd4:	5d54                	lw	a3,60(a0)
    2bd6:	5d1c                	lw	a5,56(a0)
    2bd8:	8fd5                	or	a5,a5,a3
    2bda:	4134                	lw	a3,64(a0)
    2bdc:	8fd5                	or	a5,a5,a3
    2bde:	4174                	lw	a3,68(a0)
    2be0:	8fd5                	or	a5,a5,a3
    2be2:	4534                	lw	a3,72(a0)
    2be4:	8fd5                	or	a5,a5,a3
    2be6:	4574                	lw	a3,76(a0)
    2be8:	8fd5                	or	a5,a5,a3
    2bea:	4934                	lw	a3,80(a0)
    2bec:	8fd5                	or	a5,a5,a3
    2bee:	4974                	lw	a3,84(a0)
    2bf0:	8fd5                	or	a5,a5,a3
    2bf2:	c35c                	sw	a5,4(a4)
    2bf4:	4d3c                	lw	a5,88(a0)
    2bf6:	c71c                	sw	a5,8(a4)
    2bf8:	4d7c                	lw	a5,92(a0)
    2bfa:	c75c                	sw	a5,12(a4)
    2bfc:	5530                	lw	a2,104(a0)
    2bfe:	517c                	lw	a5,100(a0)
    2c00:	4f14                	lw	a3,24(a4)
    2c02:	8fd1                	or	a5,a5,a2
    2c04:	6641                	lui	a2,0x10
    2c06:	f4160613          	addi	a2,a2,-191 # ff41 <_data_lma+0x3221>
    2c0a:	8ef1                	and	a3,a3,a2
    2c0c:	8fd5                	or	a5,a5,a3
    2c0e:	5574                	lw	a3,108(a0)
    2c10:	40029637          	lui	a2,0x40029
    2c14:	8fd5                	or	a5,a5,a3
    2c16:	5934                	lw	a3,112(a0)
    2c18:	8fd5                	or	a5,a5,a3
    2c1a:	5974                	lw	a3,116(a0)
    2c1c:	8fd5                	or	a5,a5,a3
    2c1e:	5134                	lw	a3,96(a0)
    2c20:	06c2                	slli	a3,a3,0x10
    2c22:	8fd5                	or	a5,a5,a3
    2c24:	cf1c                	sw	a5,24(a4)
    2c26:	5d74                	lw	a3,124(a0)
    2c28:	5d3c                	lw	a5,120(a0)
    2c2a:	8fd5                	or	a5,a5,a3
    2c2c:	cf5c                	sw	a5,28(a4)
    2c2e:	08452683          	lw	a3,132(a0)
    2c32:	08052783          	lw	a5,128(a0)
    2c36:	4e18                	lw	a4,24(a2)
    2c38:	8fd5                	or	a5,a5,a3
    2c3a:	f8de46b7          	lui	a3,0xf8de4
    2c3e:	f2368693          	addi	a3,a3,-221 # f8de3f23 <__freertos_irq_stack_top+0xd8dd3f23>
    2c42:	8f75                	and	a4,a4,a3
    2c44:	8fd9                	or	a5,a5,a4
    2c46:	08852703          	lw	a4,136(a0)
    2c4a:	8fd9                	or	a5,a5,a4
    2c4c:	08c52703          	lw	a4,140(a0)
    2c50:	8fd9                	or	a5,a5,a4
    2c52:	09052703          	lw	a4,144(a0)
    2c56:	8fd9                	or	a5,a5,a4
    2c58:	09452703          	lw	a4,148(a0)
    2c5c:	8fd9                	or	a5,a5,a4
    2c5e:	09852703          	lw	a4,152(a0)
    2c62:	8fd9                	or	a5,a5,a4
    2c64:	09c52703          	lw	a4,156(a0)
    2c68:	8fd9                	or	a5,a5,a4
    2c6a:	0a052703          	lw	a4,160(a0)
    2c6e:	8522                	mv	a0,s0
    2c70:	8fd9                	or	a5,a5,a4
    2c72:	ce1c                	sw	a5,24(a2)
    2c74:	6621                	lui	a2,0x8
    2c76:	d79fe0ef          	jal	ra,19ee <ETH_WritePHYRegister>
    2c7a:	4621                	li	a2,8
    2c7c:	45f9                	li	a1,30
    2c7e:	8522                	mv	a0,s0
    2c80:	d6ffe0ef          	jal	ra,19ee <ETH_WritePHYRegister>
    2c84:	4505                	li	a0,1
    2c86:	8b5fd06f          	j	53a <__riscv_restore_0>

00002c8a <ETH_Configuration>:
    2c8a:	873fd2ef          	jal	t0,4fc <__riscv_save_4>
    2c8e:	7131                	addi	sp,sp,-192
    2c90:	4585                	li	a1,1
    2c92:	84aa                	mv	s1,a0
    2c94:	6571                	lui	a0,0x1c
    2c96:	900ff0ef          	jal	ra,1d96 <RCC_AHBPeriphClockCmd>
    2c9a:	4785                	li	a5,1
    2c9c:	20000937          	lui	s2,0x20000
    2ca0:	1ef91a23          	sh	a5,500(s2) # 200001f4 <gPHYAddress>
    2ca4:	a75ff0ef          	jal	ra,2718 <ETH_SetClock>
    2ca8:	40024737          	lui	a4,0x40024
    2cac:	80072783          	lw	a5,-2048(a4) # 40023800 <__freertos_irq_stack_top+0x20013800>
    2cb0:	6409                	lui	s0,0x2
    2cb2:	71040413          	addi	s0,s0,1808 # 2710 <ETH_LedConfiguration+0x42>
    2cb6:	0047e793          	ori	a5,a5,4
    2cba:	80f72023          	sw	a5,-2048(a4)
    2cbe:	bedfe0ef          	jal	ra,18aa <ETH_DeInit>
    2cc2:	1f490913          	addi	s2,s2,500
    2cc6:	e11fe0ef          	jal	ra,1ad6 <ETH_SoftwareReset>
    2cca:	400299b7          	lui	s3,0x40029
    2cce:	147d                	addi	s0,s0,-1
    2cd0:	0442                	slli	s0,s0,0x10
    2cd2:	4529                	li	a0,10
    2cd4:	8041                	srli	s0,s0,0x10
    2cd6:	4ab010ef          	jal	ra,4980 <Delay_Us>
    2cda:	c409                	beqz	s0,2ce4 <ETH_Configuration+0x5a>
    2cdc:	0009a783          	lw	a5,0(s3) # 40029000 <__freertos_irq_stack_top+0x20019000>
    2ce0:	8b85                	andi	a5,a5,1
    2ce2:	f7f5                	bnez	a5,2cce <ETH_Configuration+0x44>
    2ce4:	0048                	addi	a0,sp,4
    2ce6:	bd9fe0ef          	jal	ra,18be <ETH_StructInit>
    2cea:	6785                	lui	a5,0x1
    2cec:	80078793          	addi	a5,a5,-2048 # 800 <__stack_size>
    2cf0:	d23e                	sw	a5,36(sp)
    2cf2:	4785                	li	a5,1
    2cf4:	c23e                	sw	a5,4(sp)
    2cf6:	20000793          	li	a5,512
    2cfa:	d63e                	sw	a5,44(sp)
    2cfc:	00095583          	lhu	a1,0(s2)
    2d00:	020007b7          	lui	a5,0x2000
    2d04:	c53e                	sw	a5,136(sp)
    2d06:	08000793          	li	a5,128
    2d0a:	00200437          	lui	s0,0x200
    2d0e:	cd3e                	sw	a5,152(sp)
    2d10:	0048                	addi	a0,sp,4
    2d12:	04000793          	li	a5,64
    2d16:	c922                	sw	s0,144(sp)
    2d18:	cf3e                	sw	a5,156(sp)
    2d1a:	cc02                	sw	zero,24(sp)
    2d1c:	d002                	sw	zero,32(sp)
    2d1e:	d802                	sw	zero,48(sp)
    2d20:	de02                	sw	zero,60(sp)
    2d22:	c882                	sw	zero,80(sp)
    2d24:	c482                	sw	zero,72(sp)
    2d26:	ca82                	sw	zero,84(sp)
    2d28:	cc82                	sw	zero,88(sp)
    2d2a:	c302                	sw	zero,132(sp)
    2d2c:	d302                	sw	zero,164(sp)
    2d2e:	3591                	jal	2b72 <ETH_RegInit>
    2d30:	30dc                	lbu	a5,5(s1)
    2d32:	20d8                	lbu	a4,4(s1)
    2d34:	400286b7          	lui	a3,0x40028
    2d38:	07a2                	slli	a5,a5,0x8
    2d3a:	8fd9                	or	a5,a5,a4
    2d3c:	c2bc                	sw	a5,64(a3)
    2d3e:	3098                	lbu	a4,1(s1)
    2d40:	209c                	lbu	a5,0(s1)
    2d42:	80018537          	lui	a0,0x80018
    2d46:	0722                	slli	a4,a4,0x8
    2d48:	8f5d                	or	a4,a4,a5
    2d4a:	20bc                	lbu	a5,2(s1)
    2d4c:	4585                	li	a1,1
    2d4e:	0c150513          	addi	a0,a0,193 # 800180c1 <__freertos_irq_stack_top+0x600080c1>
    2d52:	07c2                	slli	a5,a5,0x10
    2d54:	8f5d                	or	a4,a4,a5
    2d56:	30bc                	lbu	a5,3(s1)
    2d58:	07e2                	slli	a5,a5,0x18
    2d5a:	8fd9                	or	a5,a5,a4
    2d5c:	c2fc                	sw	a5,68(a3)
    2d5e:	000207b7          	lui	a5,0x20
    2d62:	1086a823          	sw	s0,272(a3) # 40028110 <__freertos_irq_stack_top+0x20018110>
    2d66:	02078793          	addi	a5,a5,32 # 20020 <_data_lma+0x13300>
    2d6a:	10f6a623          	sw	a5,268(a3)
    2d6e:	dc1fe0ef          	jal	ra,1b2e <ETH_DMAITConfig>
    2d72:	6129                	addi	sp,sp,192
    2d74:	fbcfd06f          	j	530 <__riscv_restore_4>

00002d78 <WCHNET_ETHIsr>:
    2d78:	f9efd2ef          	jal	t0,516 <__riscv_save_0>
    2d7c:	400297b7          	lui	a5,0x40029
    2d80:	4bc0                	lw	s0,20(a5)
    2d82:	01041713          	slli	a4,s0,0x10
    2d86:	02075c63          	bgez	a4,2dbe <WCHNET_ETHIsr+0x46>
    2d8a:	08047713          	andi	a4,s0,128
    2d8e:	c70d                	beqz	a4,2db8 <WCHNET_ETHIsr+0x40>
    2d90:	20000737          	lui	a4,0x20000
    2d94:	1d872703          	lw	a4,472(a4) # 200001d8 <ChipId>
    2d98:	46c1                	li	a3,16
    2d9a:	0f077713          	andi	a4,a4,240
    2d9e:	00d71963          	bne	a4,a3,2db0 <WCHNET_ETHIsr+0x38>
    2da2:	47f8                	lw	a4,76(a5)
    2da4:	800006b7          	lui	a3,0x80000
    2da8:	4758                	lw	a4,12(a4)
    2daa:	c314                	sw	a3,0(a4)
    2dac:	0007a423          	sw	zero,8(a5) # 40029008 <__freertos_irq_stack_top+0x20019008>
    2db0:	08000513          	li	a0,128
    2db4:	d31fe0ef          	jal	ra,1ae4 <ETH_DMAClearITPendingBit>
    2db8:	6521                	lui	a0,0x8
    2dba:	d2bfe0ef          	jal	ra,1ae4 <ETH_DMAClearITPendingBit>
    2dbe:	00f41793          	slli	a5,s0,0xf
    2dc2:	0207da63          	bgez	a5,2df6 <WCHNET_ETHIsr+0x7e>
    2dc6:	04047793          	andi	a5,s0,64
    2dca:	c789                	beqz	a5,2dd4 <WCHNET_ETHIsr+0x5c>
    2dcc:	04000513          	li	a0,64
    2dd0:	d15fe0ef          	jal	ra,1ae4 <ETH_DMAClearITPendingBit>
    2dd4:	00147793          	andi	a5,s0,1
    2dd8:	c781                	beqz	a5,2de0 <WCHNET_ETHIsr+0x68>
    2dda:	4505                	li	a0,1
    2ddc:	d09fe0ef          	jal	ra,1ae4 <ETH_DMAClearITPendingBit>
    2de0:	00045863          	bgez	s0,2df0 <WCHNET_ETHIsr+0x78>
    2de4:	95fff0ef          	jal	ra,2742 <ETH_PHYLink>
    2de8:	80000537          	lui	a0,0x80000
    2dec:	cf9fe0ef          	jal	ra,1ae4 <ETH_DMAClearITPendingBit>
    2df0:	6541                	lui	a0,0x10
    2df2:	cf3fe0ef          	jal	ra,1ae4 <ETH_DMAClearITPendingBit>
    2df6:	f44fd06f          	j	53a <__riscv_restore_0>

00002dfa <ETH_Init>:
    2dfa:	f1cfd2ef          	jal	t0,516 <__riscv_save_0>
    2dfe:	842a                	mv	s0,a0
    2e00:	06400513          	li	a0,100
    2e04:	3b3010ef          	jal	ra,49b6 <Delay_Ms>
    2e08:	a27fe0ef          	jal	ra,182e <DBGMCU_GetCHIPID>
    2e0c:	200007b7          	lui	a5,0x20000
    2e10:	1ca7ac23          	sw	a0,472(a5) # 200001d8 <ChipId>
    2e14:	8bbff0ef          	jal	ra,26ce <ETH_LedConfiguration>
    2e18:	303c                	lbu	a5,3(s0)
    2e1a:	2058                	lbu	a4,4(s0)
    2e1c:	8522                	mv	a0,s0
    2e1e:	8fb9                	xor	a5,a5,a4
    2e20:	3058                	lbu	a4,5(s0)
    2e22:	8fb9                	xor	a5,a5,a4
    2e24:	00034737          	lui	a4,0x34
    2e28:	40170713          	addi	a4,a4,1025 # 34401 <_data_lma+0x276e1>
    2e2c:	02e787b3          	mul	a5,a5,a4
    2e30:	0026a737          	lui	a4,0x26a
    2e34:	ec970713          	addi	a4,a4,-311 # 269ec9 <_data_lma+0x25d1a9>
    2e38:	97ba                	add	a5,a5,a4
    2e3a:	20000737          	lui	a4,0x20000
    2e3e:	1ef72623          	sw	a5,492(a4) # 200001ec <RandVal>
    2e42:	e49ff0ef          	jal	ra,2c8a <ETH_Configuration>
    2e46:	20004537          	lui	a0,0x20004
    2e4a:	200065b7          	lui	a1,0x20006
    2e4e:	8d450413          	addi	s0,a0,-1836 # 200038d4 <DMATxDscrTab>
    2e52:	4609                	li	a2,2
    2e54:	2f458593          	addi	a1,a1,756 # 200062f4 <MACTxBuf>
    2e58:	8d450513          	addi	a0,a0,-1836
    2e5c:	be5fe0ef          	jal	ra,1a40 <ETH_DMATxDescChainInit>
    2e60:	20004537          	lui	a0,0x20004
    2e64:	200045b7          	lui	a1,0x20004
    2e68:	86450493          	addi	s1,a0,-1948 # 20003864 <DMARxDscrTab>
    2e6c:	461d                	li	a2,7
    2e6e:	8f458593          	addi	a1,a1,-1804 # 200038f4 <MACRxBuf>
    2e72:	86450513          	addi	a0,a0,-1948
    2e76:	c11fe0ef          	jal	ra,1a86 <ETH_DMARxDescChainInit>
    2e7a:	200007b7          	lui	a5,0x20000
    2e7e:	1e97ac23          	sw	s1,504(a5) # 200001f8 <pDMARxSet>
    2e82:	200007b7          	lui	a5,0x20000
    2e86:	1e87ae23          	sw	s0,508(a5) # 200001fc <pDMATxSet>
    2e8a:	6709                	lui	a4,0x2
    2e8c:	e000e7b7          	lui	a5,0xe000e
    2e90:	10e7a423          	sw	a4,264(a5) # e000e108 <__freertos_irq_stack_top+0xbfffe108>
    2e94:	440786a3          	sb	zero,1101(a5)
    2e98:	ea2fd06f          	j	53a <__riscv_restore_0>

00002e9c <ETH_LibInit>:
    2e9c:	e7afd2ef          	jal	t0,516 <__riscv_save_0>
    2ea0:	7139                	addi	sp,sp,-64
    2ea2:	60000793          	li	a5,1536
    2ea6:	ca3e                	sw	a5,20(sp)
    2ea8:	5b400793          	li	a5,1460
    2eac:	cc3e                	sw	a5,24(sp)
    2eae:	6785                	lui	a5,0x1
    2eb0:	27478793          	addi	a5,a5,628 # 1274 <GPIO_Toggle_INIT+0xe>
    2eb4:	ce3e                	sw	a5,28(sp)
    2eb6:	03200793          	li	a5,50
    2eba:	d03e                	sw	a5,32(sp)
    2ebc:	10300793          	li	a5,259
    2ec0:	d23e                	sw	a5,36(sp)
    2ec2:	405527b7          	lui	a5,0x40552
    2ec6:	0789                	addi	a5,a5,2
    2ec8:	d43e                	sw	a5,40(sp)
    2eca:	000027b7          	lui	a5,0x2
    2ece:	0ae78793          	addi	a5,a5,174 # 20ae <ETH_LedLinkSet>
    2ed2:	d63e                	sw	a5,44(sp)
    2ed4:	000027b7          	lui	a5,0x2
    2ed8:	08878793          	addi	a5,a5,136 # 2088 <ETH_LedDataSet>
    2edc:	d83e                	sw	a5,48(sp)
    2ede:	000027b7          	lui	a5,0x2
    2ee2:	04478793          	addi	a5,a5,68 # 2044 <ETH_TxPktChainMode>
    2ee6:	da3e                	sw	a5,52(sp)
    2ee8:	123457b7          	lui	a5,0x12345
    2eec:	67878793          	addi	a5,a5,1656 # 12345678 <_data_lma+0x12338958>
    2ef0:	892a                	mv	s2,a0
    2ef2:	0848                	addi	a0,sp,20
    2ef4:	c62e                	sw	a1,12(sp)
    2ef6:	c432                	sw	a2,8(sp)
    2ef8:	84b6                	mv	s1,a3
    2efa:	dc02                	sw	zero,56(sp)
    2efc:	de3e                	sw	a5,60(sp)
    2efe:	488020ef          	jal	ra,5386 <WCHNET_ConfigLIB>
    2f02:	842a                	mv	s0,a0
    2f04:	e911                	bnez	a0,2f18 <ETH_LibInit+0x7c>
    2f06:	4622                	lw	a2,8(sp)
    2f08:	45b2                	lw	a1,12(sp)
    2f0a:	86a6                	mv	a3,s1
    2f0c:	854a                	mv	a0,s2
    2f0e:	3b6020ef          	jal	ra,52c4 <WCHNET_Init>
    2f12:	842a                	mv	s0,a0
    2f14:	8526                	mv	a0,s1
    2f16:	35d5                	jal	2dfa <ETH_Init>
    2f18:	8522                	mv	a0,s0
    2f1a:	6121                	addi	sp,sp,64
    2f1c:	e1efd06f          	j	53a <__riscv_restore_0>

00002f20 <xKeyboardQueue>:
    2f20:	90c18513          	addi	a0,gp,-1780 # 2000020c <pKeyboardQueue>
    2f24:	8082                	ret

00002f26 <ADC1_2_IRQHandler>:
    2f26:	715d                	addi	sp,sp,-80
    2f28:	dc2a                	sw	a0,56(sp)
    2f2a:	40013537          	lui	a0,0x40013
    2f2e:	da2e                	sw	a1,52(sp)
    2f30:	80050513          	addi	a0,a0,-2048 # 40012800 <__freertos_irq_stack_top+0x20002800>
    2f34:	22000593          	li	a1,544
    2f38:	c686                	sw	ra,76(sp)
    2f3a:	c496                	sw	t0,72(sp)
    2f3c:	c29a                	sw	t1,68(sp)
    2f3e:	c09e                	sw	t2,64(sp)
    2f40:	de22                	sw	s0,60(sp)
    2f42:	d832                	sw	a2,48(sp)
    2f44:	d636                	sw	a3,44(sp)
    2f46:	d43a                	sw	a4,40(sp)
    2f48:	d23e                	sw	a5,36(sp)
    2f4a:	d042                	sw	a6,32(sp)
    2f4c:	ce46                	sw	a7,28(sp)
    2f4e:	cc72                	sw	t3,24(sp)
    2f50:	ca76                	sw	t4,20(sp)
    2f52:	c87a                	sw	t5,16(sp)
    2f54:	c67e                	sw	t6,12(sp)
    2f56:	8b3fe0ef          	jal	ra,1808 <ADC_GetITStatus>
    2f5a:	c501                	beqz	a0,2f62 <ADC1_2_IRQHandler+0x3c>
    2f5c:	9141a783          	lw	a5,-1772(gp) # 20000214 <adcs>
    2f60:	9782                	jalr	a5
    2f62:	40012437          	lui	s0,0x40012
    2f66:	14000593          	li	a1,320
    2f6a:	40040513          	addi	a0,s0,1024 # 40012400 <__freertos_irq_stack_top+0x20002400>
    2f6e:	89bfe0ef          	jal	ra,1808 <ADC_GetITStatus>
    2f72:	c911                	beqz	a0,2f86 <ADC1_2_IRQHandler+0x60>
    2f74:	14000593          	li	a1,320
    2f78:	40040513          	addi	a0,s0,1024
    2f7c:	8a9fe0ef          	jal	ra,1824 <ADC_ClearITPendingBit>
    2f80:	9141a783          	lw	a5,-1772(gp) # 20000214 <adcs>
    2f84:	9782                	jalr	a5
    2f86:	5472                	lw	s0,60(sp)
    2f88:	40b6                	lw	ra,76(sp)
    2f8a:	42a6                	lw	t0,72(sp)
    2f8c:	4316                	lw	t1,68(sp)
    2f8e:	4386                	lw	t2,64(sp)
    2f90:	5562                	lw	a0,56(sp)
    2f92:	55d2                	lw	a1,52(sp)
    2f94:	5642                	lw	a2,48(sp)
    2f96:	56b2                	lw	a3,44(sp)
    2f98:	5722                	lw	a4,40(sp)
    2f9a:	5792                	lw	a5,36(sp)
    2f9c:	5802                	lw	a6,32(sp)
    2f9e:	48f2                	lw	a7,28(sp)
    2fa0:	4e62                	lw	t3,24(sp)
    2fa2:	4ed2                	lw	t4,20(sp)
    2fa4:	4f42                	lw	t5,16(sp)
    2fa6:	4fb2                	lw	t6,12(sp)
    2fa8:	6161                	addi	sp,sp,80
    2faa:	30200073          	mret

00002fae <DMA_IRQ>:
    2fae:	d68fd2ef          	jal	t0,516 <__riscv_save_0>
    2fb2:	00251413          	slli	s0,a0,0x2
    2fb6:	4509                	li	a0,2
    2fb8:	1141                	addi	sp,sp,-16
    2fba:	00851533          	sll	a0,a0,s0
    2fbe:	8d9fe0ef          	jal	ra,1896 <DMA_GetITStatus>
    2fc2:	4785                	li	a5,1
    2fc4:	00f51f63          	bne	a0,a5,2fe2 <DMA_IRQ+0x34>
    2fc8:	2000a7b7          	lui	a5,0x2000a
    2fcc:	fdc78793          	addi	a5,a5,-36 # 20009fdc <DMA_CALLback>
    2fd0:	97a2                	add	a5,a5,s0
    2fd2:	439c                	lw	a5,0(a5)
    2fd4:	c62a                	sw	a0,12(sp)
    2fd6:	9782                	jalr	a5
    2fd8:	4532                	lw	a0,12(sp)
    2fda:	00851533          	sll	a0,a0,s0
    2fde:	8c3fe0ef          	jal	ra,18a0 <DMA_ClearITPendingBit>
    2fe2:	0141                	addi	sp,sp,16
    2fe4:	d56fd06f          	j	53a <__riscv_restore_0>

00002fe8 <DMA1_Channel1_IRQHandler>:
    2fe8:	7139                	addi	sp,sp,-64
    2fea:	d62a                	sw	a0,44(sp)
    2fec:	4501                	li	a0,0
    2fee:	de06                	sw	ra,60(sp)
    2ff0:	dc16                	sw	t0,56(sp)
    2ff2:	da1a                	sw	t1,52(sp)
    2ff4:	d81e                	sw	t2,48(sp)
    2ff6:	d42e                	sw	a1,40(sp)
    2ff8:	d232                	sw	a2,36(sp)
    2ffa:	d036                	sw	a3,32(sp)
    2ffc:	ce3a                	sw	a4,28(sp)
    2ffe:	cc3e                	sw	a5,24(sp)
    3000:	ca42                	sw	a6,20(sp)
    3002:	c846                	sw	a7,16(sp)
    3004:	c672                	sw	t3,12(sp)
    3006:	c476                	sw	t4,8(sp)
    3008:	c27a                	sw	t5,4(sp)
    300a:	c07e                	sw	t6,0(sp)
    300c:	374d                	jal	2fae <DMA_IRQ>
    300e:	50f2                	lw	ra,60(sp)
    3010:	52e2                	lw	t0,56(sp)
    3012:	5352                	lw	t1,52(sp)
    3014:	53c2                	lw	t2,48(sp)
    3016:	5532                	lw	a0,44(sp)
    3018:	55a2                	lw	a1,40(sp)
    301a:	5612                	lw	a2,36(sp)
    301c:	5682                	lw	a3,32(sp)
    301e:	4772                	lw	a4,28(sp)
    3020:	47e2                	lw	a5,24(sp)
    3022:	4852                	lw	a6,20(sp)
    3024:	48c2                	lw	a7,16(sp)
    3026:	4e32                	lw	t3,12(sp)
    3028:	4ea2                	lw	t4,8(sp)
    302a:	4f12                	lw	t5,4(sp)
    302c:	4f82                	lw	t6,0(sp)
    302e:	6121                	addi	sp,sp,64
    3030:	30200073          	mret

00003034 <DMA1_Channel2_IRQHandler>:
    3034:	7139                	addi	sp,sp,-64
    3036:	d62a                	sw	a0,44(sp)
    3038:	4505                	li	a0,1
    303a:	de06                	sw	ra,60(sp)
    303c:	dc16                	sw	t0,56(sp)
    303e:	da1a                	sw	t1,52(sp)
    3040:	d81e                	sw	t2,48(sp)
    3042:	d42e                	sw	a1,40(sp)
    3044:	d232                	sw	a2,36(sp)
    3046:	d036                	sw	a3,32(sp)
    3048:	ce3a                	sw	a4,28(sp)
    304a:	cc3e                	sw	a5,24(sp)
    304c:	ca42                	sw	a6,20(sp)
    304e:	c846                	sw	a7,16(sp)
    3050:	c672                	sw	t3,12(sp)
    3052:	c476                	sw	t4,8(sp)
    3054:	c27a                	sw	t5,4(sp)
    3056:	c07e                	sw	t6,0(sp)
    3058:	3f99                	jal	2fae <DMA_IRQ>
    305a:	50f2                	lw	ra,60(sp)
    305c:	52e2                	lw	t0,56(sp)
    305e:	5352                	lw	t1,52(sp)
    3060:	53c2                	lw	t2,48(sp)
    3062:	5532                	lw	a0,44(sp)
    3064:	55a2                	lw	a1,40(sp)
    3066:	5612                	lw	a2,36(sp)
    3068:	5682                	lw	a3,32(sp)
    306a:	4772                	lw	a4,28(sp)
    306c:	47e2                	lw	a5,24(sp)
    306e:	4852                	lw	a6,20(sp)
    3070:	48c2                	lw	a7,16(sp)
    3072:	4e32                	lw	t3,12(sp)
    3074:	4ea2                	lw	t4,8(sp)
    3076:	4f12                	lw	t5,4(sp)
    3078:	4f82                	lw	t6,0(sp)
    307a:	6121                	addi	sp,sp,64
    307c:	30200073          	mret

00003080 <HAL_SetBit>:
    3080:	c90c                	sw	a1,16(a0)
    3082:	8082                	ret

00003084 <HAL_ResetBit>:
    3084:	c94c                	sw	a1,20(a0)
    3086:	8082                	ret

00003088 <prvInsertBlockIntoFreeList>:
    3088:	92818793          	addi	a5,gp,-1752 # 20000228 <xStart>
    308c:	4398                	lw	a4,0(a5)
    308e:	02a76d63          	bltu	a4,a0,30c8 <prvInsertBlockIntoFreeList+0x40>
    3092:	43d0                	lw	a2,4(a5)
    3094:	00c786b3          	add	a3,a5,a2
    3098:	00d51663          	bne	a0,a3,30a4 <prvInsertBlockIntoFreeList+0x1c>
    309c:	4154                	lw	a3,4(a0)
    309e:	853e                	mv	a0,a5
    30a0:	96b2                	add	a3,a3,a2
    30a2:	c3d4                	sw	a3,4(a5)
    30a4:	4150                	lw	a2,4(a0)
    30a6:	00c506b3          	add	a3,a0,a2
    30aa:	00d71a63          	bne	a4,a3,30be <prvInsertBlockIntoFreeList+0x36>
    30ae:	9181a683          	lw	a3,-1768(gp) # 20000218 <pxEnd>
    30b2:	00d70663          	beq	a4,a3,30be <prvInsertBlockIntoFreeList+0x36>
    30b6:	4354                	lw	a3,4(a4)
    30b8:	4318                	lw	a4,0(a4)
    30ba:	96b2                	add	a3,a3,a2
    30bc:	c154                	sw	a3,4(a0)
    30be:	c118                	sw	a4,0(a0)
    30c0:	00f50363          	beq	a0,a5,30c6 <prvInsertBlockIntoFreeList+0x3e>
    30c4:	c388                	sw	a0,0(a5)
    30c6:	8082                	ret
    30c8:	87ba                	mv	a5,a4
    30ca:	b7c9                	j	308c <prvInsertBlockIntoFreeList+0x4>

000030cc <vPortFree>:
    30cc:	cd41                	beqz	a0,3164 <vPortFree+0x98>
    30ce:	c48fd2ef          	jal	t0,516 <__riscv_save_0>
    30d2:	ff452703          	lw	a4,-12(a0)
    30d6:	91c1a783          	lw	a5,-1764(gp) # 2000021c <xBlockAllocatedBit>
    30da:	842a                	mv	s0,a0
    30dc:	00f776b3          	and	a3,a4,a5
    30e0:	e29d                	bnez	a3,3106 <vPortFree+0x3a>
    30e2:	67a1                	lui	a5,0x8
    30e4:	80078793          	addi	a5,a5,-2048 # 7800 <mem_free+0x5a>
    30e8:	30079073          	csrw	mstatus,a5
    30ec:	0000d637          	lui	a2,0xd
    30f0:	0000d537          	lui	a0,0xd
    30f4:	b1860613          	addi	a2,a2,-1256 # cb18 <MemSize+0x10>
    30f8:	12400593          	li	a1,292
    30fc:	b4050513          	addi	a0,a0,-1216 # cb40 <MemSize+0x38>
    3100:	42f080ef          	jal	ra,bd2e <iprintf>
    3104:	a001                	j	3104 <vPortFree+0x38>
    3106:	ff052683          	lw	a3,-16(a0)
    310a:	c29d                	beqz	a3,3130 <vPortFree+0x64>
    310c:	67a1                	lui	a5,0x8
    310e:	80078793          	addi	a5,a5,-2048 # 7800 <mem_free+0x5a>
    3112:	30079073          	csrw	mstatus,a5
    3116:	0000d637          	lui	a2,0xd
    311a:	0000d537          	lui	a0,0xd
    311e:	b1860613          	addi	a2,a2,-1256 # cb18 <MemSize+0x10>
    3122:	12500593          	li	a1,293
    3126:	b4050513          	addi	a0,a0,-1216 # cb40 <MemSize+0x38>
    312a:	405080ef          	jal	ra,bd2e <iprintf>
    312e:	a001                	j	312e <vPortFree+0x62>
    3130:	fff7c793          	not	a5,a5
    3134:	8ff9                	and	a5,a5,a4
    3136:	fef52a23          	sw	a5,-12(a0)
    313a:	517000ef          	jal	ra,3e50 <vTaskSuspendAll>
    313e:	92018793          	addi	a5,gp,-1760 # 20000220 <xFreeBytesRemaining>
    3142:	4394                	lw	a3,0(a5)
    3144:	ff442703          	lw	a4,-12(s0)
    3148:	ff040513          	addi	a0,s0,-16
    314c:	9736                	add	a4,a4,a3
    314e:	c398                	sw	a4,0(a5)
    3150:	3f25                	jal	3088 <prvInsertBlockIntoFreeList>
    3152:	92418793          	addi	a5,gp,-1756 # 20000224 <xNumberOfSuccessfulFrees>
    3156:	4398                	lw	a4,0(a5)
    3158:	0705                	addi	a4,a4,1
    315a:	c398                	sw	a4,0(a5)
    315c:	687000ef          	jal	ra,3fe2 <xTaskResumeAll>
    3160:	bdafd06f          	j	53a <__riscv_restore_0>
    3164:	8082                	ret

00003166 <vPortSetupTimerInterrupt>:
    3166:	e000e7b7          	lui	a5,0xe000e
    316a:	5741                	li	a4,-16
    316c:	40e78723          	sb	a4,1038(a5) # e000e40e <__freertos_irq_stack_top+0xbfffe40e>
    3170:	40e78623          	sb	a4,1036(a5)
    3174:	e000f7b7          	lui	a5,0xe000f
    3178:	0007a023          	sw	zero,0(a5) # e000f000 <__freertos_irq_stack_top+0xbffff000>
    317c:	0007a223          	sw	zero,4(a5)
    3180:	4681                	li	a3,0
    3182:	c794                	sw	a3,8(a5)
    3184:	4701                	li	a4,0
    3186:	c7d8                	sw	a4,12(a5)
    3188:	8181a583          	lw	a1,-2024(gp) # 20000118 <SystemCoreClock>
    318c:	1f400713          	li	a4,500
    3190:	4681                	li	a3,0
    3192:	02e5d633          	divu	a2,a1,a4
    3196:	473d                	li	a4,15
    3198:	cb90                	sw	a2,16(a5)
    319a:	cbd4                	sw	a3,20(a5)
    319c:	c398                	sw	a4,0(a5)
    319e:	8082                	ret

000031a0 <xPortStartScheduler>:
    31a0:	b76fd2ef          	jal	t0,516 <__riscv_save_0>
    31a4:	1141                	addi	sp,sp,-16
    31a6:	c602                	sw	zero,12(sp)
    31a8:	305027f3          	csrr	a5,mtvec
    31ac:	c63e                	sw	a5,12(sp)
    31ae:	47b2                	lw	a5,12(sp)
    31b0:	470d                	li	a4,3
    31b2:	8b8d                	andi	a5,a5,3
    31b4:	02e78463          	beq	a5,a4,31dc <xPortStartScheduler+0x3c>
    31b8:	67a1                	lui	a5,0x8
    31ba:	80078793          	addi	a5,a5,-2048 # 7800 <mem_free+0x5a>
    31be:	30079073          	csrw	mstatus,a5
    31c2:	0000d637          	lui	a2,0xd
    31c6:	0000d537          	lui	a0,0xd
    31ca:	b6460613          	addi	a2,a2,-1180 # cb64 <MemSize+0x5c>
    31ce:	0b600593          	li	a1,182
    31d2:	b4050513          	addi	a0,a0,-1216 # cb40 <MemSize+0x38>
    31d6:	359080ef          	jal	ra,bd2e <iprintf>
    31da:	a001                	j	31da <xPortStartScheduler+0x3a>
    31dc:	200107b7          	lui	a5,0x20010
    31e0:	00078793          	mv	a5,a5
    31e4:	8bbd                	andi	a5,a5,15
    31e6:	c39d                	beqz	a5,320c <xPortStartScheduler+0x6c>
    31e8:	67a1                	lui	a5,0x8
    31ea:	80078793          	addi	a5,a5,-2048 # 7800 <mem_free+0x5a>
    31ee:	30079073          	csrw	mstatus,a5
    31f2:	0000d637          	lui	a2,0xd
    31f6:	0000d537          	lui	a0,0xd
    31fa:	b6460613          	addi	a2,a2,-1180 # cb64 <MemSize+0x5c>
    31fe:	0bb00593          	li	a1,187
    3202:	b4050513          	addi	a0,a0,-1216 # cb40 <MemSize+0x38>
    3206:	329080ef          	jal	ra,bd2e <iprintf>
    320a:	a001                	j	320a <xPortStartScheduler+0x6a>
    320c:	3fa9                	jal	3166 <vPortSetupTimerInterrupt>
    320e:	e000e7b7          	lui	a5,0xe000e
    3212:	6705                	lui	a4,0x1
    3214:	10e7a023          	sw	a4,256(a5) # e000e100 <__freertos_irq_stack_top+0xbfffe100>
    3218:	6711                	lui	a4,0x4
    321a:	10e7a023          	sw	a4,256(a5)
    321e:	8201a223          	sw	zero,-2012(gp) # 20000124 <uxCriticalNesting>
    3222:	8defd0ef          	jal	ra,300 <xPortStartFirstTask>
    3226:	4501                	li	a0,0
    3228:	0141                	addi	sp,sp,16
    322a:	b10fd06f          	j	53a <__riscv_restore_0>

0000322e <SysTick_Handler>:
    322e:	34011173          	csrrw	sp,mscratch,sp
    3232:	67a1                	lui	a5,0x8
    3234:	80078793          	addi	a5,a5,-2048 # 7800 <mem_free+0x5a>
    3238:	30079073          	csrw	mstatus,a5
    323c:	e000f7b7          	lui	a5,0xe000f
    3240:	0007a223          	sw	zero,4(a5) # e000f004 <__freertos_irq_stack_top+0xbffff004>
    3244:	41f000ef          	jal	ra,3e62 <xTaskIncrementTick>
    3248:	c511                	beqz	a0,3254 <SysTick_Handler+0x26>
    324a:	e000e7b7          	lui	a5,0xe000e
    324e:	6711                	lui	a4,0x4
    3250:	20e7a023          	sw	a4,512(a5) # e000e200 <__freertos_irq_stack_top+0xbfffe200>
    3254:	67a1                	lui	a5,0x8
    3256:	88878793          	addi	a5,a5,-1912 # 7888 <mem_realloc+0x5e>
    325a:	30079073          	csrw	mstatus,a5
    325e:	34011173          	csrrw	sp,mscratch,sp
    3262:	30200073          	mret

00003266 <vPortEnterCritical>:
    3266:	67a1                	lui	a5,0x8
    3268:	80078793          	addi	a5,a5,-2048 # 7800 <mem_free+0x5a>
    326c:	30079073          	csrw	mstatus,a5
    3270:	82418793          	addi	a5,gp,-2012 # 20000124 <uxCriticalNesting>
    3274:	4398                	lw	a4,0(a5)
    3276:	0705                	addi	a4,a4,1
    3278:	c398                	sw	a4,0(a5)
    327a:	8082                	ret

0000327c <vPortExitCritical>:
    327c:	82418713          	addi	a4,gp,-2012 # 20000124 <uxCriticalNesting>
    3280:	431c                	lw	a5,0(a4)
    3282:	e78d                	bnez	a5,32ac <vPortExitCritical+0x30>
    3284:	a92fd2ef          	jal	t0,516 <__riscv_save_0>
    3288:	67a1                	lui	a5,0x8
    328a:	80078793          	addi	a5,a5,-2048 # 7800 <mem_free+0x5a>
    328e:	30079073          	csrw	mstatus,a5
    3292:	0000d637          	lui	a2,0xd
    3296:	0000d537          	lui	a0,0xd
    329a:	b6460613          	addi	a2,a2,-1180 # cb64 <MemSize+0x5c>
    329e:	10200593          	li	a1,258
    32a2:	b4050513          	addi	a0,a0,-1216 # cb40 <MemSize+0x38>
    32a6:	289080ef          	jal	ra,bd2e <iprintf>
    32aa:	a001                	j	32aa <vPortExitCritical+0x2e>
    32ac:	17fd                	addi	a5,a5,-1
    32ae:	c31c                	sw	a5,0(a4)
    32b0:	e791                	bnez	a5,32bc <vPortExitCritical+0x40>
    32b2:	67a1                	lui	a5,0x8
    32b4:	88878793          	addi	a5,a5,-1912 # 7888 <mem_realloc+0x5e>
    32b8:	30079073          	csrw	mstatus,a5
    32bc:	8082                	ret

000032be <xEventGroupCreateStatic>:
    32be:	a58fd2ef          	jal	t0,516 <__riscv_save_0>
    32c2:	1141                	addi	sp,sp,-16
    32c4:	e11d                	bnez	a0,32ea <xEventGroupCreateStatic+0x2c>
    32c6:	67a1                	lui	a5,0x8
    32c8:	80078793          	addi	a5,a5,-2048 # 7800 <mem_free+0x5a>
    32cc:	30079073          	csrw	mstatus,a5
    32d0:	0000d637          	lui	a2,0xd
    32d4:	0000d537          	lui	a0,0xd
    32d8:	b8c60613          	addi	a2,a2,-1140 # cb8c <MemSize+0x84>
    32dc:	06500593          	li	a1,101
    32e0:	b4050513          	addi	a0,a0,-1216 # cb40 <MemSize+0x38>
    32e4:	24b080ef          	jal	ra,bd2e <iprintf>
    32e8:	a001                	j	32e8 <xEventGroupCreateStatic+0x2a>
    32ea:	47f1                	li	a5,28
    32ec:	c63e                	sw	a5,12(sp)
    32ee:	4732                	lw	a4,12(sp)
    32f0:	02f70463          	beq	a4,a5,3318 <xEventGroupCreateStatic+0x5a>
    32f4:	67a1                	lui	a5,0x8
    32f6:	80078793          	addi	a5,a5,-2048 # 7800 <mem_free+0x5a>
    32fa:	30079073          	csrw	mstatus,a5
    32fe:	0000d637          	lui	a2,0xd
    3302:	0000d537          	lui	a0,0xd
    3306:	b8c60613          	addi	a2,a2,-1140 # cb8c <MemSize+0x84>
    330a:	06d00593          	li	a1,109
    330e:	b4050513          	addi	a0,a0,-1216 # cb40 <MemSize+0x38>
    3312:	21d080ef          	jal	ra,bd2e <iprintf>
    3316:	a001                	j	3316 <xEventGroupCreateStatic+0x58>
    3318:	842a                	mv	s0,a0
    331a:	00052023          	sw	zero,0(a0)
    331e:	0511                	addi	a0,a0,4
    3320:	2c05                	jal	3550 <vListInitialise>
    3322:	4785                	li	a5,1
    3324:	ac1c                	sb	a5,24(s0)
    3326:	8522                	mv	a0,s0
    3328:	0141                	addi	sp,sp,16
    332a:	a10fd06f          	j	53a <__riscv_restore_0>

0000332e <xEventGroupWaitBits>:
    332e:	9cefd2ef          	jal	t0,4fc <__riscv_save_4>
    3332:	e11d                	bnez	a0,3358 <xEventGroupWaitBits+0x2a>
    3334:	67a1                	lui	a5,0x8
    3336:	80078793          	addi	a5,a5,-2048 # 7800 <mem_free+0x5a>
    333a:	30079073          	csrw	mstatus,a5
    333e:	0000d637          	lui	a2,0xd
    3342:	0000d537          	lui	a0,0xd
    3346:	b8c60613          	addi	a2,a2,-1140 # cb8c <MemSize+0x84>
    334a:	14a00593          	li	a1,330
    334e:	b4050513          	addi	a0,a0,-1216 # cb40 <MemSize+0x38>
    3352:	1dd080ef          	jal	ra,bd2e <iprintf>
    3356:	a001                	j	3356 <xEventGroupWaitBits+0x28>
    3358:	ff0009b7          	lui	s3,0xff000
    335c:	0135f9b3          	and	s3,a1,s3
    3360:	84ae                	mv	s1,a1
    3362:	02098463          	beqz	s3,338a <xEventGroupWaitBits+0x5c>
    3366:	67a1                	lui	a5,0x8
    3368:	80078793          	addi	a5,a5,-2048 # 7800 <mem_free+0x5a>
    336c:	30079073          	csrw	mstatus,a5
    3370:	0000d637          	lui	a2,0xd
    3374:	0000d537          	lui	a0,0xd
    3378:	b8c60613          	addi	a2,a2,-1140 # cb8c <MemSize+0x84>
    337c:	14b00593          	li	a1,331
    3380:	b4050513          	addi	a0,a0,-1216 # cb40 <MemSize+0x38>
    3384:	1ab080ef          	jal	ra,bd2e <iprintf>
    3388:	a001                	j	3388 <xEventGroupWaitBits+0x5a>
    338a:	e19d                	bnez	a1,33b0 <xEventGroupWaitBits+0x82>
    338c:	67a1                	lui	a5,0x8
    338e:	80078793          	addi	a5,a5,-2048 # 7800 <mem_free+0x5a>
    3392:	30079073          	csrw	mstatus,a5
    3396:	0000d637          	lui	a2,0xd
    339a:	0000d537          	lui	a0,0xd
    339e:	b8c60613          	addi	a2,a2,-1140 # cb8c <MemSize+0x84>
    33a2:	14c00593          	li	a1,332
    33a6:	b4050513          	addi	a0,a0,-1216 # cb40 <MemSize+0x38>
    33aa:	185080ef          	jal	ra,bd2e <iprintf>
    33ae:	a001                	j	33ae <xEventGroupWaitBits+0x80>
    33b0:	892a                	mv	s2,a0
    33b2:	8ab2                	mv	s5,a2
    33b4:	8b36                	mv	s6,a3
    33b6:	8a3a                	mv	s4,a4
    33b8:	246010ef          	jal	ra,45fe <xTaskGetSchedulerState>
    33bc:	e50d                	bnez	a0,33e6 <xEventGroupWaitBits+0xb8>
    33be:	020a0463          	beqz	s4,33e6 <xEventGroupWaitBits+0xb8>
    33c2:	67a1                	lui	a5,0x8
    33c4:	80078793          	addi	a5,a5,-2048 # 7800 <mem_free+0x5a>
    33c8:	30079073          	csrw	mstatus,a5
    33cc:	0000d637          	lui	a2,0xd
    33d0:	0000d537          	lui	a0,0xd
    33d4:	b8c60613          	addi	a2,a2,-1140 # cb8c <MemSize+0x84>
    33d8:	14f00593          	li	a1,335
    33dc:	b4050513          	addi	a0,a0,-1216 # cb40 <MemSize+0x38>
    33e0:	14f080ef          	jal	ra,bd2e <iprintf>
    33e4:	a001                	j	33e4 <xEventGroupWaitBits+0xb6>
    33e6:	26b000ef          	jal	ra,3e50 <vTaskSuspendAll>
    33ea:	00092403          	lw	s0,0(s2)
    33ee:	0084f7b3          	and	a5,s1,s0
    33f2:	020b1763          	bnez	s6,3420 <xEventGroupWaitBits+0xf2>
    33f6:	e79d                	bnez	a5,3424 <xEventGroupWaitBits+0xf6>
    33f8:	4981                	li	s3,0
    33fa:	020a0c63          	beqz	s4,3432 <xEventGroupWaitBits+0x104>
    33fe:	015035b3          	snez	a1,s5
    3402:	05e2                	slli	a1,a1,0x18
    3404:	000b0563          	beqz	s6,340e <xEventGroupWaitBits+0xe0>
    3408:	040007b7          	lui	a5,0x4000
    340c:	8ddd                	or	a1,a1,a5
    340e:	8652                	mv	a2,s4
    3410:	8dc5                	or	a1,a1,s1
    3412:	00490513          	addi	a0,s2,4
    3416:	645000ef          	jal	ra,425a <vTaskPlaceOnUnorderedEventList>
    341a:	89d2                	mv	s3,s4
    341c:	4401                	li	s0,0
    341e:	a811                	j	3432 <xEventGroupWaitBits+0x104>
    3420:	fcf49ce3          	bne	s1,a5,33f8 <xEventGroupWaitBits+0xca>
    3424:	000a8763          	beqz	s5,3432 <xEventGroupWaitBits+0x104>
    3428:	fff4c793          	not	a5,s1
    342c:	8fe1                	and	a5,a5,s0
    342e:	00f92023          	sw	a5,0(s2)
    3432:	3b1000ef          	jal	ra,3fe2 <xTaskResumeAll>
    3436:	02098c63          	beqz	s3,346e <xEventGroupWaitBits+0x140>
    343a:	e511                	bnez	a0,3446 <xEventGroupWaitBits+0x118>
    343c:	e000e7b7          	lui	a5,0xe000e
    3440:	6711                	lui	a4,0x4
    3442:	20e7a023          	sw	a4,512(a5) # e000e200 <__freertos_irq_stack_top+0xbfffe200>
    3446:	1cc010ef          	jal	ra,4612 <uxTaskResetEventItemValue>
    344a:	00651793          	slli	a5,a0,0x6
    344e:	842a                	mv	s0,a0
    3450:	0007cd63          	bltz	a5,346a <xEventGroupWaitBits+0x13c>
    3454:	e13ff0ef          	jal	ra,3266 <vPortEnterCritical>
    3458:	00092403          	lw	s0,0(s2)
    345c:	0084f7b3          	and	a5,s1,s0
    3460:	000b1a63          	bnez	s6,3474 <xEventGroupWaitBits+0x146>
    3464:	eb91                	bnez	a5,3478 <xEventGroupWaitBits+0x14a>
    3466:	e17ff0ef          	jal	ra,327c <vPortExitCritical>
    346a:	0422                	slli	s0,s0,0x8
    346c:	8021                	srli	s0,s0,0x8
    346e:	8522                	mv	a0,s0
    3470:	8c0fd06f          	j	530 <__riscv_restore_4>
    3474:	fef499e3          	bne	s1,a5,3466 <xEventGroupWaitBits+0x138>
    3478:	fe0a87e3          	beqz	s5,3466 <xEventGroupWaitBits+0x138>
    347c:	fff4c493          	not	s1,s1
    3480:	8ce1                	and	s1,s1,s0
    3482:	00992023          	sw	s1,0(s2)
    3486:	b7c5                	j	3466 <xEventGroupWaitBits+0x138>

00003488 <xEventGroupSetBits>:
    3488:	874fd2ef          	jal	t0,4fc <__riscv_save_4>
    348c:	1141                	addi	sp,sp,-16
    348e:	e11d                	bnez	a0,34b4 <xEventGroupSetBits+0x2c>
    3490:	67a1                	lui	a5,0x8
    3492:	80078793          	addi	a5,a5,-2048 # 7800 <mem_free+0x5a>
    3496:	30079073          	csrw	mstatus,a5
    349a:	0000d637          	lui	a2,0xd
    349e:	0000d537          	lui	a0,0xd
    34a2:	b8c60613          	addi	a2,a2,-1140 # cb8c <MemSize+0x84>
    34a6:	22100593          	li	a1,545
    34aa:	b4050513          	addi	a0,a0,-1216 # cb40 <MemSize+0x38>
    34ae:	081080ef          	jal	ra,bd2e <iprintf>
    34b2:	a001                	j	34b2 <xEventGroupSetBits+0x2a>
    34b4:	ff000737          	lui	a4,0xff000
    34b8:	8f6d                	and	a4,a4,a1
    34ba:	c31d                	beqz	a4,34e0 <xEventGroupSetBits+0x58>
    34bc:	67a1                	lui	a5,0x8
    34be:	80078793          	addi	a5,a5,-2048 # 7800 <mem_free+0x5a>
    34c2:	30079073          	csrw	mstatus,a5
    34c6:	0000d637          	lui	a2,0xd
    34ca:	0000d537          	lui	a0,0xd
    34ce:	b8c60613          	addi	a2,a2,-1140 # cb8c <MemSize+0x84>
    34d2:	22200593          	li	a1,546
    34d6:	b4050513          	addi	a0,a0,-1216 # cb40 <MemSize+0x38>
    34da:	055080ef          	jal	ra,bd2e <iprintf>
    34de:	a001                	j	34de <xEventGroupSetBits+0x56>
    34e0:	842a                	mv	s0,a0
    34e2:	c62e                	sw	a1,12(sp)
    34e4:	00c50993          	addi	s3,a0,12
    34e8:	169000ef          	jal	ra,3e50 <vTaskSuspendAll>
    34ec:	401c                	lw	a5,0(s0)
    34ee:	45b2                	lw	a1,12(sp)
    34f0:	4808                	lw	a0,16(s0)
    34f2:	01000937          	lui	s2,0x1000
    34f6:	8fcd                	or	a5,a5,a1
    34f8:	c01c                	sw	a5,0(s0)
    34fa:	4481                	li	s1,0
    34fc:	197d                	addi	s2,s2,-1
    34fe:	02000a37          	lui	s4,0x2000
    3502:	400c                	lw	a1,0(s0)
    3504:	00a99c63          	bne	s3,a0,351c <xEventGroupSetBits+0x94>
    3508:	fff4c493          	not	s1,s1
    350c:	8ced                	and	s1,s1,a1
    350e:	c004                	sw	s1,0(s0)
    3510:	2d3000ef          	jal	ra,3fe2 <xTaskResumeAll>
    3514:	4008                	lw	a0,0(s0)
    3516:	0141                	addi	sp,sp,16
    3518:	818fd06f          	j	530 <__riscv_restore_4>
    351c:	4118                	lw	a4,0(a0)
    351e:	00452a83          	lw	s5,4(a0)
    3522:	012777b3          	and	a5,a4,s2
    3526:	00571613          	slli	a2,a4,0x5
    352a:	00b7f6b3          	and	a3,a5,a1
    352e:	00064563          	bltz	a2,3538 <xEventGroupSetBits+0xb0>
    3532:	e689                	bnez	a3,353c <xEventGroupSetBits+0xb4>
    3534:	8556                	mv	a0,s5
    3536:	b7f1                	j	3502 <xEventGroupSetBits+0x7a>
    3538:	fed79ee3          	bne	a5,a3,3534 <xEventGroupSetBits+0xac>
    353c:	00771693          	slli	a3,a4,0x7
    3540:	0006d363          	bgez	a3,3546 <xEventGroupSetBits+0xbe>
    3544:	8cdd                	or	s1,s1,a5
    3546:	0145e5b3          	or	a1,a1,s4
    354a:	6f7000ef          	jal	ra,4440 <vTaskRemoveFromUnorderedEventList>
    354e:	b7dd                	j	3534 <xEventGroupSetBits+0xac>

00003550 <vListInitialise>:
    3550:	00850793          	addi	a5,a0,8
    3554:	577d                	li	a4,-1
    3556:	c15c                	sw	a5,4(a0)
    3558:	c518                	sw	a4,8(a0)
    355a:	c55c                	sw	a5,12(a0)
    355c:	c91c                	sw	a5,16(a0)
    355e:	00052023          	sw	zero,0(a0)
    3562:	8082                	ret

00003564 <vListInitialiseItem>:
    3564:	00052823          	sw	zero,16(a0)
    3568:	8082                	ret

0000356a <vListInsert>:
    356a:	4198                	lw	a4,0(a1)
    356c:	56fd                	li	a3,-1
    356e:	00850793          	addi	a5,a0,8
    3572:	00d71e63          	bne	a4,a3,358e <vListInsert+0x24>
    3576:	491c                	lw	a5,16(a0)
    3578:	43d8                	lw	a4,4(a5)
    357a:	c1d8                	sw	a4,4(a1)
    357c:	c70c                	sw	a1,8(a4)
    357e:	c59c                	sw	a5,8(a1)
    3580:	c3cc                	sw	a1,4(a5)
    3582:	411c                	lw	a5,0(a0)
    3584:	c988                	sw	a0,16(a1)
    3586:	0785                	addi	a5,a5,1
    3588:	c11c                	sw	a5,0(a0)
    358a:	8082                	ret
    358c:	87b6                	mv	a5,a3
    358e:	43d4                	lw	a3,4(a5)
    3590:	4290                	lw	a2,0(a3)
    3592:	fec77de3          	bgeu	a4,a2,358c <vListInsert+0x22>
    3596:	b7cd                	j	3578 <vListInsert+0xe>

00003598 <uxListRemove>:
    3598:	4154                	lw	a3,4(a0)
    359a:	4518                	lw	a4,8(a0)
    359c:	491c                	lw	a5,16(a0)
    359e:	c698                	sw	a4,8(a3)
    35a0:	c354                	sw	a3,4(a4)
    35a2:	43d4                	lw	a3,4(a5)
    35a4:	00a69363          	bne	a3,a0,35aa <uxListRemove+0x12>
    35a8:	c3d8                	sw	a4,4(a5)
    35aa:	4398                	lw	a4,0(a5)
    35ac:	00052823          	sw	zero,16(a0)
    35b0:	177d                	addi	a4,a4,-1
    35b2:	c398                	sw	a4,0(a5)
    35b4:	4388                	lw	a0,0(a5)
    35b6:	8082                	ret

000035b8 <prvIsQueueEmpty>:
    35b8:	f5ffc2ef          	jal	t0,516 <__riscv_save_0>
    35bc:	1141                	addi	sp,sp,-16
    35be:	c62a                	sw	a0,12(sp)
    35c0:	ca7ff0ef          	jal	ra,3266 <vPortEnterCritical>
    35c4:	4532                	lw	a0,12(sp)
    35c6:	5d00                	lw	s0,56(a0)
    35c8:	cb5ff0ef          	jal	ra,327c <vPortExitCritical>
    35cc:	00143513          	seqz	a0,s0
    35d0:	0141                	addi	sp,sp,16
    35d2:	f69fc06f          	j	53a <__riscv_restore_0>

000035d6 <prvCopyDataFromQueue>:
    35d6:	4130                	lw	a2,64(a0)
    35d8:	c215                	beqz	a2,35fc <prvCopyDataFromQueue+0x26>
    35da:	f3dfc2ef          	jal	t0,516 <__riscv_save_0>
    35de:	4558                	lw	a4,12(a0)
    35e0:	4514                	lw	a3,8(a0)
    35e2:	87aa                	mv	a5,a0
    35e4:	9732                	add	a4,a4,a2
    35e6:	c558                	sw	a4,12(a0)
    35e8:	00d76463          	bltu	a4,a3,35f0 <prvCopyDataFromQueue+0x1a>
    35ec:	4118                	lw	a4,0(a0)
    35ee:	c558                	sw	a4,12(a0)
    35f0:	852e                	mv	a0,a1
    35f2:	47cc                	lw	a1,12(a5)
    35f4:	7e3070ef          	jal	ra,b5d6 <memcpy>
    35f8:	f43fc06f          	j	53a <__riscv_restore_0>
    35fc:	8082                	ret

000035fe <prvUnlockQueue>:
    35fe:	f19fc2ef          	jal	t0,516 <__riscv_save_0>
    3602:	842a                	mv	s0,a0
    3604:	c63ff0ef          	jal	ra,3266 <vPortEnterCritical>
    3608:	04544483          	lbu	s1,69(s0)
    360c:	02440913          	addi	s2,s0,36
    3610:	04e2                	slli	s1,s1,0x18
    3612:	84e1                	srai	s1,s1,0x18
    3614:	02904863          	bgtz	s1,3644 <prvUnlockQueue+0x46>
    3618:	57fd                	li	a5,-1
    361a:	04f402a3          	sb	a5,69(s0)
    361e:	c5fff0ef          	jal	ra,327c <vPortExitCritical>
    3622:	c45ff0ef          	jal	ra,3266 <vPortEnterCritical>
    3626:	04444483          	lbu	s1,68(s0)
    362a:	01040913          	addi	s2,s0,16
    362e:	04e2                	slli	s1,s1,0x18
    3630:	84e1                	srai	s1,s1,0x18
    3632:	02904563          	bgtz	s1,365c <prvUnlockQueue+0x5e>
    3636:	57fd                	li	a5,-1
    3638:	04f40223          	sb	a5,68(s0)
    363c:	c41ff0ef          	jal	ra,327c <vPortExitCritical>
    3640:	efbfc06f          	j	53a <__riscv_restore_0>
    3644:	505c                	lw	a5,36(s0)
    3646:	dbe9                	beqz	a5,3618 <prvUnlockQueue+0x1a>
    3648:	854a                	mv	a0,s2
    364a:	51b000ef          	jal	ra,4364 <xTaskRemoveFromEventList>
    364e:	c119                	beqz	a0,3654 <prvUnlockQueue+0x56>
    3650:	7a7000ef          	jal	ra,45f6 <vTaskMissedYield>
    3654:	14fd                	addi	s1,s1,-1
    3656:	04e2                	slli	s1,s1,0x18
    3658:	84e1                	srai	s1,s1,0x18
    365a:	bf6d                	j	3614 <prvUnlockQueue+0x16>
    365c:	481c                	lw	a5,16(s0)
    365e:	dfe1                	beqz	a5,3636 <prvUnlockQueue+0x38>
    3660:	854a                	mv	a0,s2
    3662:	503000ef          	jal	ra,4364 <xTaskRemoveFromEventList>
    3666:	c119                	beqz	a0,366c <prvUnlockQueue+0x6e>
    3668:	78f000ef          	jal	ra,45f6 <vTaskMissedYield>
    366c:	14fd                	addi	s1,s1,-1
    366e:	04e2                	slli	s1,s1,0x18
    3670:	84e1                	srai	s1,s1,0x18
    3672:	b7c1                	j	3632 <prvUnlockQueue+0x34>

00003674 <xQueueGenericReset>:
    3674:	ea3fc2ef          	jal	t0,516 <__riscv_save_0>
    3678:	1141                	addi	sp,sp,-16
    367a:	e11d                	bnez	a0,36a0 <xQueueGenericReset+0x2c>
    367c:	67a1                	lui	a5,0x8
    367e:	80078793          	addi	a5,a5,-2048 # 7800 <mem_free+0x5a>
    3682:	30079073          	csrw	mstatus,a5
    3686:	0000d637          	lui	a2,0xd
    368a:	0000d537          	lui	a0,0xd
    368e:	ba860613          	addi	a2,a2,-1112 # cba8 <MemSize+0xa0>
    3692:	11000593          	li	a1,272
    3696:	b4050513          	addi	a0,a0,-1216 # cb40 <MemSize+0x38>
    369a:	694080ef          	jal	ra,bd2e <iprintf>
    369e:	a001                	j	369e <xQueueGenericReset+0x2a>
    36a0:	5d5c                	lw	a5,60(a0)
    36a2:	c62e                	sw	a1,12(sp)
    36a4:	842a                	mv	s0,a0
    36a6:	c7bd                	beqz	a5,3714 <xQueueGenericReset+0xa0>
    36a8:	4138                	lw	a4,64(a0)
    36aa:	02e7b7b3          	mulhu	a5,a5,a4
    36ae:	e3bd                	bnez	a5,3714 <xQueueGenericReset+0xa0>
    36b0:	bb7ff0ef          	jal	ra,3266 <vPortEnterCritical>
    36b4:	4030                	lw	a2,64(s0)
    36b6:	5c58                	lw	a4,60(s0)
    36b8:	4014                	lw	a3,0(s0)
    36ba:	02042c23          	sw	zero,56(s0)
    36be:	02e607b3          	mul	a5,a2,a4
    36c2:	45b2                	lw	a1,12(sp)
    36c4:	c054                	sw	a3,4(s0)
    36c6:	00f68733          	add	a4,a3,a5
    36ca:	8f91                	sub	a5,a5,a2
    36cc:	97b6                	add	a5,a5,a3
    36ce:	c45c                	sw	a5,12(s0)
    36d0:	57fd                	li	a5,-1
    36d2:	04f40223          	sb	a5,68(s0)
    36d6:	c418                	sw	a4,8(s0)
    36d8:	04f402a3          	sb	a5,69(s0)
    36dc:	e19d                	bnez	a1,3702 <xQueueGenericReset+0x8e>
    36de:	481c                	lw	a5,16(s0)
    36e0:	cb99                	beqz	a5,36f6 <xQueueGenericReset+0x82>
    36e2:	01040513          	addi	a0,s0,16
    36e6:	47f000ef          	jal	ra,4364 <xTaskRemoveFromEventList>
    36ea:	c511                	beqz	a0,36f6 <xQueueGenericReset+0x82>
    36ec:	e000e7b7          	lui	a5,0xe000e
    36f0:	6711                	lui	a4,0x4
    36f2:	20e7a023          	sw	a4,512(a5) # e000e200 <__freertos_irq_stack_top+0xbfffe200>
    36f6:	b87ff0ef          	jal	ra,327c <vPortExitCritical>
    36fa:	4505                	li	a0,1
    36fc:	0141                	addi	sp,sp,16
    36fe:	e3dfc06f          	j	53a <__riscv_restore_0>
    3702:	01040513          	addi	a0,s0,16
    3706:	e4bff0ef          	jal	ra,3550 <vListInitialise>
    370a:	02440513          	addi	a0,s0,36
    370e:	e43ff0ef          	jal	ra,3550 <vListInitialise>
    3712:	b7d5                	j	36f6 <xQueueGenericReset+0x82>
    3714:	67a1                	lui	a5,0x8
    3716:	80078793          	addi	a5,a5,-2048 # 7800 <mem_free+0x5a>
    371a:	30079073          	csrw	mstatus,a5
    371e:	0000d637          	lui	a2,0xd
    3722:	0000d537          	lui	a0,0xd
    3726:	ba860613          	addi	a2,a2,-1112 # cba8 <MemSize+0xa0>
    372a:	14500593          	li	a1,325
    372e:	b4050513          	addi	a0,a0,-1216 # cb40 <MemSize+0x38>
    3732:	5fc080ef          	jal	ra,bd2e <iprintf>
    3736:	a001                	j	3736 <xQueueGenericReset+0xc2>

00003738 <xQueueGenericCreateStatic>:
    3738:	ddffc2ef          	jal	t0,516 <__riscv_save_0>
    373c:	1101                	addi	sp,sp,-32
    373e:	e29d                	bnez	a3,3764 <xQueueGenericCreateStatic+0x2c>
    3740:	67a1                	lui	a5,0x8
    3742:	80078793          	addi	a5,a5,-2048 # 7800 <mem_free+0x5a>
    3746:	30079073          	csrw	mstatus,a5
    374a:	0000d637          	lui	a2,0xd
    374e:	0000d537          	lui	a0,0xd
    3752:	ba860613          	addi	a2,a2,-1112 # cba8 <MemSize+0xa0>
    3756:	15900593          	li	a1,345
    375a:	b4050513          	addi	a0,a0,-1216 # cb40 <MemSize+0x38>
    375e:	5d0080ef          	jal	ra,bd2e <iprintf>
    3762:	a001                	j	3762 <xQueueGenericCreateStatic+0x2a>
    3764:	c119                	beqz	a0,376a <xQueueGenericCreateStatic+0x32>
    3766:	c605                	beqz	a2,378e <xQueueGenericCreateStatic+0x56>
    3768:	e585                	bnez	a1,3790 <xQueueGenericCreateStatic+0x58>
    376a:	67a1                	lui	a5,0x8
    376c:	80078793          	addi	a5,a5,-2048 # 7800 <mem_free+0x5a>
    3770:	30079073          	csrw	mstatus,a5
    3774:	0000d637          	lui	a2,0xd
    3778:	0000d537          	lui	a0,0xd
    377c:	ba860613          	addi	a2,a2,-1112 # cba8 <MemSize+0xa0>
    3780:	18200593          	li	a1,386
    3784:	b4050513          	addi	a0,a0,-1216 # cb40 <MemSize+0x38>
    3788:	5a6080ef          	jal	ra,bd2e <iprintf>
    378c:	a001                	j	378c <xQueueGenericCreateStatic+0x54>
    378e:	fdf1                	bnez	a1,376a <xQueueGenericCreateStatic+0x32>
    3790:	04800793          	li	a5,72
    3794:	ce3e                	sw	a5,28(sp)
    3796:	4772                	lw	a4,28(sp)
    3798:	02f70463          	beq	a4,a5,37c0 <xQueueGenericCreateStatic+0x88>
    379c:	67a1                	lui	a5,0x8
    379e:	80078793          	addi	a5,a5,-2048 # 7800 <mem_free+0x5a>
    37a2:	30079073          	csrw	mstatus,a5
    37a6:	0000d637          	lui	a2,0xd
    37aa:	0000d537          	lui	a0,0xd
    37ae:	ba860613          	addi	a2,a2,-1112 # cba8 <MemSize+0xa0>
    37b2:	16b00593          	li	a1,363
    37b6:	b4050513          	addi	a0,a0,-1216 # cb40 <MemSize+0x38>
    37ba:	574080ef          	jal	ra,bd2e <iprintf>
    37be:	a001                	j	37be <xQueueGenericCreateStatic+0x86>
    37c0:	47f2                	lw	a5,28(sp)
    37c2:	4785                	li	a5,1
    37c4:	04f68323          	sb	a5,70(a3) # 80000046 <__freertos_irq_stack_top+0x5fff0046>
    37c8:	e191                	bnez	a1,37cc <xQueueGenericCreateStatic+0x94>
    37ca:	8636                	mv	a2,a3
    37cc:	c290                	sw	a2,0(a3)
    37ce:	dec8                	sw	a0,60(a3)
    37d0:	c2ac                	sw	a1,64(a3)
    37d2:	8536                	mv	a0,a3
    37d4:	4585                	li	a1,1
    37d6:	c636                	sw	a3,12(sp)
    37d8:	e9dff0ef          	jal	ra,3674 <xQueueGenericReset>
    37dc:	46b2                	lw	a3,12(sp)
    37de:	6105                	addi	sp,sp,32
    37e0:	8536                	mv	a0,a3
    37e2:	d59fc06f          	j	53a <__riscv_restore_0>

000037e6 <xQueueReceive>:
    37e6:	d09fc2ef          	jal	t0,4ee <__riscv_save_10>
    37ea:	1101                	addi	sp,sp,-32
    37ec:	c632                	sw	a2,12(sp)
    37ee:	e11d                	bnez	a0,3814 <xQueueReceive+0x2e>
    37f0:	67a1                	lui	a5,0x8
    37f2:	80078793          	addi	a5,a5,-2048 # 7800 <mem_free+0x5a>
    37f6:	30079073          	csrw	mstatus,a5
    37fa:	0000d637          	lui	a2,0xd
    37fe:	0000d537          	lui	a0,0xd
    3802:	ba860613          	addi	a2,a2,-1112 # cba8 <MemSize+0xa0>
    3806:	55100593          	li	a1,1361
    380a:	b4050513          	addi	a0,a0,-1216 # cb40 <MemSize+0x38>
    380e:	520080ef          	jal	ra,bd2e <iprintf>
    3812:	a001                	j	3812 <xQueueReceive+0x2c>
    3814:	842a                	mv	s0,a0
    3816:	89ae                	mv	s3,a1
    3818:	e58d                	bnez	a1,3842 <xQueueReceive+0x5c>
    381a:	413c                	lw	a5,64(a0)
    381c:	c39d                	beqz	a5,3842 <xQueueReceive+0x5c>
    381e:	67a1                	lui	a5,0x8
    3820:	80078793          	addi	a5,a5,-2048 # 7800 <mem_free+0x5a>
    3824:	30079073          	csrw	mstatus,a5
    3828:	0000d637          	lui	a2,0xd
    382c:	0000d537          	lui	a0,0xd
    3830:	ba860613          	addi	a2,a2,-1112 # cba8 <MemSize+0xa0>
    3834:	55500593          	li	a1,1365
    3838:	b4050513          	addi	a0,a0,-1216 # cb40 <MemSize+0x38>
    383c:	4f2080ef          	jal	ra,bd2e <iprintf>
    3840:	a001                	j	3840 <xQueueReceive+0x5a>
    3842:	5bd000ef          	jal	ra,45fe <xTaskGetSchedulerState>
    3846:	e515                	bnez	a0,3872 <xQueueReceive+0x8c>
    3848:	47b2                	lw	a5,12(sp)
    384a:	4901                	li	s2,0
    384c:	c785                	beqz	a5,3874 <xQueueReceive+0x8e>
    384e:	67a1                	lui	a5,0x8
    3850:	80078793          	addi	a5,a5,-2048 # 7800 <mem_free+0x5a>
    3854:	30079073          	csrw	mstatus,a5
    3858:	0000d637          	lui	a2,0xd
    385c:	0000d537          	lui	a0,0xd
    3860:	ba860613          	addi	a2,a2,-1112 # cba8 <MemSize+0xa0>
    3864:	55a00593          	li	a1,1370
    3868:	b4050513          	addi	a0,a0,-1216 # cb40 <MemSize+0x38>
    386c:	4c2080ef          	jal	ra,bd2e <iprintf>
    3870:	a001                	j	3870 <xQueueReceive+0x8a>
    3872:	4901                	li	s2,0
    3874:	5a7d                	li	s4,-1
    3876:	02440a93          	addi	s5,s0,36
    387a:	e000eb37          	lui	s6,0xe000e
    387e:	6b91                	lui	s7,0x4
    3880:	a88d                	j	38f2 <xQueueReceive+0x10c>
    3882:	47b2                	lw	a5,12(sp)
    3884:	e789                	bnez	a5,388e <xQueueReceive+0xa8>
    3886:	9f7ff0ef          	jal	ra,327c <vPortExitCritical>
    388a:	4501                	li	a0,0
    388c:	a861                	j	3924 <xQueueReceive+0x13e>
    388e:	00091563          	bnez	s2,3898 <xQueueReceive+0xb2>
    3892:	0828                	addi	a0,sp,24
    3894:	497000ef          	jal	ra,452a <vTaskInternalSetTimeOutState>
    3898:	9e5ff0ef          	jal	ra,327c <vPortExitCritical>
    389c:	2b55                	jal	3e50 <vTaskSuspendAll>
    389e:	9c9ff0ef          	jal	ra,3266 <vPortEnterCritical>
    38a2:	04444783          	lbu	a5,68(s0)
    38a6:	07e2                	slli	a5,a5,0x18
    38a8:	87e1                	srai	a5,a5,0x18
    38aa:	01479463          	bne	a5,s4,38b2 <xQueueReceive+0xcc>
    38ae:	04040223          	sb	zero,68(s0)
    38b2:	04544783          	lbu	a5,69(s0)
    38b6:	07e2                	slli	a5,a5,0x18
    38b8:	87e1                	srai	a5,a5,0x18
    38ba:	01479463          	bne	a5,s4,38c2 <xQueueReceive+0xdc>
    38be:	040402a3          	sb	zero,69(s0)
    38c2:	9bbff0ef          	jal	ra,327c <vPortExitCritical>
    38c6:	006c                	addi	a1,sp,12
    38c8:	0828                	addi	a0,sp,24
    38ca:	46f000ef          	jal	ra,4538 <xTaskCheckForTimeOut>
    38ce:	e525                	bnez	a0,3936 <xQueueReceive+0x150>
    38d0:	8522                	mv	a0,s0
    38d2:	ce7ff0ef          	jal	ra,35b8 <prvIsQueueEmpty>
    38d6:	c931                	beqz	a0,392a <xQueueReceive+0x144>
    38d8:	45b2                	lw	a1,12(sp)
    38da:	8556                	mv	a0,s5
    38dc:	13b000ef          	jal	ra,4216 <vTaskPlaceOnEventList>
    38e0:	8522                	mv	a0,s0
    38e2:	d1dff0ef          	jal	ra,35fe <prvUnlockQueue>
    38e6:	6fc000ef          	jal	ra,3fe2 <xTaskResumeAll>
    38ea:	e119                	bnez	a0,38f0 <xQueueReceive+0x10a>
    38ec:	217b2023          	sw	s7,512(s6) # e000e200 <__freertos_irq_stack_top+0xbfffe200>
    38f0:	4905                	li	s2,1
    38f2:	975ff0ef          	jal	ra,3266 <vPortEnterCritical>
    38f6:	5c04                	lw	s1,56(s0)
    38f8:	d4c9                	beqz	s1,3882 <xQueueReceive+0x9c>
    38fa:	85ce                	mv	a1,s3
    38fc:	8522                	mv	a0,s0
    38fe:	14fd                	addi	s1,s1,-1
    3900:	cd7ff0ef          	jal	ra,35d6 <prvCopyDataFromQueue>
    3904:	dc04                	sw	s1,56(s0)
    3906:	481c                	lw	a5,16(s0)
    3908:	cb99                	beqz	a5,391e <xQueueReceive+0x138>
    390a:	01040513          	addi	a0,s0,16
    390e:	257000ef          	jal	ra,4364 <xTaskRemoveFromEventList>
    3912:	c511                	beqz	a0,391e <xQueueReceive+0x138>
    3914:	e000e7b7          	lui	a5,0xe000e
    3918:	6711                	lui	a4,0x4
    391a:	20e7a023          	sw	a4,512(a5) # e000e200 <__freertos_irq_stack_top+0xbfffe200>
    391e:	95fff0ef          	jal	ra,327c <vPortExitCritical>
    3922:	4505                	li	a0,1
    3924:	6105                	addi	sp,sp,32
    3926:	c01fc06f          	j	526 <__riscv_restore_10>
    392a:	8522                	mv	a0,s0
    392c:	cd3ff0ef          	jal	ra,35fe <prvUnlockQueue>
    3930:	6b2000ef          	jal	ra,3fe2 <xTaskResumeAll>
    3934:	bf75                	j	38f0 <xQueueReceive+0x10a>
    3936:	8522                	mv	a0,s0
    3938:	cc7ff0ef          	jal	ra,35fe <prvUnlockQueue>
    393c:	6a6000ef          	jal	ra,3fe2 <xTaskResumeAll>
    3940:	8522                	mv	a0,s0
    3942:	c77ff0ef          	jal	ra,35b8 <prvIsQueueEmpty>
    3946:	d54d                	beqz	a0,38f0 <xQueueReceive+0x10a>
    3948:	b789                	j	388a <xQueueReceive+0xa4>

0000394a <vQueueAddToRegistry>:
    394a:	e515                	bnez	a0,3976 <vQueueAddToRegistry+0x2c>
    394c:	bcbfc2ef          	jal	t0,516 <__riscv_save_0>
    3950:	67a1                	lui	a5,0x8
    3952:	80078793          	addi	a5,a5,-2048 # 7800 <mem_free+0x5a>
    3956:	30079073          	csrw	mstatus,a5
    395a:	0000d637          	lui	a2,0xd
    395e:	6585                	lui	a1,0x1
    3960:	0000d537          	lui	a0,0xd
    3964:	ba860613          	addi	a2,a2,-1112 # cba8 <MemSize+0xa0>
    3968:	ac858593          	addi	a1,a1,-1336 # ac8 <eMBTCPSend>
    396c:	b4050513          	addi	a0,a0,-1216 # cb40 <MemSize+0x38>
    3970:	3be080ef          	jal	ra,bd2e <iprintf>
    3974:	a001                	j	3974 <vQueueAddToRegistry+0x2a>
    3976:	cd9d                	beqz	a1,39b4 <vQueueAddToRegistry+0x6a>
    3978:	2000a637          	lui	a2,0x2000a
    397c:	01460693          	addi	a3,a2,20 # 2000a014 <xQueueRegistry>
    3980:	4781                	li	a5,0
    3982:	4701                	li	a4,0
    3984:	01460613          	addi	a2,a2,20
    3988:	4821                	li	a6,8
    398a:	0046a883          	lw	a7,4(a3)
    398e:	00a89863          	bne	a7,a0,399e <vQueueAddToRegistry+0x54>
    3992:	00371793          	slli	a5,a4,0x3
    3996:	97b2                	add	a5,a5,a2
    3998:	c38c                	sw	a1,0(a5)
    399a:	c3c8                	sw	a0,4(a5)
    399c:	a821                	j	39b4 <vQueueAddToRegistry+0x6a>
    399e:	e791                	bnez	a5,39aa <vQueueAddToRegistry+0x60>
    39a0:	0006a883          	lw	a7,0(a3)
    39a4:	00089363          	bnez	a7,39aa <vQueueAddToRegistry+0x60>
    39a8:	87b6                	mv	a5,a3
    39aa:	0705                	addi	a4,a4,1
    39ac:	06a1                	addi	a3,a3,8
    39ae:	fd071ee3          	bne	a4,a6,398a <vQueueAddToRegistry+0x40>
    39b2:	f3fd                	bnez	a5,3998 <vQueueAddToRegistry+0x4e>
    39b4:	8082                	ret

000039b6 <vQueueWaitForMessageRestricted>:
    39b6:	b61fc2ef          	jal	t0,516 <__riscv_save_0>
    39ba:	1141                	addi	sp,sp,-16
    39bc:	842a                	mv	s0,a0
    39be:	c62e                	sw	a1,12(sp)
    39c0:	c432                	sw	a2,8(sp)
    39c2:	8a5ff0ef          	jal	ra,3266 <vPortEnterCritical>
    39c6:	04444783          	lbu	a5,68(s0)
    39ca:	577d                	li	a4,-1
    39cc:	4622                	lw	a2,8(sp)
    39ce:	07e2                	slli	a5,a5,0x18
    39d0:	87e1                	srai	a5,a5,0x18
    39d2:	45b2                	lw	a1,12(sp)
    39d4:	00e79463          	bne	a5,a4,39dc <vQueueWaitForMessageRestricted+0x26>
    39d8:	04040223          	sb	zero,68(s0)
    39dc:	04544783          	lbu	a5,69(s0)
    39e0:	577d                	li	a4,-1
    39e2:	07e2                	slli	a5,a5,0x18
    39e4:	87e1                	srai	a5,a5,0x18
    39e6:	00e79463          	bne	a5,a4,39ee <vQueueWaitForMessageRestricted+0x38>
    39ea:	040402a3          	sb	zero,69(s0)
    39ee:	c632                	sw	a2,12(sp)
    39f0:	c42e                	sw	a1,8(sp)
    39f2:	88bff0ef          	jal	ra,327c <vPortExitCritical>
    39f6:	5c1c                	lw	a5,56(s0)
    39f8:	45a2                	lw	a1,8(sp)
    39fa:	4632                	lw	a2,12(sp)
    39fc:	e789                	bnez	a5,3a06 <vQueueWaitForMessageRestricted+0x50>
    39fe:	02440513          	addi	a0,s0,36
    3a02:	0f1000ef          	jal	ra,42f2 <vTaskPlaceOnEventListRestricted>
    3a06:	8522                	mv	a0,s0
    3a08:	bf7ff0ef          	jal	ra,35fe <prvUnlockQueue>
    3a0c:	0141                	addi	sp,sp,16
    3a0e:	b2dfc06f          	j	53a <__riscv_restore_0>

00003a12 <prvAddNewTaskToReadyList>:
    3a12:	aebfc2ef          	jal	t0,4fc <__riscv_save_4>
    3a16:	842a                	mv	s0,a0
    3a18:	84fff0ef          	jal	ra,3266 <vPortEnterCritical>
    3a1c:	93c18793          	addi	a5,gp,-1732 # 2000023c <uxCurrentNumberOfTasks>
    3a20:	4398                	lw	a4,0(a5)
    3a22:	2000a9b7          	lui	s3,0x2000a
    3a26:	0705                	addi	a4,a4,1
    3a28:	c398                	sw	a4,0(a5)
    3a2a:	93018713          	addi	a4,gp,-1744 # 20000230 <pxCurrentTCB>
    3a2e:	4318                	lw	a4,0(a4)
    3a30:	93018493          	addi	s1,gp,-1744 # 20000230 <pxCurrentTCB>
    3a34:	05498913          	addi	s2,s3,84 # 2000a054 <pxReadyTasksLists>
    3a38:	e761                	bnez	a4,3b00 <prvAddNewTaskToReadyList+0xee>
    3a3a:	c080                	sw	s0,0(s1)
    3a3c:	4398                	lw	a4,0(a5)
    3a3e:	4785                	li	a5,1
    3a40:	06f71263          	bne	a4,a5,3aa4 <prvAddNewTaskToReadyList+0x92>
    3a44:	05498993          	addi	s3,s3,84
    3a48:	12c90a13          	addi	s4,s2,300 # 100012c <_data_lma+0xff340c>
    3a4c:	854e                	mv	a0,s3
    3a4e:	09d1                	addi	s3,s3,20
    3a50:	b01ff0ef          	jal	ra,3550 <vListInitialise>
    3a54:	ff3a1ce3          	bne	s4,s3,3a4c <prvAddNewTaskToReadyList+0x3a>
    3a58:	2000a537          	lui	a0,0x2000a
    3a5c:	18050a13          	addi	s4,a0,384 # 2000a180 <xDelayedTaskList1>
    3a60:	18050513          	addi	a0,a0,384
    3a64:	aedff0ef          	jal	ra,3550 <vListInitialise>
    3a68:	2000a537          	lui	a0,0x2000a
    3a6c:	19450993          	addi	s3,a0,404 # 2000a194 <xDelayedTaskList2>
    3a70:	19450513          	addi	a0,a0,404
    3a74:	addff0ef          	jal	ra,3550 <vListInitialise>
    3a78:	2000a537          	lui	a0,0x2000a
    3a7c:	1a850513          	addi	a0,a0,424 # 2000a1a8 <xPendingReadyList>
    3a80:	ad1ff0ef          	jal	ra,3550 <vListInitialise>
    3a84:	2000a537          	lui	a0,0x2000a
    3a88:	1d050513          	addi	a0,a0,464 # 2000a1d0 <xTasksWaitingTermination>
    3a8c:	ac5ff0ef          	jal	ra,3550 <vListInitialise>
    3a90:	2000a537          	lui	a0,0x2000a
    3a94:	1bc50513          	addi	a0,a0,444 # 2000a1bc <xSuspendedTaskList>
    3a98:	ab9ff0ef          	jal	ra,3550 <vListInitialise>
    3a9c:	9341aa23          	sw	s4,-1740(gp) # 20000234 <pxDelayedTaskList>
    3aa0:	9331ac23          	sw	s3,-1736(gp) # 20000238 <pxOverflowDelayedTaskList>
    3aa4:	94818793          	addi	a5,gp,-1720 # 20000248 <uxTaskNumber>
    3aa8:	4398                	lw	a4,0(a5)
    3aaa:	0705                	addi	a4,a4,1
    3aac:	c398                	sw	a4,0(a5)
    3aae:	94c18713          	addi	a4,gp,-1716 # 2000024c <uxTopReadyPriority>
    3ab2:	545c                	lw	a5,44(s0)
    3ab4:	4314                	lw	a3,0(a4)
    3ab6:	00f6f363          	bgeu	a3,a5,3abc <prvAddNewTaskToReadyList+0xaa>
    3aba:	c31c                	sw	a5,0(a4)
    3abc:	4751                	li	a4,20
    3abe:	02e787b3          	mul	a5,a5,a4
    3ac2:	97ca                	add	a5,a5,s2
    3ac4:	43d8                	lw	a4,4(a5)
    3ac6:	4714                	lw	a3,8(a4)
    3ac8:	c418                	sw	a4,8(s0)
    3aca:	c454                	sw	a3,12(s0)
    3acc:	4710                	lw	a2,8(a4)
    3ace:	00440693          	addi	a3,s0,4
    3ad2:	c254                	sw	a3,4(a2)
    3ad4:	c714                	sw	a3,8(a4)
    3ad6:	4398                	lw	a4,0(a5)
    3ad8:	c85c                	sw	a5,20(s0)
    3ada:	0705                	addi	a4,a4,1
    3adc:	c398                	sw	a4,0(a5)
    3ade:	f9eff0ef          	jal	ra,327c <vPortExitCritical>
    3ae2:	95c1a783          	lw	a5,-1700(gp) # 2000025c <xSchedulerRunning>
    3ae6:	cb99                	beqz	a5,3afc <prvAddNewTaskToReadyList+0xea>
    3ae8:	409c                	lw	a5,0(s1)
    3aea:	57d8                	lw	a4,44(a5)
    3aec:	545c                	lw	a5,44(s0)
    3aee:	00f77763          	bgeu	a4,a5,3afc <prvAddNewTaskToReadyList+0xea>
    3af2:	e000e7b7          	lui	a5,0xe000e
    3af6:	6711                	lui	a4,0x4
    3af8:	20e7a023          	sw	a4,512(a5) # e000e200 <__freertos_irq_stack_top+0xbfffe200>
    3afc:	a35fc06f          	j	530 <__riscv_restore_4>
    3b00:	95c1a783          	lw	a5,-1700(gp) # 2000025c <xSchedulerRunning>
    3b04:	f3c5                	bnez	a5,3aa4 <prvAddNewTaskToReadyList+0x92>
    3b06:	409c                	lw	a5,0(s1)
    3b08:	57d8                	lw	a4,44(a5)
    3b0a:	545c                	lw	a5,44(s0)
    3b0c:	f8e7ece3          	bltu	a5,a4,3aa4 <prvAddNewTaskToReadyList+0x92>
    3b10:	c080                	sw	s0,0(s1)
    3b12:	bf49                	j	3aa4 <prvAddNewTaskToReadyList+0x92>

00003b14 <prvResetNextTaskUnblockTime>:
    3b14:	93418713          	addi	a4,gp,-1740 # 20000234 <pxDelayedTaskList>
    3b18:	431c                	lw	a5,0(a4)
    3b1a:	4394                	lw	a3,0(a5)
    3b1c:	95018793          	addi	a5,gp,-1712 # 20000250 <xNextTaskUnblockTime>
    3b20:	e681                	bnez	a3,3b28 <prvResetNextTaskUnblockTime+0x14>
    3b22:	577d                	li	a4,-1
    3b24:	c398                	sw	a4,0(a5)
    3b26:	8082                	ret
    3b28:	4318                	lw	a4,0(a4)
    3b2a:	4758                	lw	a4,12(a4)
    3b2c:	4318                	lw	a4,0(a4)
    3b2e:	bfdd                	j	3b24 <prvResetNextTaskUnblockTime+0x10>

00003b30 <prvInitialiseNewTask.isra.2>:
    3b30:	9cdfc2ef          	jal	t0,4fc <__riscv_save_4>
    3b34:	1141                	addi	sp,sp,-16
    3b36:	89aa                	mv	s3,a0
    3b38:	84b2                	mv	s1,a2
    3b3a:	8442                	mv	s0,a6
    3b3c:	03082903          	lw	s2,48(a6)
    3b40:	c5b1                	beqz	a1,3b8c <prvInitialiseNewTask.isra.2+0x5c>
    3b42:	4801                	li	a6,0
    3b44:	4641                	li	a2,16
    3b46:	01058533          	add	a0,a1,a6
    3b4a:	00050503          	lb	a0,0(a0)
    3b4e:	010408b3          	add	a7,s0,a6
    3b52:	02a88a23          	sb	a0,52(a7) # 40100034 <__freertos_irq_stack_top+0x200f0034>
    3b56:	c501                	beqz	a0,3b5e <prvInitialiseNewTask.isra.2+0x2e>
    3b58:	0805                	addi	a6,a6,1
    3b5a:	fec816e3          	bne	a6,a2,3b46 <prvInitialiseNewTask.isra.2+0x16>
    3b5e:	040401a3          	sb	zero,67(s0)
    3b62:	4639                	li	a2,14
    3b64:	02e67763          	bgeu	a2,a4,3b92 <prvInitialiseNewTask.isra.2+0x62>
    3b68:	67a1                	lui	a5,0x8
    3b6a:	80078793          	addi	a5,a5,-2048 # 7800 <mem_free+0x5a>
    3b6e:	30079073          	csrw	mstatus,a5
    3b72:	0000d637          	lui	a2,0xd
    3b76:	0000d537          	lui	a0,0xd
    3b7a:	bbc60613          	addi	a2,a2,-1092 # cbbc <MemSize+0xb4>
    3b7e:	39700593          	li	a1,919
    3b82:	b4050513          	addi	a0,a0,-1216 # cb40 <MemSize+0x38>
    3b86:	1a8080ef          	jal	ra,bd2e <iprintf>
    3b8a:	a001                	j	3b8a <prvInitialiseNewTask.isra.2+0x5a>
    3b8c:	02080a23          	sb	zero,52(a6)
    3b90:	bfc9                	j	3b62 <prvInitialiseNewTask.isra.2+0x32>
    3b92:	d458                	sw	a4,44(s0)
    3b94:	c078                	sw	a4,68(s0)
    3b96:	00440513          	addi	a0,s0,4
    3b9a:	04042423          	sw	zero,72(s0)
    3b9e:	c63e                	sw	a5,12(sp)
    3ba0:	c436                	sw	a3,8(sp)
    3ba2:	c23a                	sw	a4,4(sp)
    3ba4:	9c1ff0ef          	jal	ra,3564 <vListInitialiseItem>
    3ba8:	01840513          	addi	a0,s0,24
    3bac:	9b9ff0ef          	jal	ra,3564 <vListInitialiseItem>
    3bb0:	4712                	lw	a4,4(sp)
    3bb2:	46a2                	lw	a3,8(sp)
    3bb4:	00249513          	slli	a0,s1,0x2
    3bb8:	45bd                	li	a1,15
    3bba:	1571                	addi	a0,a0,-4
    3bbc:	40e58733          	sub	a4,a1,a4
    3bc0:	954a                	add	a0,a0,s2
    3bc2:	c800                	sw	s0,16(s0)
    3bc4:	cc18                	sw	a4,24(s0)
    3bc6:	d040                	sw	s0,36(s0)
    3bc8:	04040623          	sb	zero,76(s0)
    3bcc:	040406a3          	sb	zero,77(s0)
    3bd0:	04040723          	sb	zero,78(s0)
    3bd4:	040407a3          	sb	zero,79(s0)
    3bd8:	04040823          	sb	zero,80(s0)
    3bdc:	04040923          	sb	zero,82(s0)
    3be0:	8636                	mv	a2,a3
    3be2:	85ce                	mv	a1,s3
    3be4:	9941                	andi	a0,a0,-16
    3be6:	81bfc0ef          	jal	ra,400 <pxPortInitialiseStack>
    3bea:	47b2                	lw	a5,12(sp)
    3bec:	c008                	sw	a0,0(s0)
    3bee:	c391                	beqz	a5,3bf2 <prvInitialiseNewTask.isra.2+0xc2>
    3bf0:	c380                	sw	s0,0(a5)
    3bf2:	0141                	addi	sp,sp,16
    3bf4:	93dfc06f          	j	530 <__riscv_restore_4>

00003bf8 <prvDeleteTCB>:
    3bf8:	91ffc2ef          	jal	t0,516 <__riscv_save_0>
    3bfc:	05154783          	lbu	a5,81(a0)
    3c00:	eb91                	bnez	a5,3c14 <prvDeleteTCB+0x1c>
    3c02:	842a                	mv	s0,a0
    3c04:	5908                	lw	a0,48(a0)
    3c06:	cc6ff0ef          	jal	ra,30cc <vPortFree>
    3c0a:	8522                	mv	a0,s0
    3c0c:	cc0ff0ef          	jal	ra,30cc <vPortFree>
    3c10:	92bfc06f          	j	53a <__riscv_restore_0>
    3c14:	4705                	li	a4,1
    3c16:	fee78be3          	beq	a5,a4,3c0c <prvDeleteTCB+0x14>
    3c1a:	4709                	li	a4,2
    3c1c:	fee78ae3          	beq	a5,a4,3c10 <prvDeleteTCB+0x18>
    3c20:	67a1                	lui	a5,0x8
    3c22:	80078793          	addi	a5,a5,-2048 # 7800 <mem_free+0x5a>
    3c26:	30079073          	csrw	mstatus,a5
    3c2a:	0000d637          	lui	a2,0xd
    3c2e:	6585                	lui	a1,0x1
    3c30:	0000d537          	lui	a0,0xd
    3c34:	bbc60613          	addi	a2,a2,-1092 # cbbc <MemSize+0xb4>
    3c38:	f9c58593          	addi	a1,a1,-100 # f9c <eMBFuncReadInputRegister+0x68>
    3c3c:	b4050513          	addi	a0,a0,-1216 # cb40 <MemSize+0x38>
    3c40:	0ee080ef          	jal	ra,bd2e <iprintf>
    3c44:	a001                	j	3c44 <prvDeleteTCB+0x4c>

00003c46 <prvIdleTask>:
    3c46:	8b7fc2ef          	jal	t0,4fc <__riscv_save_4>
    3c4a:	2000a437          	lui	s0,0x2000a
    3c4e:	1d040413          	addi	s0,s0,464 # 2000a1d0 <xTasksWaitingTermination>
    3c52:	94018493          	addi	s1,gp,-1728 # 20000240 <uxDeletedTasksWaitingCleanUp>
    3c56:	409c                	lw	a5,0(s1)
    3c58:	dfed                	beqz	a5,3c52 <prvIdleTask+0xc>
    3c5a:	e0cff0ef          	jal	ra,3266 <vPortEnterCritical>
    3c5e:	445c                	lw	a5,12(s0)
    3c60:	00c7a903          	lw	s2,12(a5)
    3c64:	00490513          	addi	a0,s2,4
    3c68:	931ff0ef          	jal	ra,3598 <uxListRemove>
    3c6c:	93c18713          	addi	a4,gp,-1732 # 2000023c <uxCurrentNumberOfTasks>
    3c70:	431c                	lw	a5,0(a4)
    3c72:	17fd                	addi	a5,a5,-1
    3c74:	c31c                	sw	a5,0(a4)
    3c76:	409c                	lw	a5,0(s1)
    3c78:	17fd                	addi	a5,a5,-1
    3c7a:	c09c                	sw	a5,0(s1)
    3c7c:	e00ff0ef          	jal	ra,327c <vPortExitCritical>
    3c80:	854a                	mv	a0,s2
    3c82:	f77ff0ef          	jal	ra,3bf8 <prvDeleteTCB>
    3c86:	b7f1                	j	3c52 <prvIdleTask+0xc>

00003c88 <prvAddCurrentTaskToDelayedList>:
    3c88:	875fc2ef          	jal	t0,4fc <__riscv_save_4>
    3c8c:	93018493          	addi	s1,gp,-1744 # 20000230 <pxCurrentTCB>
    3c90:	9601a983          	lw	s3,-1696(gp) # 20000260 <xTickCount>
    3c94:	842a                	mv	s0,a0
    3c96:	409c                	lw	a5,0(s1)
    3c98:	4088                	lw	a0,0(s1)
    3c9a:	1141                	addi	sp,sp,-16
    3c9c:	04078923          	sb	zero,82(a5)
    3ca0:	0511                	addi	a0,a0,4
    3ca2:	c62e                	sw	a1,12(sp)
    3ca4:	8f5ff0ef          	jal	ra,3598 <uxListRemove>
    3ca8:	577d                	li	a4,-1
    3caa:	93018793          	addi	a5,gp,-1744 # 20000230 <pxCurrentTCB>
    3cae:	45b2                	lw	a1,12(sp)
    3cb0:	02e41c63          	bne	s0,a4,3ce8 <prvAddCurrentTaskToDelayedList+0x60>
    3cb4:	c995                	beqz	a1,3ce8 <prvAddCurrentTaskToDelayedList+0x60>
    3cb6:	2000a7b7          	lui	a5,0x2000a
    3cba:	1bc78793          	addi	a5,a5,444 # 2000a1bc <xSuspendedTaskList>
    3cbe:	4094                	lw	a3,0(s1)
    3cc0:	43d8                	lw	a4,4(a5)
    3cc2:	c698                	sw	a4,8(a3)
    3cc4:	4710                	lw	a2,8(a4)
    3cc6:	4094                	lw	a3,0(s1)
    3cc8:	c6d0                	sw	a2,12(a3)
    3cca:	4094                	lw	a3,0(s1)
    3ccc:	4710                	lw	a2,8(a4)
    3cce:	0691                	addi	a3,a3,4
    3cd0:	c254                	sw	a3,4(a2)
    3cd2:	4094                	lw	a3,0(s1)
    3cd4:	0691                	addi	a3,a3,4
    3cd6:	c714                	sw	a3,8(a4)
    3cd8:	4098                	lw	a4,0(s1)
    3cda:	cb5c                	sw	a5,20(a4)
    3cdc:	4398                	lw	a4,0(a5)
    3cde:	0705                	addi	a4,a4,1
    3ce0:	c398                	sw	a4,0(a5)
    3ce2:	0141                	addi	sp,sp,16
    3ce4:	84dfc06f          	j	530 <__riscv_restore_4>
    3ce8:	4398                	lw	a4,0(a5)
    3cea:	944e                	add	s0,s0,s3
    3cec:	c340                	sw	s0,4(a4)
    3cee:	01347963          	bgeu	s0,s3,3d00 <prvAddCurrentTaskToDelayedList+0x78>
    3cf2:	9381a503          	lw	a0,-1736(gp) # 20000238 <pxOverflowDelayedTaskList>
    3cf6:	438c                	lw	a1,0(a5)
    3cf8:	0591                	addi	a1,a1,4
    3cfa:	871ff0ef          	jal	ra,356a <vListInsert>
    3cfe:	b7d5                	j	3ce2 <prvAddCurrentTaskToDelayedList+0x5a>
    3d00:	9341a503          	lw	a0,-1740(gp) # 20000234 <pxDelayedTaskList>
    3d04:	438c                	lw	a1,0(a5)
    3d06:	0591                	addi	a1,a1,4
    3d08:	863ff0ef          	jal	ra,356a <vListInsert>
    3d0c:	95018793          	addi	a5,gp,-1712 # 20000250 <xNextTaskUnblockTime>
    3d10:	4398                	lw	a4,0(a5)
    3d12:	fce478e3          	bgeu	s0,a4,3ce2 <prvAddCurrentTaskToDelayedList+0x5a>
    3d16:	c380                	sw	s0,0(a5)
    3d18:	b7e9                	j	3ce2 <prvAddCurrentTaskToDelayedList+0x5a>

00003d1a <xTaskCreateStatic>:
    3d1a:	ffcfc2ef          	jal	t0,516 <__riscv_save_0>
    3d1e:	1141                	addi	sp,sp,-16
    3d20:	e39d                	bnez	a5,3d46 <xTaskCreateStatic+0x2c>
    3d22:	67a1                	lui	a5,0x8
    3d24:	80078793          	addi	a5,a5,-2048 # 7800 <mem_free+0x5a>
    3d28:	30079073          	csrw	mstatus,a5
    3d2c:	0000d637          	lui	a2,0xd
    3d30:	0000d537          	lui	a0,0xd
    3d34:	bbc60613          	addi	a2,a2,-1092 # cbbc <MemSize+0xb4>
    3d38:	24a00593          	li	a1,586
    3d3c:	b4050513          	addi	a0,a0,-1216 # cb40 <MemSize+0x38>
    3d40:	7ef070ef          	jal	ra,bd2e <iprintf>
    3d44:	a001                	j	3d44 <xTaskCreateStatic+0x2a>
    3d46:	8442                	mv	s0,a6
    3d48:	02081463          	bnez	a6,3d70 <xTaskCreateStatic+0x56>
    3d4c:	67a1                	lui	a5,0x8
    3d4e:	80078793          	addi	a5,a5,-2048 # 7800 <mem_free+0x5a>
    3d52:	30079073          	csrw	mstatus,a5
    3d56:	0000d637          	lui	a2,0xd
    3d5a:	0000d537          	lui	a0,0xd
    3d5e:	bbc60613          	addi	a2,a2,-1092 # cbbc <MemSize+0xb4>
    3d62:	24b00593          	li	a1,587
    3d66:	b4050513          	addi	a0,a0,-1216 # cb40 <MemSize+0x38>
    3d6a:	7c5070ef          	jal	ra,bd2e <iprintf>
    3d6e:	a001                	j	3d6e <xTaskCreateStatic+0x54>
    3d70:	05400893          	li	a7,84
    3d74:	c646                	sw	a7,12(sp)
    3d76:	4332                	lw	t1,12(sp)
    3d78:	03130463          	beq	t1,a7,3da0 <xTaskCreateStatic+0x86>
    3d7c:	67a1                	lui	a5,0x8
    3d7e:	80078793          	addi	a5,a5,-2048 # 7800 <mem_free+0x5a>
    3d82:	30079073          	csrw	mstatus,a5
    3d86:	0000d637          	lui	a2,0xd
    3d8a:	0000d537          	lui	a0,0xd
    3d8e:	bbc60613          	addi	a2,a2,-1092 # cbbc <MemSize+0xb4>
    3d92:	25300593          	li	a1,595
    3d96:	b4050513          	addi	a0,a0,-1216 # cb40 <MemSize+0x38>
    3d9a:	795070ef          	jal	ra,bd2e <iprintf>
    3d9e:	a001                	j	3d9e <xTaskCreateStatic+0x84>
    3da0:	48b2                	lw	a7,12(sp)
    3da2:	02f82823          	sw	a5,48(a6)
    3da6:	4789                	li	a5,2
    3da8:	04f808a3          	sb	a5,81(a6)
    3dac:	003c                	addi	a5,sp,8
    3dae:	d83ff0ef          	jal	ra,3b30 <prvInitialiseNewTask.isra.2>
    3db2:	8522                	mv	a0,s0
    3db4:	c5fff0ef          	jal	ra,3a12 <prvAddNewTaskToReadyList>
    3db8:	4522                	lw	a0,8(sp)
    3dba:	0141                	addi	sp,sp,16
    3dbc:	f7efc06f          	j	53a <__riscv_restore_0>

00003dc0 <vTaskStartScheduler>:
    3dc0:	f56fc2ef          	jal	t0,516 <__riscv_save_0>
    3dc4:	1141                	addi	sp,sp,-16
    3dc6:	0070                	addi	a2,sp,12
    3dc8:	002c                	addi	a1,sp,8
    3dca:	0048                	addi	a0,sp,4
    3dcc:	c202                	sw	zero,4(sp)
    3dce:	c402                	sw	zero,8(sp)
    3dd0:	fe4fd0ef          	jal	ra,15b4 <vApplicationGetIdleTaskMemory>
    3dd4:	4812                	lw	a6,4(sp)
    3dd6:	47a2                	lw	a5,8(sp)
    3dd8:	4632                	lw	a2,12(sp)
    3dda:	0000d5b7          	lui	a1,0xd
    3dde:	00004537          	lui	a0,0x4
    3de2:	4701                	li	a4,0
    3de4:	4681                	li	a3,0
    3de6:	bd058593          	addi	a1,a1,-1072 # cbd0 <MemSize+0xc8>
    3dea:	c4650513          	addi	a0,a0,-954 # 3c46 <prvIdleTask>
    3dee:	f2dff0ef          	jal	ra,3d1a <xTaskCreateStatic>
    3df2:	c505                	beqz	a0,3e1a <vTaskStartScheduler+0x5a>
    3df4:	2f9000ef          	jal	ra,48ec <xTimerCreateTimerTask>
    3df8:	4785                	li	a5,1
    3dfa:	02f51563          	bne	a0,a5,3e24 <vTaskStartScheduler+0x64>
    3dfe:	67a1                	lui	a5,0x8
    3e00:	80078793          	addi	a5,a5,-2048 # 7800 <mem_free+0x5a>
    3e04:	30079073          	csrw	mstatus,a5
    3e08:	577d                	li	a4,-1
    3e0a:	94e1a823          	sw	a4,-1712(gp) # 20000250 <xNextTaskUnblockTime>
    3e0e:	94a1ae23          	sw	a0,-1700(gp) # 2000025c <xSchedulerRunning>
    3e12:	9601a023          	sw	zero,-1696(gp) # 20000260 <xTickCount>
    3e16:	b8aff0ef          	jal	ra,31a0 <xPortStartScheduler>
    3e1a:	8281a783          	lw	a5,-2008(gp) # 20000128 <uxTopUsedPriority>
    3e1e:	0141                	addi	sp,sp,16
    3e20:	f1afc06f          	j	53a <__riscv_restore_0>
    3e24:	57fd                	li	a5,-1
    3e26:	fef51ae3          	bne	a0,a5,3e1a <vTaskStartScheduler+0x5a>
    3e2a:	67a1                	lui	a5,0x8
    3e2c:	80078793          	addi	a5,a5,-2048 # 7800 <mem_free+0x5a>
    3e30:	30079073          	csrw	mstatus,a5
    3e34:	0000d637          	lui	a2,0xd
    3e38:	6585                	lui	a1,0x1
    3e3a:	0000d537          	lui	a0,0xd
    3e3e:	bbc60613          	addi	a2,a2,-1092 # cbbc <MemSize+0xb4>
    3e42:	84058593          	addi	a1,a1,-1984 # 840 <__stack_size+0x40>
    3e46:	b4050513          	addi	a0,a0,-1216 # cb40 <MemSize+0x38>
    3e4a:	6e5070ef          	jal	ra,bd2e <iprintf>
    3e4e:	a001                	j	3e4e <vTaskStartScheduler+0x8e>

00003e50 <vTaskSuspendAll>:
    3e50:	94418793          	addi	a5,gp,-1724 # 20000244 <uxSchedulerSuspended>
    3e54:	4398                	lw	a4,0(a5)
    3e56:	0705                	addi	a4,a4,1
    3e58:	c398                	sw	a4,0(a5)
    3e5a:	8082                	ret

00003e5c <xTaskGetTickCount>:
    3e5c:	9601a503          	lw	a0,-1696(gp) # 20000260 <xTickCount>
    3e60:	8082                	ret

00003e62 <xTaskIncrementTick>:
    3e62:	9441a783          	lw	a5,-1724(gp) # 20000244 <uxSchedulerSuspended>
    3e66:	16079763          	bnez	a5,3fd4 <xTaskIncrementTick+0x172>
    3e6a:	eacfc2ef          	jal	t0,516 <__riscv_save_0>
    3e6e:	96018793          	addi	a5,gp,-1696 # 20000260 <xTickCount>
    3e72:	4380                	lw	s0,0(a5)
    3e74:	0405                	addi	s0,s0,1
    3e76:	c380                	sw	s0,0(a5)
    3e78:	e431                	bnez	s0,3ec4 <xTaskIncrementTick+0x62>
    3e7a:	93418793          	addi	a5,gp,-1740 # 20000234 <pxDelayedTaskList>
    3e7e:	4398                	lw	a4,0(a5)
    3e80:	4318                	lw	a4,0(a4)
    3e82:	c705                	beqz	a4,3eaa <xTaskIncrementTick+0x48>
    3e84:	67a1                	lui	a5,0x8
    3e86:	80078793          	addi	a5,a5,-2048 # 7800 <mem_free+0x5a>
    3e8a:	30079073          	csrw	mstatus,a5
    3e8e:	0000d637          	lui	a2,0xd
    3e92:	6585                	lui	a1,0x1
    3e94:	0000d537          	lui	a0,0xd
    3e98:	bbc60613          	addi	a2,a2,-1092 # cbbc <MemSize+0xb4>
    3e9c:	ac758593          	addi	a1,a1,-1337 # ac7 <eMBTCPReceive+0x49>
    3ea0:	b4050513          	addi	a0,a0,-1216 # cb40 <MemSize+0x38>
    3ea4:	68b070ef          	jal	ra,bd2e <iprintf>
    3ea8:	a001                	j	3ea8 <xTaskIncrementTick+0x46>
    3eaa:	93818713          	addi	a4,gp,-1736 # 20000238 <pxOverflowDelayedTaskList>
    3eae:	4394                	lw	a3,0(a5)
    3eb0:	4310                	lw	a2,0(a4)
    3eb2:	c390                	sw	a2,0(a5)
    3eb4:	c314                	sw	a3,0(a4)
    3eb6:	95418793          	addi	a5,gp,-1708 # 20000254 <xNumOfOverflows>
    3eba:	4398                	lw	a4,0(a5)
    3ebc:	0705                	addi	a4,a4,1
    3ebe:	c398                	sw	a4,0(a5)
    3ec0:	c55ff0ef          	jal	ra,3b14 <prvResetNextTaskUnblockTime>
    3ec4:	95018793          	addi	a5,gp,-1712 # 20000250 <xNextTaskUnblockTime>
    3ec8:	439c                	lw	a5,0(a5)
    3eca:	2000a737          	lui	a4,0x2000a
    3ece:	95018613          	addi	a2,gp,-1712 # 20000250 <xNextTaskUnblockTime>
    3ed2:	05470713          	addi	a4,a4,84 # 2000a054 <pxReadyTasksLists>
    3ed6:	93018593          	addi	a1,gp,-1744 # 20000230 <pxCurrentTCB>
    3eda:	4501                	li	a0,0
    3edc:	02f47363          	bgeu	s0,a5,3f02 <xTaskIncrementTick+0xa0>
    3ee0:	419c                	lw	a5,0(a1)
    3ee2:	46d1                	li	a3,20
    3ee4:	57dc                	lw	a5,44(a5)
    3ee6:	02d787b3          	mul	a5,a5,a3
    3eea:	973e                	add	a4,a4,a5
    3eec:	4318                	lw	a4,0(a4)
    3eee:	4785                	li	a5,1
    3ef0:	00e7f363          	bgeu	a5,a4,3ef6 <xTaskIncrementTick+0x94>
    3ef4:	4505                	li	a0,1
    3ef6:	9641a783          	lw	a5,-1692(gp) # 20000264 <xYieldPending>
    3efa:	c391                	beqz	a5,3efe <xTaskIncrementTick+0x9c>
    3efc:	4505                	li	a0,1
    3efe:	e3cfc06f          	j	53a <__riscv_restore_0>
    3f02:	4f51                	li	t5,20
    3f04:	93418793          	addi	a5,gp,-1740 # 20000234 <pxDelayedTaskList>
    3f08:	4394                	lw	a3,0(a5)
    3f0a:	4294                	lw	a3,0(a3)
    3f0c:	e681                	bnez	a3,3f14 <xTaskIncrementTick+0xb2>
    3f0e:	57fd                	li	a5,-1
    3f10:	c21c                	sw	a5,0(a2)
    3f12:	b7f9                	j	3ee0 <xTaskIncrementTick+0x7e>
    3f14:	439c                	lw	a5,0(a5)
    3f16:	47dc                	lw	a5,12(a5)
    3f18:	47dc                	lw	a5,12(a5)
    3f1a:	43d4                	lw	a3,4(a5)
    3f1c:	00d47463          	bgeu	s0,a3,3f24 <xTaskIncrementTick+0xc2>
    3f20:	c214                	sw	a3,0(a2)
    3f22:	bf7d                	j	3ee0 <xTaskIncrementTick+0x7e>
    3f24:	0087a883          	lw	a7,8(a5)
    3f28:	00c7a803          	lw	a6,12(a5)
    3f2c:	4bd4                	lw	a3,20(a5)
    3f2e:	00478313          	addi	t1,a5,4
    3f32:	0108a423          	sw	a6,8(a7)
    3f36:	01182223          	sw	a7,4(a6)
    3f3a:	0046a883          	lw	a7,4(a3)
    3f3e:	00689463          	bne	a7,t1,3f46 <xTaskIncrementTick+0xe4>
    3f42:	0106a223          	sw	a6,4(a3)
    3f46:	0006a803          	lw	a6,0(a3)
    3f4a:	0007aa23          	sw	zero,20(a5)
    3f4e:	187d                	addi	a6,a6,-1
    3f50:	0106a023          	sw	a6,0(a3)
    3f54:	5794                	lw	a3,40(a5)
    3f56:	ca95                	beqz	a3,3f8a <xTaskIncrementTick+0x128>
    3f58:	01c7a803          	lw	a6,28(a5)
    3f5c:	0207a883          	lw	a7,32(a5)
    3f60:	0046af83          	lw	t6,4(a3)
    3f64:	01182423          	sw	a7,8(a6)
    3f68:	0207a883          	lw	a7,32(a5)
    3f6c:	0108a223          	sw	a6,4(a7)
    3f70:	01878813          	addi	a6,a5,24
    3f74:	010f9463          	bne	t6,a6,3f7c <xTaskIncrementTick+0x11a>
    3f78:	0116a223          	sw	a7,4(a3)
    3f7c:	0006a803          	lw	a6,0(a3)
    3f80:	0207a423          	sw	zero,40(a5)
    3f84:	187d                	addi	a6,a6,-1
    3f86:	0106a023          	sw	a6,0(a3)
    3f8a:	94c18693          	addi	a3,gp,-1716 # 2000024c <uxTopReadyPriority>
    3f8e:	02c7a803          	lw	a6,44(a5)
    3f92:	0006a883          	lw	a7,0(a3)
    3f96:	0108f463          	bgeu	a7,a6,3f9e <xTaskIncrementTick+0x13c>
    3f9a:	0106a023          	sw	a6,0(a3)
    3f9e:	03e806b3          	mul	a3,a6,t5
    3fa2:	96ba                	add	a3,a3,a4
    3fa4:	0046a883          	lw	a7,4(a3)
    3fa8:	0088af83          	lw	t6,8(a7)
    3fac:	0117a423          	sw	a7,8(a5)
    3fb0:	01f7a623          	sw	t6,12(a5)
    3fb4:	0088af83          	lw	t6,8(a7)
    3fb8:	006fa223          	sw	t1,4(t6)
    3fbc:	0068a423          	sw	t1,8(a7)
    3fc0:	cbd4                	sw	a3,20(a5)
    3fc2:	429c                	lw	a5,0(a3)
    3fc4:	0785                	addi	a5,a5,1
    3fc6:	c29c                	sw	a5,0(a3)
    3fc8:	419c                	lw	a5,0(a1)
    3fca:	57dc                	lw	a5,44(a5)
    3fcc:	f2f86ce3          	bltu	a6,a5,3f04 <xTaskIncrementTick+0xa2>
    3fd0:	4505                	li	a0,1
    3fd2:	bf0d                	j	3f04 <xTaskIncrementTick+0xa2>
    3fd4:	95818793          	addi	a5,gp,-1704 # 20000258 <xPendedTicks>
    3fd8:	4398                	lw	a4,0(a5)
    3fda:	4501                	li	a0,0
    3fdc:	0705                	addi	a4,a4,1
    3fde:	c398                	sw	a4,0(a5)
    3fe0:	8082                	ret

00003fe2 <xTaskResumeAll>:
    3fe2:	d1afc2ef          	jal	t0,4fc <__riscv_save_4>
    3fe6:	94418413          	addi	s0,gp,-1724 # 20000244 <uxSchedulerSuspended>
    3fea:	401c                	lw	a5,0(s0)
    3fec:	1141                	addi	sp,sp,-16
    3fee:	e785                	bnez	a5,4016 <xTaskResumeAll+0x34>
    3ff0:	67a1                	lui	a5,0x8
    3ff2:	80078793          	addi	a5,a5,-2048 # 7800 <mem_free+0x5a>
    3ff6:	30079073          	csrw	mstatus,a5
    3ffa:	0000d637          	lui	a2,0xd
    3ffe:	6585                	lui	a1,0x1
    4000:	0000d537          	lui	a0,0xd
    4004:	bbc60613          	addi	a2,a2,-1092 # cbbc <MemSize+0xb4>
    4008:	8b358593          	addi	a1,a1,-1869 # 8b3 <__stack_size+0xb3>
    400c:	b4050513          	addi	a0,a0,-1216 # cb40 <MemSize+0x38>
    4010:	51f070ef          	jal	ra,bd2e <iprintf>
    4014:	a001                	j	4014 <xTaskResumeAll+0x32>
    4016:	a50ff0ef          	jal	ra,3266 <vPortEnterCritical>
    401a:	401c                	lw	a5,0(s0)
    401c:	17fd                	addi	a5,a5,-1
    401e:	c01c                	sw	a5,0(s0)
    4020:	401c                	lw	a5,0(s0)
    4022:	cb89                	beqz	a5,4034 <xTaskResumeAll+0x52>
    4024:	4501                	li	a0,0
    4026:	c62a                	sw	a0,12(sp)
    4028:	a54ff0ef          	jal	ra,327c <vPortExitCritical>
    402c:	4532                	lw	a0,12(sp)
    402e:	0141                	addi	sp,sp,16
    4030:	d00fc06f          	j	530 <__riscv_restore_4>
    4034:	93c1a783          	lw	a5,-1732(gp) # 2000023c <uxCurrentNumberOfTasks>
    4038:	d7f5                	beqz	a5,4024 <xTaskResumeAll+0x42>
    403a:	2000a6b7          	lui	a3,0x2000a
    403e:	2000a537          	lui	a0,0x2000a
    4042:	4781                	li	a5,0
    4044:	1a868693          	addi	a3,a3,424 # 2000a1a8 <xPendingReadyList>
    4048:	05450513          	addi	a0,a0,84 # 2000a054 <pxReadyTasksLists>
    404c:	48d1                	li	a7,20
    404e:	4e85                	li	t4,1
    4050:	a859                	j	40e6 <xTaskResumeAll+0x104>
    4052:	46dc                	lw	a5,12(a3)
    4054:	47dc                	lw	a5,12(a5)
    4056:	4fcc                	lw	a1,28(a5)
    4058:	5390                	lw	a2,32(a5)
    405a:	5798                	lw	a4,40(a5)
    405c:	c590                	sw	a2,8(a1)
    405e:	0207a803          	lw	a6,32(a5)
    4062:	00b82223          	sw	a1,4(a6)
    4066:	00472803          	lw	a6,4(a4)
    406a:	01878593          	addi	a1,a5,24
    406e:	00b81363          	bne	a6,a1,4074 <xTaskResumeAll+0x92>
    4072:	c350                	sw	a2,4(a4)
    4074:	4310                	lw	a2,0(a4)
    4076:	0207a423          	sw	zero,40(a5)
    407a:	167d                	addi	a2,a2,-1
    407c:	c310                	sw	a2,0(a4)
    407e:	478c                	lw	a1,8(a5)
    4080:	47d0                	lw	a2,12(a5)
    4082:	4bd8                	lw	a4,20(a5)
    4084:	00478813          	addi	a6,a5,4
    4088:	c590                	sw	a2,8(a1)
    408a:	c24c                	sw	a1,4(a2)
    408c:	434c                	lw	a1,4(a4)
    408e:	01059363          	bne	a1,a6,4094 <xTaskResumeAll+0xb2>
    4092:	c350                	sw	a2,4(a4)
    4094:	4310                	lw	a2,0(a4)
    4096:	0007aa23          	sw	zero,20(a5)
    409a:	167d                	addi	a2,a2,-1
    409c:	c310                	sw	a2,0(a4)
    409e:	94c18713          	addi	a4,gp,-1716 # 2000024c <uxTopReadyPriority>
    40a2:	57d0                	lw	a2,44(a5)
    40a4:	430c                	lw	a1,0(a4)
    40a6:	00c5f363          	bgeu	a1,a2,40ac <xTaskResumeAll+0xca>
    40aa:	c310                	sw	a2,0(a4)
    40ac:	03160733          	mul	a4,a2,a7
    40b0:	972a                	add	a4,a4,a0
    40b2:	434c                	lw	a1,4(a4)
    40b4:	0085af83          	lw	t6,8(a1)
    40b8:	c78c                	sw	a1,8(a5)
    40ba:	01f7a623          	sw	t6,12(a5)
    40be:	0085af83          	lw	t6,8(a1)
    40c2:	010fa223          	sw	a6,4(t6)
    40c6:	0105a423          	sw	a6,8(a1)
    40ca:	430c                	lw	a1,0(a4)
    40cc:	cbd8                	sw	a4,20(a5)
    40ce:	0585                	addi	a1,a1,1
    40d0:	c30c                	sw	a1,0(a4)
    40d2:	93018713          	addi	a4,gp,-1744 # 20000230 <pxCurrentTCB>
    40d6:	4318                	lw	a4,0(a4)
    40d8:	5758                	lw	a4,44(a4)
    40da:	00e66663          	bltu	a2,a4,40e6 <xTaskResumeAll+0x104>
    40de:	96418713          	addi	a4,gp,-1692 # 20000264 <xYieldPending>
    40e2:	01d72023          	sw	t4,0(a4)
    40e6:	4298                	lw	a4,0(a3)
    40e8:	f72d                	bnez	a4,4052 <xTaskResumeAll+0x70>
    40ea:	c399                	beqz	a5,40f0 <xTaskResumeAll+0x10e>
    40ec:	a29ff0ef          	jal	ra,3b14 <prvResetNextTaskUnblockTime>
    40f0:	95818713          	addi	a4,gp,-1704 # 20000258 <xPendedTicks>
    40f4:	4304                	lw	s1,0(a4)
    40f6:	95818413          	addi	s0,gp,-1704 # 20000258 <xPendedTicks>
    40fa:	cc89                	beqz	s1,4114 <xTaskResumeAll+0x132>
    40fc:	4985                	li	s3,1
    40fe:	d65ff0ef          	jal	ra,3e62 <xTaskIncrementTick>
    4102:	c509                	beqz	a0,410c <xTaskResumeAll+0x12a>
    4104:	96418793          	addi	a5,gp,-1692 # 20000264 <xYieldPending>
    4108:	0137a023          	sw	s3,0(a5)
    410c:	14fd                	addi	s1,s1,-1
    410e:	f8e5                	bnez	s1,40fe <xTaskResumeAll+0x11c>
    4110:	00042023          	sw	zero,0(s0)
    4114:	9641a783          	lw	a5,-1692(gp) # 20000264 <xYieldPending>
    4118:	f00786e3          	beqz	a5,4024 <xTaskResumeAll+0x42>
    411c:	e000e7b7          	lui	a5,0xe000e
    4120:	6711                	lui	a4,0x4
    4122:	20e7a023          	sw	a4,512(a5) # e000e200 <__freertos_irq_stack_top+0xbfffe200>
    4126:	4505                	li	a0,1
    4128:	bdfd                	j	4026 <xTaskResumeAll+0x44>

0000412a <vTaskDelay>:
    412a:	e519                	bnez	a0,4138 <vTaskDelay+0xe>
    412c:	e000e7b7          	lui	a5,0xe000e
    4130:	6711                	lui	a4,0x4
    4132:	20e7a023          	sw	a4,512(a5) # e000e200 <__freertos_irq_stack_top+0xbfffe200>
    4136:	8082                	ret
    4138:	bdefc2ef          	jal	t0,516 <__riscv_save_0>
    413c:	9441a783          	lw	a5,-1724(gp) # 20000244 <uxSchedulerSuspended>
    4140:	1141                	addi	sp,sp,-16
    4142:	c39d                	beqz	a5,4168 <vTaskDelay+0x3e>
    4144:	67a1                	lui	a5,0x8
    4146:	80078793          	addi	a5,a5,-2048 # 7800 <mem_free+0x5a>
    414a:	30079073          	csrw	mstatus,a5
    414e:	0000d637          	lui	a2,0xd
    4152:	0000d537          	lui	a0,0xd
    4156:	bbc60613          	addi	a2,a2,-1092 # cbbc <MemSize+0xb4>
    415a:	54900593          	li	a1,1353
    415e:	b4050513          	addi	a0,a0,-1216 # cb40 <MemSize+0x38>
    4162:	3cd070ef          	jal	ra,bd2e <iprintf>
    4166:	a001                	j	4166 <vTaskDelay+0x3c>
    4168:	c62a                	sw	a0,12(sp)
    416a:	ce7ff0ef          	jal	ra,3e50 <vTaskSuspendAll>
    416e:	4532                	lw	a0,12(sp)
    4170:	4581                	li	a1,0
    4172:	b17ff0ef          	jal	ra,3c88 <prvAddCurrentTaskToDelayedList>
    4176:	e6dff0ef          	jal	ra,3fe2 <xTaskResumeAll>
    417a:	e511                	bnez	a0,4186 <vTaskDelay+0x5c>
    417c:	e000e7b7          	lui	a5,0xe000e
    4180:	6711                	lui	a4,0x4
    4182:	20e7a023          	sw	a4,512(a5) # e000e200 <__freertos_irq_stack_top+0xbfffe200>
    4186:	0141                	addi	sp,sp,16
    4188:	bb2fc06f          	j	53a <__riscv_restore_0>

0000418c <vTaskSwitchContext>:
    418c:	9441a703          	lw	a4,-1724(gp) # 20000244 <uxSchedulerSuspended>
    4190:	96418793          	addi	a5,gp,-1692 # 20000264 <xYieldPending>
    4194:	c701                	beqz	a4,419c <vTaskSwitchContext+0x10>
    4196:	4705                	li	a4,1
    4198:	c398                	sw	a4,0(a5)
    419a:	8082                	ret
    419c:	0007a023          	sw	zero,0(a5)
    41a0:	94c18713          	addi	a4,gp,-1716 # 2000024c <uxTopReadyPriority>
    41a4:	4318                	lw	a4,0(a4)
    41a6:	94c18613          	addi	a2,gp,-1716 # 2000024c <uxTopReadyPriority>
    41aa:	2000a7b7          	lui	a5,0x2000a
    41ae:	05478793          	addi	a5,a5,84 # 2000a054 <pxReadyTasksLists>
    41b2:	4851                	li	a6,20
    41b4:	030706b3          	mul	a3,a4,a6
    41b8:	00d785b3          	add	a1,a5,a3
    41bc:	4188                	lw	a0,0(a1)
    41be:	c505                	beqz	a0,41e6 <vTaskSwitchContext+0x5a>
    41c0:	41c8                	lw	a0,4(a1)
    41c2:	06a1                	addi	a3,a3,8
    41c4:	96be                	add	a3,a3,a5
    41c6:	4148                	lw	a0,4(a0)
    41c8:	c1c8                	sw	a0,4(a1)
    41ca:	00d51463          	bne	a0,a3,41d2 <vTaskSwitchContext+0x46>
    41ce:	4154                	lw	a3,4(a0)
    41d0:	c1d4                	sw	a3,4(a1)
    41d2:	46d1                	li	a3,20
    41d4:	02d706b3          	mul	a3,a4,a3
    41d8:	97b6                	add	a5,a5,a3
    41da:	43dc                	lw	a5,4(a5)
    41dc:	47d4                	lw	a3,12(a5)
    41de:	92d1a823          	sw	a3,-1744(gp) # 20000230 <pxCurrentTCB>
    41e2:	c218                	sw	a4,0(a2)
    41e4:	8082                	ret
    41e6:	e715                	bnez	a4,4212 <vTaskSwitchContext+0x86>
    41e8:	b2efc2ef          	jal	t0,516 <__riscv_save_0>
    41ec:	67a1                	lui	a5,0x8
    41ee:	80078793          	addi	a5,a5,-2048 # 7800 <mem_free+0x5a>
    41f2:	30079073          	csrw	mstatus,a5
    41f6:	0000d637          	lui	a2,0xd
    41fa:	6585                	lui	a1,0x1
    41fc:	0000d537          	lui	a0,0xd
    4200:	bbc60613          	addi	a2,a2,-1092 # cbbc <MemSize+0xb4>
    4204:	c0258593          	addi	a1,a1,-1022 # c02 <eMBFuncWriteMultipleCoils+0xa>
    4208:	b4050513          	addi	a0,a0,-1216 # cb40 <MemSize+0x38>
    420c:	323070ef          	jal	ra,bd2e <iprintf>
    4210:	a001                	j	4210 <vTaskSwitchContext+0x84>
    4212:	177d                	addi	a4,a4,-1
    4214:	b745                	j	41b4 <vTaskSwitchContext+0x28>

00004216 <vTaskPlaceOnEventList>:
    4216:	b00fc2ef          	jal	t0,516 <__riscv_save_0>
    421a:	e505                	bnez	a0,4242 <vTaskPlaceOnEventList+0x2c>
    421c:	67a1                	lui	a5,0x8
    421e:	80078793          	addi	a5,a5,-2048 # 7800 <mem_free+0x5a>
    4222:	30079073          	csrw	mstatus,a5
    4226:	0000d637          	lui	a2,0xd
    422a:	6585                	lui	a1,0x1
    422c:	0000d537          	lui	a0,0xd
    4230:	bbc60613          	addi	a2,a2,-1092 # cbbc <MemSize+0xb4>
    4234:	c1c58593          	addi	a1,a1,-996 # c1c <eMBFuncWriteMultipleCoils+0x24>
    4238:	b4050513          	addi	a0,a0,-1216 # cb40 <MemSize+0x38>
    423c:	2f3070ef          	jal	ra,bd2e <iprintf>
    4240:	a001                	j	4240 <vTaskPlaceOnEventList+0x2a>
    4242:	842e                	mv	s0,a1
    4244:	9301a583          	lw	a1,-1744(gp) # 20000230 <pxCurrentTCB>
    4248:	05e1                	addi	a1,a1,24
    424a:	b20ff0ef          	jal	ra,356a <vListInsert>
    424e:	4585                	li	a1,1
    4250:	8522                	mv	a0,s0
    4252:	a37ff0ef          	jal	ra,3c88 <prvAddCurrentTaskToDelayedList>
    4256:	ae4fc06f          	j	53a <__riscv_restore_0>

0000425a <vTaskPlaceOnUnorderedEventList>:
    425a:	abcfc2ef          	jal	t0,516 <__riscv_save_0>
    425e:	e505                	bnez	a0,4286 <vTaskPlaceOnUnorderedEventList+0x2c>
    4260:	67a1                	lui	a5,0x8
    4262:	80078793          	addi	a5,a5,-2048 # 7800 <mem_free+0x5a>
    4266:	30079073          	csrw	mstatus,a5
    426a:	0000d637          	lui	a2,0xd
    426e:	6585                	lui	a1,0x1
    4270:	0000d537          	lui	a0,0xd
    4274:	bbc60613          	addi	a2,a2,-1092 # cbbc <MemSize+0xb4>
    4278:	c3658593          	addi	a1,a1,-970 # c36 <eMBFuncWriteMultipleCoils+0x3e>
    427c:	b4050513          	addi	a0,a0,-1216 # cb40 <MemSize+0x38>
    4280:	2af070ef          	jal	ra,bd2e <iprintf>
    4284:	a001                	j	4284 <vTaskPlaceOnUnorderedEventList+0x2a>
    4286:	9441a783          	lw	a5,-1724(gp) # 20000244 <uxSchedulerSuspended>
    428a:	e785                	bnez	a5,42b2 <vTaskPlaceOnUnorderedEventList+0x58>
    428c:	67a1                	lui	a5,0x8
    428e:	80078793          	addi	a5,a5,-2048 # 7800 <mem_free+0x5a>
    4292:	30079073          	csrw	mstatus,a5
    4296:	0000d637          	lui	a2,0xd
    429a:	6585                	lui	a1,0x1
    429c:	0000d537          	lui	a0,0xd
    42a0:	bbc60613          	addi	a2,a2,-1092 # cbbc <MemSize+0xb4>
    42a4:	c3a58593          	addi	a1,a1,-966 # c3a <eMBFuncWriteMultipleCoils+0x42>
    42a8:	b4050513          	addi	a0,a0,-1216 # cb40 <MemSize+0x38>
    42ac:	283070ef          	jal	ra,bd2e <iprintf>
    42b0:	a001                	j	42b0 <vTaskPlaceOnUnorderedEventList+0x56>
    42b2:	93018793          	addi	a5,gp,-1744 # 20000230 <pxCurrentTCB>
    42b6:	4394                	lw	a3,0(a5)
    42b8:	872a                	mv	a4,a0
    42ba:	80000537          	lui	a0,0x80000
    42be:	8dc9                	or	a1,a1,a0
    42c0:	ce8c                	sw	a1,24(a3)
    42c2:	4354                	lw	a3,4(a4)
    42c4:	438c                	lw	a1,0(a5)
    42c6:	4688                	lw	a0,8(a3)
    42c8:	cdd4                	sw	a3,28(a1)
    42ca:	438c                	lw	a1,0(a5)
    42cc:	d188                	sw	a0,32(a1)
    42ce:	438c                	lw	a1,0(a5)
    42d0:	4688                	lw	a0,8(a3)
    42d2:	05e1                	addi	a1,a1,24
    42d4:	c14c                	sw	a1,4(a0)
    42d6:	438c                	lw	a1,0(a5)
    42d8:	439c                	lw	a5,0(a5)
    42da:	8532                	mv	a0,a2
    42dc:	05e1                	addi	a1,a1,24
    42de:	c68c                	sw	a1,8(a3)
    42e0:	d798                	sw	a4,40(a5)
    42e2:	431c                	lw	a5,0(a4)
    42e4:	4585                	li	a1,1
    42e6:	0785                	addi	a5,a5,1
    42e8:	c31c                	sw	a5,0(a4)
    42ea:	99fff0ef          	jal	ra,3c88 <prvAddCurrentTaskToDelayedList>
    42ee:	a4cfc06f          	j	53a <__riscv_restore_0>

000042f2 <vTaskPlaceOnEventListRestricted>:
    42f2:	a24fc2ef          	jal	t0,516 <__riscv_save_0>
    42f6:	872a                	mv	a4,a0
    42f8:	e505                	bnez	a0,4320 <vTaskPlaceOnEventListRestricted+0x2e>
    42fa:	67a1                	lui	a5,0x8
    42fc:	80078793          	addi	a5,a5,-2048 # 7800 <mem_free+0x5a>
    4300:	30079073          	csrw	mstatus,a5
    4304:	0000d637          	lui	a2,0xd
    4308:	6585                	lui	a1,0x1
    430a:	0000d537          	lui	a0,0xd
    430e:	bbc60613          	addi	a2,a2,-1092 # cbbc <MemSize+0xb4>
    4312:	c5258593          	addi	a1,a1,-942 # c52 <eMBFuncWriteMultipleCoils+0x5a>
    4316:	b4050513          	addi	a0,a0,-1216 # cb40 <MemSize+0x38>
    431a:	215070ef          	jal	ra,bd2e <iprintf>
    431e:	a001                	j	431e <vTaskPlaceOnEventListRestricted+0x2c>
    4320:	93018793          	addi	a5,gp,-1744 # 20000230 <pxCurrentTCB>
    4324:	4354                	lw	a3,4(a4)
    4326:	852e                	mv	a0,a1
    4328:	438c                	lw	a1,0(a5)
    432a:	0086a803          	lw	a6,8(a3)
    432e:	cdd4                	sw	a3,28(a1)
    4330:	438c                	lw	a1,0(a5)
    4332:	0305a023          	sw	a6,32(a1)
    4336:	0007a803          	lw	a6,0(a5)
    433a:	468c                	lw	a1,8(a3)
    433c:	0861                	addi	a6,a6,24
    433e:	0105a223          	sw	a6,4(a1)
    4342:	0007a803          	lw	a6,0(a5)
    4346:	439c                	lw	a5,0(a5)
    4348:	0861                	addi	a6,a6,24
    434a:	0106a423          	sw	a6,8(a3)
    434e:	d798                	sw	a4,40(a5)
    4350:	431c                	lw	a5,0(a4)
    4352:	0785                	addi	a5,a5,1
    4354:	c31c                	sw	a5,0(a4)
    4356:	c211                	beqz	a2,435a <vTaskPlaceOnEventListRestricted+0x68>
    4358:	557d                	li	a0,-1
    435a:	85b2                	mv	a1,a2
    435c:	92dff0ef          	jal	ra,3c88 <prvAddCurrentTaskToDelayedList>
    4360:	9dafc06f          	j	53a <__riscv_restore_0>

00004364 <xTaskRemoveFromEventList>:
    4364:	455c                	lw	a5,12(a0)
    4366:	47dc                	lw	a5,12(a5)
    4368:	e795                	bnez	a5,4394 <xTaskRemoveFromEventList+0x30>
    436a:	9acfc2ef          	jal	t0,516 <__riscv_save_0>
    436e:	67a1                	lui	a5,0x8
    4370:	80078793          	addi	a5,a5,-2048 # 7800 <mem_free+0x5a>
    4374:	30079073          	csrw	mstatus,a5
    4378:	0000d637          	lui	a2,0xd
    437c:	6585                	lui	a1,0x1
    437e:	0000d537          	lui	a0,0xd
    4382:	bbc60613          	addi	a2,a2,-1092 # cbbc <MemSize+0xb4>
    4386:	c8258593          	addi	a1,a1,-894 # c82 <eMBFuncReadDiscreteInputs+0x2>
    438a:	b4050513          	addi	a0,a0,-1216 # cb40 <MemSize+0x38>
    438e:	1a1070ef          	jal	ra,bd2e <iprintf>
    4392:	a001                	j	4392 <xTaskRemoveFromEventList+0x2e>
    4394:	4fd0                	lw	a2,28(a5)
    4396:	5394                	lw	a3,32(a5)
    4398:	5798                	lw	a4,40(a5)
    439a:	01878593          	addi	a1,a5,24
    439e:	c614                	sw	a3,8(a2)
    43a0:	c2d0                	sw	a2,4(a3)
    43a2:	4350                	lw	a2,4(a4)
    43a4:	00b61363          	bne	a2,a1,43aa <xTaskRemoveFromEventList+0x46>
    43a8:	c354                	sw	a3,4(a4)
    43aa:	4314                	lw	a3,0(a4)
    43ac:	0207a423          	sw	zero,40(a5)
    43b0:	16fd                	addi	a3,a3,-1
    43b2:	c314                	sw	a3,0(a4)
    43b4:	9441a703          	lw	a4,-1724(gp) # 20000244 <uxSchedulerSuspended>
    43b8:	57d4                	lw	a3,44(a5)
    43ba:	e735                	bnez	a4,4426 <xTaskRemoveFromEventList+0xc2>
    43bc:	478c                	lw	a1,8(a5)
    43be:	47d0                	lw	a2,12(a5)
    43c0:	4bd8                	lw	a4,20(a5)
    43c2:	c590                	sw	a2,8(a1)
    43c4:	47d0                	lw	a2,12(a5)
    43c6:	4348                	lw	a0,4(a4)
    43c8:	c24c                	sw	a1,4(a2)
    43ca:	00478593          	addi	a1,a5,4
    43ce:	00b51363          	bne	a0,a1,43d4 <xTaskRemoveFromEventList+0x70>
    43d2:	c350                	sw	a2,4(a4)
    43d4:	4310                	lw	a2,0(a4)
    43d6:	0007aa23          	sw	zero,20(a5)
    43da:	167d                	addi	a2,a2,-1
    43dc:	c310                	sw	a2,0(a4)
    43de:	94c18713          	addi	a4,gp,-1716 # 2000024c <uxTopReadyPriority>
    43e2:	4310                	lw	a2,0(a4)
    43e4:	00d67363          	bgeu	a2,a3,43ea <xTaskRemoveFromEventList+0x86>
    43e8:	c314                	sw	a3,0(a4)
    43ea:	4751                	li	a4,20
    43ec:	02e68633          	mul	a2,a3,a4
    43f0:	2000a737          	lui	a4,0x2000a
    43f4:	05470713          	addi	a4,a4,84 # 2000a054 <pxReadyTasksLists>
    43f8:	9732                	add	a4,a4,a2
    43fa:	4350                	lw	a2,4(a4)
    43fc:	4608                	lw	a0,8(a2)
    43fe:	c790                	sw	a2,8(a5)
    4400:	c7c8                	sw	a0,12(a5)
    4402:	4608                	lw	a0,8(a2)
    4404:	c14c                	sw	a1,4(a0)
    4406:	c60c                	sw	a1,8(a2)
    4408:	cbd8                	sw	a4,20(a5)
    440a:	431c                	lw	a5,0(a4)
    440c:	4501                	li	a0,0
    440e:	0785                	addi	a5,a5,1
    4410:	c31c                	sw	a5,0(a4)
    4412:	9301a783          	lw	a5,-1744(gp) # 20000230 <pxCurrentTCB>
    4416:	57dc                	lw	a5,44(a5)
    4418:	00d7f663          	bgeu	a5,a3,4424 <xTaskRemoveFromEventList+0xc0>
    441c:	4705                	li	a4,1
    441e:	96e1a223          	sw	a4,-1692(gp) # 20000264 <xYieldPending>
    4422:	4505                	li	a0,1
    4424:	8082                	ret
    4426:	2000a737          	lui	a4,0x2000a
    442a:	1a870713          	addi	a4,a4,424 # 2000a1a8 <xPendingReadyList>
    442e:	4350                	lw	a2,4(a4)
    4430:	4608                	lw	a0,8(a2)
    4432:	cfd0                	sw	a2,28(a5)
    4434:	d388                	sw	a0,32(a5)
    4436:	4608                	lw	a0,8(a2)
    4438:	c14c                	sw	a1,4(a0)
    443a:	c60c                	sw	a1,8(a2)
    443c:	d798                	sw	a4,40(a5)
    443e:	b7f1                	j	440a <xTaskRemoveFromEventList+0xa6>

00004440 <vTaskRemoveFromUnorderedEventList>:
    4440:	8d6fc2ef          	jal	t0,516 <__riscv_save_0>
    4444:	9441a783          	lw	a5,-1724(gp) # 20000244 <uxSchedulerSuspended>
    4448:	e785                	bnez	a5,4470 <vTaskRemoveFromUnorderedEventList+0x30>
    444a:	67a1                	lui	a5,0x8
    444c:	80078793          	addi	a5,a5,-2048 # 7800 <mem_free+0x5a>
    4450:	30079073          	csrw	mstatus,a5
    4454:	0000d637          	lui	a2,0xd
    4458:	6585                	lui	a1,0x1
    445a:	0000d537          	lui	a0,0xd
    445e:	bbc60613          	addi	a2,a2,-1092 # cbbc <MemSize+0xb4>
    4462:	cba58593          	addi	a1,a1,-838 # cba <eMBFuncReadDiscreteInputs+0x3a>
    4466:	b4050513          	addi	a0,a0,-1216 # cb40 <MemSize+0x38>
    446a:	0c5070ef          	jal	ra,bd2e <iprintf>
    446e:	a001                	j	446e <vTaskRemoveFromUnorderedEventList+0x2e>
    4470:	800007b7          	lui	a5,0x80000
    4474:	8ddd                	or	a1,a1,a5
    4476:	455c                	lw	a5,12(a0)
    4478:	c10c                	sw	a1,0(a0)
    447a:	e785                	bnez	a5,44a2 <vTaskRemoveFromUnorderedEventList+0x62>
    447c:	67a1                	lui	a5,0x8
    447e:	80078793          	addi	a5,a5,-2048 # 7800 <mem_free+0x5a>
    4482:	30079073          	csrw	mstatus,a5
    4486:	0000d637          	lui	a2,0xd
    448a:	6585                	lui	a1,0x1
    448c:	0000d537          	lui	a0,0xd
    4490:	bbc60613          	addi	a2,a2,-1092 # cbbc <MemSize+0xb4>
    4494:	cc258593          	addi	a1,a1,-830 # cc2 <eMBFuncReadDiscreteInputs+0x42>
    4498:	b4050513          	addi	a0,a0,-1216 # cb40 <MemSize+0x38>
    449c:	093070ef          	jal	ra,bd2e <iprintf>
    44a0:	a001                	j	44a0 <vTaskRemoveFromUnorderedEventList+0x60>
    44a2:	4150                	lw	a2,4(a0)
    44a4:	4514                	lw	a3,8(a0)
    44a6:	4918                	lw	a4,16(a0)
    44a8:	c614                	sw	a3,8(a2)
    44aa:	4514                	lw	a3,8(a0)
    44ac:	c2d0                	sw	a2,4(a3)
    44ae:	4350                	lw	a2,4(a4)
    44b0:	00a61363          	bne	a2,a0,44b6 <vTaskRemoveFromUnorderedEventList+0x76>
    44b4:	c354                	sw	a3,4(a4)
    44b6:	4314                	lw	a3,0(a4)
    44b8:	00052823          	sw	zero,16(a0)
    44bc:	4790                	lw	a2,8(a5)
    44be:	16fd                	addi	a3,a3,-1
    44c0:	c314                	sw	a3,0(a4)
    44c2:	47d4                	lw	a3,12(a5)
    44c4:	4bd8                	lw	a4,20(a5)
    44c6:	00478593          	addi	a1,a5,4
    44ca:	c614                	sw	a3,8(a2)
    44cc:	47d4                	lw	a3,12(a5)
    44ce:	c2d0                	sw	a2,4(a3)
    44d0:	4350                	lw	a2,4(a4)
    44d2:	00b61363          	bne	a2,a1,44d8 <vTaskRemoveFromUnorderedEventList+0x98>
    44d6:	c354                	sw	a3,4(a4)
    44d8:	4314                	lw	a3,0(a4)
    44da:	0007aa23          	sw	zero,20(a5)
    44de:	16fd                	addi	a3,a3,-1
    44e0:	c314                	sw	a3,0(a4)
    44e2:	94c18713          	addi	a4,gp,-1716 # 2000024c <uxTopReadyPriority>
    44e6:	57d4                	lw	a3,44(a5)
    44e8:	4310                	lw	a2,0(a4)
    44ea:	00d67363          	bgeu	a2,a3,44f0 <vTaskRemoveFromUnorderedEventList+0xb0>
    44ee:	c314                	sw	a3,0(a4)
    44f0:	4751                	li	a4,20
    44f2:	02e68633          	mul	a2,a3,a4
    44f6:	2000a737          	lui	a4,0x2000a
    44fa:	05470713          	addi	a4,a4,84 # 2000a054 <pxReadyTasksLists>
    44fe:	9732                	add	a4,a4,a2
    4500:	4350                	lw	a2,4(a4)
    4502:	4608                	lw	a0,8(a2)
    4504:	c790                	sw	a2,8(a5)
    4506:	c7c8                	sw	a0,12(a5)
    4508:	4608                	lw	a0,8(a2)
    450a:	c14c                	sw	a1,4(a0)
    450c:	c60c                	sw	a1,8(a2)
    450e:	cbd8                	sw	a4,20(a5)
    4510:	431c                	lw	a5,0(a4)
    4512:	0785                	addi	a5,a5,1
    4514:	c31c                	sw	a5,0(a4)
    4516:	9301a783          	lw	a5,-1744(gp) # 20000230 <pxCurrentTCB>
    451a:	57dc                	lw	a5,44(a5)
    451c:	00d7f563          	bgeu	a5,a3,4526 <vTaskRemoveFromUnorderedEventList+0xe6>
    4520:	4705                	li	a4,1
    4522:	96e1a223          	sw	a4,-1692(gp) # 20000264 <xYieldPending>
    4526:	814fc06f          	j	53a <__riscv_restore_0>

0000452a <vTaskInternalSetTimeOutState>:
    452a:	9541a783          	lw	a5,-1708(gp) # 20000254 <xNumOfOverflows>
    452e:	c11c                	sw	a5,0(a0)
    4530:	9601a783          	lw	a5,-1696(gp) # 20000260 <xTickCount>
    4534:	c15c                	sw	a5,4(a0)
    4536:	8082                	ret

00004538 <xTaskCheckForTimeOut>:
    4538:	fdffb2ef          	jal	t0,516 <__riscv_save_0>
    453c:	1141                	addi	sp,sp,-16
    453e:	e505                	bnez	a0,4566 <xTaskCheckForTimeOut+0x2e>
    4540:	67a1                	lui	a5,0x8
    4542:	80078793          	addi	a5,a5,-2048 # 7800 <mem_free+0x5a>
    4546:	30079073          	csrw	mstatus,a5
    454a:	0000d637          	lui	a2,0xd
    454e:	6585                	lui	a1,0x1
    4550:	0000d537          	lui	a0,0xd
    4554:	bbc60613          	addi	a2,a2,-1092 # cbbc <MemSize+0xb4>
    4558:	cfd58593          	addi	a1,a1,-771 # cfd <eMBFuncReadDiscreteInputs+0x7d>
    455c:	b4050513          	addi	a0,a0,-1216 # cb40 <MemSize+0x38>
    4560:	7ce070ef          	jal	ra,bd2e <iprintf>
    4564:	a001                	j	4564 <xTaskCheckForTimeOut+0x2c>
    4566:	e585                	bnez	a1,458e <xTaskCheckForTimeOut+0x56>
    4568:	67a1                	lui	a5,0x8
    456a:	80078793          	addi	a5,a5,-2048 # 7800 <mem_free+0x5a>
    456e:	30079073          	csrw	mstatus,a5
    4572:	0000d637          	lui	a2,0xd
    4576:	6585                	lui	a1,0x1
    4578:	0000d537          	lui	a0,0xd
    457c:	bbc60613          	addi	a2,a2,-1092 # cbbc <MemSize+0xb4>
    4580:	cfe58593          	addi	a1,a1,-770 # cfe <eMBFuncReadDiscreteInputs+0x7e>
    4584:	b4050513          	addi	a0,a0,-1216 # cb40 <MemSize+0x38>
    4588:	7a6070ef          	jal	ra,bd2e <iprintf>
    458c:	a001                	j	458c <xTaskCheckForTimeOut+0x54>
    458e:	c62e                	sw	a1,12(sp)
    4590:	c42a                	sw	a0,8(sp)
    4592:	cd5fe0ef          	jal	ra,3266 <vPortEnterCritical>
    4596:	93018713          	addi	a4,gp,-1744 # 20000230 <pxCurrentTCB>
    459a:	9601a683          	lw	a3,-1696(gp) # 20000260 <xTickCount>
    459e:	431c                	lw	a5,0(a4)
    45a0:	4522                	lw	a0,8(sp)
    45a2:	45b2                	lw	a1,12(sp)
    45a4:	0527c783          	lbu	a5,82(a5)
    45a8:	cb99                	beqz	a5,45be <xTaskCheckForTimeOut+0x86>
    45aa:	431c                	lw	a5,0(a4)
    45ac:	04078923          	sb	zero,82(a5)
    45b0:	4405                	li	s0,1
    45b2:	ccbfe0ef          	jal	ra,327c <vPortExitCritical>
    45b6:	8522                	mv	a0,s0
    45b8:	0141                	addi	sp,sp,16
    45ba:	f81fb06f          	j	53a <__riscv_restore_0>
    45be:	419c                	lw	a5,0(a1)
    45c0:	577d                	li	a4,-1
    45c2:	4401                	li	s0,0
    45c4:	fee787e3          	beq	a5,a4,45b2 <xTaskCheckForTimeOut+0x7a>
    45c8:	9541a603          	lw	a2,-1708(gp) # 20000254 <xNumOfOverflows>
    45cc:	00052803          	lw	a6,0(a0)
    45d0:	4158                	lw	a4,4(a0)
    45d2:	00c80763          	beq	a6,a2,45e0 <xTaskCheckForTimeOut+0xa8>
    45d6:	00e6e563          	bltu	a3,a4,45e0 <xTaskCheckForTimeOut+0xa8>
    45da:	0005a023          	sw	zero,0(a1)
    45de:	bfc9                	j	45b0 <xTaskCheckForTimeOut+0x78>
    45e0:	40e68633          	sub	a2,a3,a4
    45e4:	fef67be3          	bgeu	a2,a5,45da <xTaskCheckForTimeOut+0xa2>
    45e8:	8f95                	sub	a5,a5,a3
    45ea:	97ba                	add	a5,a5,a4
    45ec:	c19c                	sw	a5,0(a1)
    45ee:	f3dff0ef          	jal	ra,452a <vTaskInternalSetTimeOutState>
    45f2:	4401                	li	s0,0
    45f4:	bf7d                	j	45b2 <xTaskCheckForTimeOut+0x7a>

000045f6 <vTaskMissedYield>:
    45f6:	4705                	li	a4,1
    45f8:	96e1a223          	sw	a4,-1692(gp) # 20000264 <xYieldPending>
    45fc:	8082                	ret

000045fe <xTaskGetSchedulerState>:
    45fe:	95c1a783          	lw	a5,-1700(gp) # 2000025c <xSchedulerRunning>
    4602:	4505                	li	a0,1
    4604:	c791                	beqz	a5,4610 <xTaskGetSchedulerState+0x12>
    4606:	9441a503          	lw	a0,-1724(gp) # 20000244 <uxSchedulerSuspended>
    460a:	00153513          	seqz	a0,a0
    460e:	0506                	slli	a0,a0,0x1
    4610:	8082                	ret

00004612 <uxTaskResetEventItemValue>:
    4612:	93018793          	addi	a5,gp,-1744 # 20000230 <pxCurrentTCB>
    4616:	4398                	lw	a4,0(a5)
    4618:	4394                	lw	a3,0(a5)
    461a:	4f08                	lw	a0,24(a4)
    461c:	56d4                	lw	a3,44(a3)
    461e:	4398                	lw	a4,0(a5)
    4620:	47bd                	li	a5,15
    4622:	8f95                	sub	a5,a5,a3
    4624:	cf1c                	sw	a5,24(a4)
    4626:	8082                	ret

00004628 <prvCheckForValidListAndQueue>:
    4628:	eeffb2ef          	jal	t0,516 <__riscv_save_0>
    462c:	c3bfe0ef          	jal	ra,3266 <vPortEnterCritical>
    4630:	97418413          	addi	s0,gp,-1676 # 20000274 <xTimerQueue>
    4634:	401c                	lw	a5,0(s0)
    4636:	ebb1                	bnez	a5,468a <prvCheckForValidListAndQueue+0x62>
    4638:	2000a537          	lui	a0,0x2000a
    463c:	22450913          	addi	s2,a0,548 # 2000a224 <xActiveTimerList1>
    4640:	22450513          	addi	a0,a0,548
    4644:	f0dfe0ef          	jal	ra,3550 <vListInitialise>
    4648:	2000a537          	lui	a0,0x2000a
    464c:	23850493          	addi	s1,a0,568 # 2000a238 <xActiveTimerList2>
    4650:	23850513          	addi	a0,a0,568
    4654:	efdfe0ef          	jal	ra,3550 <vListInitialise>
    4658:	2000a6b7          	lui	a3,0x2000a
    465c:	2000a637          	lui	a2,0x2000a
    4660:	9721a423          	sw	s2,-1688(gp) # 20000268 <pxCurrentTimerList>
    4664:	4701                	li	a4,0
    4666:	24c68693          	addi	a3,a3,588 # 2000a24c <xStaticTimerQueue.6728>
    466a:	1e460613          	addi	a2,a2,484 # 2000a1e4 <ucStaticTimerQueueStorage.6729>
    466e:	45c1                	li	a1,16
    4670:	4511                	li	a0,4
    4672:	9691a623          	sw	s1,-1684(gp) # 2000026c <pxOverflowTimerList>
    4676:	8c2ff0ef          	jal	ra,3738 <xQueueGenericCreateStatic>
    467a:	c008                	sw	a0,0(s0)
    467c:	c519                	beqz	a0,468a <prvCheckForValidListAndQueue+0x62>
    467e:	0000d5b7          	lui	a1,0xd
    4682:	bfc58593          	addi	a1,a1,-1028 # cbfc <MemSize+0xf4>
    4686:	ac4ff0ef          	jal	ra,394a <vQueueAddToRegistry>
    468a:	bf3fe0ef          	jal	ra,327c <vPortExitCritical>
    468e:	eadfb06f          	j	53a <__riscv_restore_0>

00004692 <prvInsertTimerInActiveList>:
    4692:	e85fb2ef          	jal	t0,516 <__riscv_save_0>
    4696:	c14c                	sw	a1,4(a0)
    4698:	c908                	sw	a0,16(a0)
    469a:	87aa                	mv	a5,a0
    469c:	02b66063          	bltu	a2,a1,46bc <prvInsertTimerInActiveList+0x2a>
    46a0:	4d18                	lw	a4,24(a0)
    46a2:	8e15                	sub	a2,a2,a3
    46a4:	4505                	li	a0,1
    46a6:	00e67963          	bgeu	a2,a4,46b8 <prvInsertTimerInActiveList+0x26>
    46aa:	00478593          	addi	a1,a5,4
    46ae:	96c1a503          	lw	a0,-1684(gp) # 2000026c <pxOverflowTimerList>
    46b2:	eb9fe0ef          	jal	ra,356a <vListInsert>
    46b6:	4501                	li	a0,0
    46b8:	e83fb06f          	j	53a <__riscv_restore_0>
    46bc:	00d67563          	bgeu	a2,a3,46c6 <prvInsertTimerInActiveList+0x34>
    46c0:	4505                	li	a0,1
    46c2:	fed5fbe3          	bgeu	a1,a3,46b8 <prvInsertTimerInActiveList+0x26>
    46c6:	00478593          	addi	a1,a5,4
    46ca:	9681a503          	lw	a0,-1688(gp) # 20000268 <pxCurrentTimerList>
    46ce:	b7d5                	j	46b2 <prvInsertTimerInActiveList+0x20>

000046d0 <prvReloadTimer>:
    46d0:	e47fb2ef          	jal	t0,516 <__riscv_save_0>
    46d4:	842a                	mv	s0,a0
    46d6:	84ae                	mv	s1,a1
    46d8:	8932                	mv	s2,a2
    46da:	4c0c                	lw	a1,24(s0)
    46dc:	86a6                	mv	a3,s1
    46de:	864a                	mv	a2,s2
    46e0:	95a6                	add	a1,a1,s1
    46e2:	8522                	mv	a0,s0
    46e4:	fafff0ef          	jal	ra,4692 <prvInsertTimerInActiveList>
    46e8:	e119                	bnez	a0,46ee <prvReloadTimer+0x1e>
    46ea:	e51fb06f          	j	53a <__riscv_restore_0>
    46ee:	4c1c                	lw	a5,24(s0)
    46f0:	8522                	mv	a0,s0
    46f2:	94be                	add	s1,s1,a5
    46f4:	501c                	lw	a5,32(s0)
    46f6:	9782                	jalr	a5
    46f8:	b7cd                	j	46da <prvReloadTimer+0xa>

000046fa <prvProcessExpiredTimer>:
    46fa:	e1dfb2ef          	jal	t0,516 <__riscv_save_0>
    46fe:	9681a783          	lw	a5,-1688(gp) # 20000268 <pxCurrentTimerList>
    4702:	1141                	addi	sp,sp,-16
    4704:	84aa                	mv	s1,a0
    4706:	47dc                	lw	a5,12(a5)
    4708:	c62e                	sw	a1,12(sp)
    470a:	47c0                	lw	s0,12(a5)
    470c:	00440513          	addi	a0,s0,4
    4710:	e89fe0ef          	jal	ra,3598 <uxListRemove>
    4714:	02444783          	lbu	a5,36(s0)
    4718:	4632                	lw	a2,12(sp)
    471a:	0047f713          	andi	a4,a5,4
    471e:	cb19                	beqz	a4,4734 <prvProcessExpiredTimer+0x3a>
    4720:	85a6                	mv	a1,s1
    4722:	8522                	mv	a0,s0
    4724:	fadff0ef          	jal	ra,46d0 <prvReloadTimer>
    4728:	501c                	lw	a5,32(s0)
    472a:	8522                	mv	a0,s0
    472c:	9782                	jalr	a5
    472e:	0141                	addi	sp,sp,16
    4730:	e0bfb06f          	j	53a <__riscv_restore_0>
    4734:	9bf9                	andi	a5,a5,-2
    4736:	02f40223          	sb	a5,36(s0)
    473a:	b7fd                	j	4728 <prvProcessExpiredTimer+0x2e>

0000473c <prvSwitchTimerLists>:
    473c:	ddbfb2ef          	jal	t0,516 <__riscv_save_0>
    4740:	96818693          	addi	a3,gp,-1688 # 20000268 <pxCurrentTimerList>
    4744:	4298                	lw	a4,0(a3)
    4746:	431c                	lw	a5,0(a4)
    4748:	eb81                	bnez	a5,4758 <prvSwitchTimerLists+0x1c>
    474a:	96c18793          	addi	a5,gp,-1684 # 2000026c <pxOverflowTimerList>
    474e:	4390                	lw	a2,0(a5)
    4750:	c398                	sw	a4,0(a5)
    4752:	c290                	sw	a2,0(a3)
    4754:	de7fb06f          	j	53a <__riscv_restore_0>
    4758:	475c                	lw	a5,12(a4)
    475a:	55fd                	li	a1,-1
    475c:	4388                	lw	a0,0(a5)
    475e:	f9dff0ef          	jal	ra,46fa <prvProcessExpiredTimer>
    4762:	bff9                	j	4740 <prvSwitchTimerLists+0x4>

00004764 <prvTimerTask>:
    4764:	d8bfb2ef          	jal	t0,4ee <__riscv_save_10>
    4768:	6935                	lui	s2,0xd
    476a:	1141                	addi	sp,sp,-16
    476c:	bd890913          	addi	s2,s2,-1064 # cbd8 <MemSize+0xd0>
    4770:	9681a783          	lw	a5,-1688(gp) # 20000268 <pxCurrentTimerList>
    4774:	4398                	lw	a4,0(a5)
    4776:	cb29                	beqz	a4,47c8 <prvTimerTask+0x64>
    4778:	47dc                	lw	a5,12(a5)
    477a:	4c81                	li	s9,0
    477c:	0007ac03          	lw	s8,0(a5)
    4780:	ed0ff0ef          	jal	ra,3e50 <vTaskSuspendAll>
    4784:	ed8ff0ef          	jal	ra,3e5c <xTaskGetTickCount>
    4788:	9701a783          	lw	a5,-1680(gp) # 20000270 <xLastTime.6685>
    478c:	842a                	mv	s0,a0
    478e:	97018493          	addi	s1,gp,-1680 # 20000270 <xLastTime.6685>
    4792:	97418a13          	addi	s4,gp,-1676 # 20000274 <xTimerQueue>
    4796:	02f56c63          	bltu	a0,a5,47ce <prvTimerTask+0x6a>
    479a:	c088                	sw	a0,0(s1)
    479c:	040c8063          	beqz	s9,47dc <prvTimerTask+0x78>
    47a0:	96c1a783          	lw	a5,-1684(gp) # 2000026c <pxOverflowTimerList>
    47a4:	4390                	lw	a2,0(a5)
    47a6:	00163613          	seqz	a2,a2
    47aa:	000a2503          	lw	a0,0(s4) # 2000000 <_data_lma+0x1ff32e0>
    47ae:	408c05b3          	sub	a1,s8,s0
    47b2:	a04ff0ef          	jal	ra,39b6 <vQueueWaitForMessageRestricted>
    47b6:	82dff0ef          	jal	ra,3fe2 <xTaskResumeAll>
    47ba:	ed19                	bnez	a0,47d8 <prvTimerTask+0x74>
    47bc:	e000e7b7          	lui	a5,0xe000e
    47c0:	6711                	lui	a4,0x4
    47c2:	20e7a023          	sw	a4,512(a5) # e000e200 <__freertos_irq_stack_top+0xbfffe200>
    47c6:	a809                	j	47d8 <prvTimerTask+0x74>
    47c8:	4c85                	li	s9,1
    47ca:	4c01                	li	s8,0
    47cc:	bf55                	j	4780 <prvTimerTask+0x1c>
    47ce:	f6fff0ef          	jal	ra,473c <prvSwitchTimerLists>
    47d2:	c080                	sw	s0,0(s1)
    47d4:	80fff0ef          	jal	ra,3fe2 <xTaskResumeAll>
    47d8:	4c21                	li	s8,8
    47da:	a00d                	j	47fc <prvTimerTask+0x98>
    47dc:	4601                	li	a2,0
    47de:	fd8566e3          	bltu	a0,s8,47aa <prvTimerTask+0x46>
    47e2:	801ff0ef          	jal	ra,3fe2 <xTaskResumeAll>
    47e6:	85a2                	mv	a1,s0
    47e8:	8562                	mv	a0,s8
    47ea:	f11ff0ef          	jal	ra,46fa <prvProcessExpiredTimer>
    47ee:	b7ed                	j	47d8 <prvTimerTask+0x74>
    47f0:	4792                	lw	a5,4(sp)
    47f2:	45b2                	lw	a1,12(sp)
    47f4:	9782                	jalr	a5
    47f6:	4782                	lw	a5,0(sp)
    47f8:	0007dd63          	bgez	a5,4812 <prvTimerTask+0xae>
    47fc:	000a2503          	lw	a0,0(s4)
    4800:	4601                	li	a2,0
    4802:	858a                	mv	a1,sp
    4804:	fe3fe0ef          	jal	ra,37e6 <xQueueReceive>
    4808:	d525                	beqz	a0,4770 <prvTimerTask+0xc>
    480a:	4782                	lw	a5,0(sp)
    480c:	4522                	lw	a0,8(sp)
    480e:	fe07c1e3          	bltz	a5,47f0 <prvTimerTask+0x8c>
    4812:	4422                	lw	s0,8(sp)
    4814:	485c                	lw	a5,20(s0)
    4816:	e39d                	bnez	a5,483c <prvTimerTask+0xd8>
    4818:	e44ff0ef          	jal	ra,3e5c <xTaskGetTickCount>
    481c:	409c                	lw	a5,0(s1)
    481e:	8caa                	mv	s9,a0
    4820:	00f57463          	bgeu	a0,a5,4828 <prvTimerTask+0xc4>
    4824:	f19ff0ef          	jal	ra,473c <prvSwitchTimerLists>
    4828:	4782                	lw	a5,0(sp)
    482a:	0194a023          	sw	s9,0(s1)
    482e:	17fd                	addi	a5,a5,-1
    4830:	fcfc66e3          	bltu	s8,a5,47fc <prvTimerTask+0x98>
    4834:	078a                	slli	a5,a5,0x2
    4836:	97ca                	add	a5,a5,s2
    4838:	439c                	lw	a5,0(a5)
    483a:	8782                	jr	a5
    483c:	00440513          	addi	a0,s0,4
    4840:	d59fe0ef          	jal	ra,3598 <uxListRemove>
    4844:	bfd1                	j	4818 <prvTimerTask+0xb4>
    4846:	02444783          	lbu	a5,36(s0)
    484a:	4c0c                	lw	a1,24(s0)
    484c:	4692                	lw	a3,4(sp)
    484e:	0017e793          	ori	a5,a5,1
    4852:	02f40223          	sb	a5,36(s0)
    4856:	8666                	mv	a2,s9
    4858:	95b6                	add	a1,a1,a3
    485a:	8522                	mv	a0,s0
    485c:	e37ff0ef          	jal	ra,4692 <prvInsertTimerInActiveList>
    4860:	dd51                	beqz	a0,47fc <prvTimerTask+0x98>
    4862:	02444783          	lbu	a5,36(s0)
    4866:	0047f713          	andi	a4,a5,4
    486a:	cf01                	beqz	a4,4882 <prvTimerTask+0x11e>
    486c:	4c1c                	lw	a5,24(s0)
    486e:	4592                	lw	a1,4(sp)
    4870:	8666                	mv	a2,s9
    4872:	8522                	mv	a0,s0
    4874:	95be                	add	a1,a1,a5
    4876:	e5bff0ef          	jal	ra,46d0 <prvReloadTimer>
    487a:	501c                	lw	a5,32(s0)
    487c:	8522                	mv	a0,s0
    487e:	9782                	jalr	a5
    4880:	bfb5                	j	47fc <prvTimerTask+0x98>
    4882:	9bf9                	andi	a5,a5,-2
    4884:	02f40223          	sb	a5,36(s0)
    4888:	bfcd                	j	487a <prvTimerTask+0x116>
    488a:	02444783          	lbu	a5,36(s0)
    488e:	9bf9                	andi	a5,a5,-2
    4890:	02f40223          	sb	a5,36(s0)
    4894:	b7a5                	j	47fc <prvTimerTask+0x98>
    4896:	02444783          	lbu	a5,36(s0)
    489a:	4592                	lw	a1,4(sp)
    489c:	0017e793          	ori	a5,a5,1
    48a0:	02f40223          	sb	a5,36(s0)
    48a4:	cc0c                	sw	a1,24(s0)
    48a6:	e19d                	bnez	a1,48cc <prvTimerTask+0x168>
    48a8:	67a1                	lui	a5,0x8
    48aa:	80078793          	addi	a5,a5,-2048 # 7800 <mem_free+0x5a>
    48ae:	30079073          	csrw	mstatus,a5
    48b2:	0000d637          	lui	a2,0xd
    48b6:	0000d537          	lui	a0,0xd
    48ba:	c0460613          	addi	a2,a2,-1020 # cc04 <MemSize+0xfc>
    48be:	35900593          	li	a1,857
    48c2:	b4050513          	addi	a0,a0,-1216 # cb40 <MemSize+0x38>
    48c6:	468070ef          	jal	ra,bd2e <iprintf>
    48ca:	a001                	j	48ca <prvTimerTask+0x166>
    48cc:	86e6                	mv	a3,s9
    48ce:	8666                	mv	a2,s9
    48d0:	95e6                	add	a1,a1,s9
    48d2:	8522                	mv	a0,s0
    48d4:	dbfff0ef          	jal	ra,4692 <prvInsertTimerInActiveList>
    48d8:	b715                	j	47fc <prvTimerTask+0x98>
    48da:	02444783          	lbu	a5,36(s0)
    48de:	0027f713          	andi	a4,a5,2
    48e2:	f755                	bnez	a4,488e <prvTimerTask+0x12a>
    48e4:	8522                	mv	a0,s0
    48e6:	fe6fe0ef          	jal	ra,30cc <vPortFree>
    48ea:	bf09                	j	47fc <prvTimerTask+0x98>

000048ec <xTimerCreateTimerTask>:
    48ec:	c2bfb2ef          	jal	t0,516 <__riscv_save_0>
    48f0:	1141                	addi	sp,sp,-16
    48f2:	d37ff0ef          	jal	ra,4628 <prvCheckForValidListAndQueue>
    48f6:	9741a783          	lw	a5,-1676(gp) # 20000274 <xTimerQueue>
    48fa:	cb95                	beqz	a5,492e <xTimerCreateTimerTask+0x42>
    48fc:	0070                	addi	a2,sp,12
    48fe:	002c                	addi	a1,sp,8
    4900:	0048                	addi	a0,sp,4
    4902:	c202                	sw	zero,4(sp)
    4904:	c402                	sw	zero,8(sp)
    4906:	ccbfc0ef          	jal	ra,15d0 <vApplicationGetTimerTaskMemory>
    490a:	47a2                	lw	a5,8(sp)
    490c:	4812                	lw	a6,4(sp)
    490e:	4632                	lw	a2,12(sp)
    4910:	0000d5b7          	lui	a1,0xd
    4914:	00004537          	lui	a0,0x4
    4918:	4739                	li	a4,14
    491a:	4681                	li	a3,0
    491c:	c1c58593          	addi	a1,a1,-996 # cc1c <MemSize+0x114>
    4920:	76450513          	addi	a0,a0,1892 # 4764 <prvTimerTask>
    4924:	bf6ff0ef          	jal	ra,3d1a <xTaskCreateStatic>
    4928:	96a1ac23          	sw	a0,-1672(gp) # 20000278 <xTimerTaskHandle>
    492c:	e11d                	bnez	a0,4952 <xTimerCreateTimerTask+0x66>
    492e:	67a1                	lui	a5,0x8
    4930:	80078793          	addi	a5,a5,-2048 # 7800 <mem_free+0x5a>
    4934:	30079073          	csrw	mstatus,a5
    4938:	0000d637          	lui	a2,0xd
    493c:	0000d537          	lui	a0,0xd
    4940:	c0460613          	addi	a2,a2,-1020 # cc04 <MemSize+0xfc>
    4944:	11900593          	li	a1,281
    4948:	b4050513          	addi	a0,a0,-1216 # cb40 <MemSize+0x38>
    494c:	3e2070ef          	jal	ra,bd2e <iprintf>
    4950:	a001                	j	4950 <xTimerCreateTimerTask+0x64>
    4952:	4505                	li	a0,1
    4954:	0141                	addi	sp,sp,16
    4956:	be5fb06f          	j	53a <__riscv_restore_0>

0000495a <Delay_Init>:
    495a:	8181a783          	lw	a5,-2024(gp) # 20000118 <SystemCoreClock>
    495e:	007a1737          	lui	a4,0x7a1
    4962:	20070713          	addi	a4,a4,512 # 7a1200 <_data_lma+0x7944e0>
    4966:	02e7d7b3          	divu	a5,a5,a4
    496a:	0ff7f793          	andi	a5,a5,255
    496e:	96f18f23          	sb	a5,-1666(gp) # 2000027e <p_us>
    4972:	3e800713          	li	a4,1000
    4976:	02e787b3          	mul	a5,a5,a4
    497a:	96f19e23          	sh	a5,-1668(gp) # 2000027c <p_ms>
    497e:	8082                	ret

00004980 <Delay_Us>:
    4980:	e000f7b7          	lui	a5,0xe000f
    4984:	43d8                	lw	a4,4(a5)
    4986:	4681                	li	a3,0
    4988:	9b79                	andi	a4,a4,-2
    498a:	c3d8                	sw	a4,4(a5)
    498c:	97e1c703          	lbu	a4,-1666(gp) # 2000027e <p_us>
    4990:	02a70633          	mul	a2,a4,a0
    4994:	cb90                	sw	a2,16(a5)
    4996:	cbd4                	sw	a3,20(a5)
    4998:	4398                	lw	a4,0(a5)
    499a:	01076713          	ori	a4,a4,16
    499e:	c398                	sw	a4,0(a5)
    49a0:	4398                	lw	a4,0(a5)
    49a2:	02176713          	ori	a4,a4,33
    49a6:	c398                	sw	a4,0(a5)
    49a8:	43d8                	lw	a4,4(a5)
    49aa:	8b05                	andi	a4,a4,1
    49ac:	df75                	beqz	a4,49a8 <Delay_Us+0x28>
    49ae:	4398                	lw	a4,0(a5)
    49b0:	9b79                	andi	a4,a4,-2
    49b2:	c398                	sw	a4,0(a5)
    49b4:	8082                	ret

000049b6 <Delay_Ms>:
    49b6:	e000f7b7          	lui	a5,0xe000f
    49ba:	43d8                	lw	a4,4(a5)
    49bc:	4681                	li	a3,0
    49be:	9b79                	andi	a4,a4,-2
    49c0:	c3d8                	sw	a4,4(a5)
    49c2:	97c1d703          	lhu	a4,-1668(gp) # 2000027c <p_ms>
    49c6:	02a70633          	mul	a2,a4,a0
    49ca:	cb90                	sw	a2,16(a5)
    49cc:	cbd4                	sw	a3,20(a5)
    49ce:	4398                	lw	a4,0(a5)
    49d0:	01076713          	ori	a4,a4,16
    49d4:	c398                	sw	a4,0(a5)
    49d6:	4398                	lw	a4,0(a5)
    49d8:	02176713          	ori	a4,a4,33
    49dc:	c398                	sw	a4,0(a5)
    49de:	43d8                	lw	a4,4(a5)
    49e0:	8b05                	andi	a4,a4,1
    49e2:	df75                	beqz	a4,49de <Delay_Ms+0x28>
    49e4:	4398                	lw	a4,0(a5)
    49e6:	9b79                	andi	a4,a4,-2
    49e8:	c398                	sw	a4,0(a5)
    49ea:	8082                	ret

000049ec <USART_Printf_Init>:
    49ec:	b2bfb2ef          	jal	t0,516 <__riscv_save_0>
    49f0:	842a                	mv	s0,a0
    49f2:	6511                	lui	a0,0x4
    49f4:	1101                	addi	sp,sp,-32
    49f6:	4585                	li	a1,1
    49f8:	0511                	addi	a0,a0,4
    49fa:	bbafd0ef          	jal	ra,1db4 <RCC_APB2PeriphClockCmd>
    49fe:	20000793          	li	a5,512
    4a02:	827c                	sh	a5,4(sp)
    4a04:	40011537          	lui	a0,0x40011
    4a08:	478d                	li	a5,3
    4a0a:	c43e                	sw	a5,8(sp)
    4a0c:	004c                	addi	a1,sp,4
    4a0e:	47e1                	li	a5,24
    4a10:	80050513          	addi	a0,a0,-2048 # 40010800 <__freertos_irq_stack_top+0x20000800>
    4a14:	c63e                	sw	a5,12(sp)
    4a16:	940fd0ef          	jal	ra,1b56 <GPIO_Init>
    4a1a:	c822                	sw	s0,16(sp)
    4a1c:	40014437          	lui	s0,0x40014
    4a20:	000807b7          	lui	a5,0x80
    4a24:	080c                	addi	a1,sp,16
    4a26:	80040513          	addi	a0,s0,-2048 # 40013800 <__freertos_irq_stack_top+0x20003800>
    4a2a:	cc3e                	sw	a5,24(sp)
    4a2c:	ca02                	sw	zero,20(sp)
    4a2e:	00011e23          	sh	zero,28(sp)
    4a32:	d30fd0ef          	jal	ra,1f62 <USART_Init>
    4a36:	4585                	li	a1,1
    4a38:	80040513          	addi	a0,s0,-2048
    4a3c:	de0fd0ef          	jal	ra,201c <USART_Cmd>
    4a40:	6105                	addi	sp,sp,32
    4a42:	af9fb06f          	j	53a <__riscv_restore_0>

00004a46 <_write>:
    4a46:	ab7fb2ef          	jal	t0,4fc <__riscv_save_4>
    4a4a:	400144b7          	lui	s1,0x40014
    4a4e:	89ae                	mv	s3,a1
    4a50:	8932                	mv	s2,a2
    4a52:	4401                	li	s0,0
    4a54:	80048493          	addi	s1,s1,-2048 # 40013800 <__freertos_irq_stack_top+0x20003800>
    4a58:	01244563          	blt	s0,s2,4a62 <_write+0x1c>
    4a5c:	854a                	mv	a0,s2
    4a5e:	ad3fb06f          	j	530 <__riscv_restore_4>
    4a62:	04000593          	li	a1,64
    4a66:	8526                	mv	a0,s1
    4a68:	dd2fd0ef          	jal	ra,203a <USART_GetFlagStatus>
    4a6c:	d97d                	beqz	a0,4a62 <_write+0x1c>
    4a6e:	008987b3          	add	a5,s3,s0
    4a72:	00078583          	lb	a1,0(a5) # 80000 <_data_lma+0x732e0>
    4a76:	8526                	mv	a0,s1
    4a78:	0405                	addi	s0,s0,1
    4a7a:	05c2                	slli	a1,a1,0x10
    4a7c:	81c1                	srli	a1,a1,0x10
    4a7e:	db4fd0ef          	jal	ra,2032 <USART_SendData>
    4a82:	bfd9                	j	4a58 <_write+0x12>

00004a84 <_sbrk>:
    4a84:	82c18713          	addi	a4,gp,-2004 # 2000012c <curbrk.5586>
    4a88:	431c                	lw	a5,0(a4)
    4a8a:	2000a6b7          	lui	a3,0x2000a
    4a8e:	3f868693          	addi	a3,a3,1016 # 2000a3f8 <_ebss>
    4a92:	953e                	add	a0,a0,a5
    4a94:	00d56b63          	bltu	a0,a3,4aaa <_sbrk+0x26>
    4a98:	200106b7          	lui	a3,0x20010
    4a9c:	80068693          	addi	a3,a3,-2048 # 2000f800 <_heap_end>
    4aa0:	00a6e563          	bltu	a3,a0,4aaa <_sbrk+0x26>
    4aa4:	c308                	sw	a0,0(a4)
    4aa6:	853e                	mv	a0,a5
    4aa8:	8082                	ret
    4aaa:	57fd                	li	a5,-1
    4aac:	bfed                	j	4aa6 <_sbrk+0x22>

00004aae <__get_MEPC>:
    4aae:	34102573          	csrr	a0,mepc
    4ab2:	8082                	ret

00004ab4 <__get_MCAUSE>:
    4ab4:	34202573          	csrr	a0,mcause
    4ab8:	8082                	ret

00004aba <__get_MTVAL>:
    4aba:	34302573          	csrr	a0,mtval
    4abe:	8082                	ret

00004ac0 <WCHNET_PeriodicHandle>:
    4ac0:	a57fb2ef          	jal	t0,516 <__riscv_save_0>
    4ac4:	20000437          	lui	s0,0x20000
    4ac8:	1e442783          	lw	a5,484(s0) # 200001e4 <LocalTime>
    4acc:	1141                	addi	sp,sp,-16
    4ace:	c63e                	sw	a5,12(sp)
    4ad0:	1c6010ef          	jal	ra,5c96 <WCHNET_GetPHYStatus>
    4ad4:	8911                	andi	a0,a0,4
    4ad6:	14050063          	beqz	a0,4c16 <WCHNET_PeriodicHandle+0x156>
    4ada:	99818793          	addi	a5,gp,-1640 # 20000298 <TCPTimer>
    4ade:	4398                	lw	a4,0(a5)
    4ae0:	46b2                	lw	a3,12(sp)
    4ae2:	8e99                	sub	a3,a3,a4
    4ae4:	2000a737          	lui	a4,0x2000a
    4ae8:	33472703          	lw	a4,820(a4) # 2000a334 <NetInf+0x1c>
    4aec:	8305                	srli	a4,a4,0x1
    4aee:	00d77663          	bgeu	a4,a3,4afa <WCHNET_PeriodicHandle+0x3a>
    4af2:	4732                	lw	a4,12(sp)
    4af4:	c398                	sw	a4,0(a5)
    4af6:	55d030ef          	jal	ra,8852 <tcp_tmr>
    4afa:	012040ef          	jal	ra,8b0c <RemoveTimeWaiTCP>
    4afe:	9a81a783          	lw	a5,-1624(gp) # 200002a8 <tcpSendAckFlag>
    4b02:	c791                	beqz	a5,4b0e <WCHNET_PeriodicHandle+0x4e>
    4b04:	571030ef          	jal	ra,8874 <tcp_fastsendack>
    4b08:	e119                	bnez	a0,4b0e <WCHNET_PeriodicHandle+0x4e>
    4b0a:	9a01a423          	sw	zero,-1624(gp) # 200002a8 <tcpSendAckFlag>
    4b0e:	99418493          	addi	s1,gp,-1644 # 20000294 <IPFragTimer>
    4b12:	4098                	lw	a4,0(s1)
    4b14:	47b2                	lw	a5,12(sp)
    4b16:	8f99                	sub	a5,a5,a4
    4b18:	3e700713          	li	a4,999
    4b1c:	00f77663          	bgeu	a4,a5,4b28 <WCHNET_PeriodicHandle+0x68>
    4b20:	216020ef          	jal	ra,6d36 <ip_reass_tmr>
    4b24:	47b2                	lw	a5,12(sp)
    4b26:	c09c                	sw	a5,0(s1)
    4b28:	98018793          	addi	a5,gp,-1664 # 20000280 <ARPTimer>
    4b2c:	4398                	lw	a4,0(a5)
    4b2e:	46b2                	lw	a3,12(sp)
    4b30:	8e99                	sub	a3,a3,a4
    4b32:	6705                	lui	a4,0x1
    4b34:	38770713          	addi	a4,a4,903 # 1387 <eMBRegCoilsCB+0x1>
    4b38:	00d77663          	bgeu	a4,a3,4b44 <WCHNET_PeriodicHandle+0x84>
    4b3c:	4732                	lw	a4,12(sp)
    4b3e:	c398                	sw	a4,0(a5)
    4b40:	5d4010ef          	jal	ra,6114 <etharp_tmr>
    4b44:	2000a7b7          	lui	a5,0x2000a
    4b48:	2f878793          	addi	a5,a5,760 # 2000a2f8 <DNSInf>
    4b4c:	47d8                	lw	a4,12(a5)
    4b4e:	cf11                	beqz	a4,4b6a <WCHNET_PeriodicHandle+0xaa>
    4b50:	99018713          	addi	a4,gp,-1648 # 20000290 <DNSTimer>
    4b54:	4310                	lw	a2,0(a4)
    4b56:	46b2                	lw	a3,12(sp)
    4b58:	8e91                	sub	a3,a3,a2
    4b5a:	3e700613          	li	a2,999
    4b5e:	00d67663          	bgeu	a2,a3,4b6a <WCHNET_PeriodicHandle+0xaa>
    4b62:	46b2                	lw	a3,12(sp)
    4b64:	43dc                	lw	a5,4(a5)
    4b66:	c314                	sw	a3,0(a4)
    4b68:	9782                	jalr	a5
    4b6a:	2000a4b7          	lui	s1,0x2000a
    4b6e:	2a04a783          	lw	a5,672(s1) # 2000a2a0 <DHCPCtrl>
    4b72:	cba9                	beqz	a5,4bc4 <WCHNET_PeriodicHandle+0x104>
    4b74:	98c18713          	addi	a4,gp,-1652 # 2000028c <DHCPfineTimer>
    4b78:	431c                	lw	a5,0(a4)
    4b7a:	46b2                	lw	a3,12(sp)
    4b7c:	0fa00613          	li	a2,250
    4b80:	8e9d                	sub	a3,a3,a5
    4b82:	2000a7b7          	lui	a5,0x2000a
    4b86:	3707a783          	lw	a5,880(a5) # 2000a370 <WCHCfg+0x14>
    4b8a:	83ed                	srli	a5,a5,0x1b
    4b8c:	02c787b3          	mul	a5,a5,a2
    4b90:	00f6e963          	bltu	a3,a5,4ba2 <WCHNET_PeriodicHandle+0xe2>
    4b94:	47b2                	lw	a5,12(sp)
    4b96:	c31c                	sw	a5,0(a4)
    4b98:	2a048793          	addi	a5,s1,672
    4b9c:	4b9c                	lw	a5,16(a5)
    4b9e:	c391                	beqz	a5,4ba2 <WCHNET_PeriodicHandle+0xe2>
    4ba0:	9782                	jalr	a5
    4ba2:	98818793          	addi	a5,gp,-1656 # 20000288 <DHCPcoarseTimer>
    4ba6:	4398                	lw	a4,0(a5)
    4ba8:	46b2                	lw	a3,12(sp)
    4baa:	8e99                	sub	a3,a3,a4
    4bac:	673d                	lui	a4,0xf
    4bae:	a5f70713          	addi	a4,a4,-1441 # ea5f <_data_lma+0x1d3f>
    4bb2:	00d77963          	bgeu	a4,a3,4bc4 <WCHNET_PeriodicHandle+0x104>
    4bb6:	4732                	lw	a4,12(sp)
    4bb8:	2a048493          	addi	s1,s1,672
    4bbc:	c398                	sw	a4,0(a5)
    4bbe:	48dc                	lw	a5,20(s1)
    4bc0:	c391                	beqz	a5,4bc4 <WCHNET_PeriodicHandle+0x104>
    4bc2:	9782                	jalr	a5
    4bc4:	4532                	lw	a0,12(sp)
    4bc6:	98418493          	addi	s1,gp,-1660 # 20000284 <ArpCheckTime>
    4bca:	2465                	jal	4e72 <IPCheckTmr>
    4bcc:	409c                	lw	a5,0(s1)
    4bce:	4732                	lw	a4,12(sp)
    4bd0:	8f1d                	sub	a4,a4,a5
    4bd2:	67bd                	lui	a5,0xf
    4bd4:	a5f78793          	addi	a5,a5,-1441 # ea5f <_data_lma+0x1d3f>
    4bd8:	00e7f563          	bgeu	a5,a4,4be2 <WCHNET_PeriodicHandle+0x122>
    4bdc:	2cb9                	jal	4e3a <SelIPARPSend>
    4bde:	47b2                	lw	a5,12(sp)
    4be0:	c09c                	sw	a5,0(s1)
    4be2:	9a51c703          	lbu	a4,-1627(gp) # 200002a5 <phydata>
    4be6:	84be                	mv	s1,a5
    4be8:	0ff77713          	andi	a4,a4,255
    4bec:	c70d                	beqz	a4,4c16 <WCHNET_PeriodicHandle+0x156>
    4bee:	9a51c703          	lbu	a4,-1627(gp) # 200002a5 <phydata>
    4bf2:	0c077713          	andi	a4,a4,192
    4bf6:	e31d                	bnez	a4,4c1c <WCHNET_PeriodicHandle+0x15c>
    4bf8:	2000a7b7          	lui	a5,0x2000a
    4bfc:	3787a783          	lw	a5,888(a5) # 2000a378 <WCHCfg+0x1c>
    4c00:	c399                	beqz	a5,4c06 <WCHNET_PeriodicHandle+0x146>
    4c02:	4505                	li	a0,1
    4c04:	9782                	jalr	a5
    4c06:	1e442703          	lw	a4,484(s0)
    4c0a:	9ae1a023          	sw	a4,-1632(gp) # 200002a0 <phydatatime>
    4c0e:	04000793          	li	a5,64
    4c12:	9af182a3          	sb	a5,-1627(gp) # 200002a5 <phydata>
    4c16:	0141                	addi	sp,sp,16
    4c18:	923fb06f          	j	53a <__riscv_restore_0>
    4c1c:	9a51c703          	lbu	a4,-1627(gp) # 200002a5 <phydata>
    4c20:	04077713          	andi	a4,a4,64
    4c24:	cb15                	beqz	a4,4c58 <WCHNET_PeriodicHandle+0x198>
    4c26:	9a01a683          	lw	a3,-1632(gp) # 200002a0 <phydatatime>
    4c2a:	1e442703          	lw	a4,484(s0)
    4c2e:	9a018913          	addi	s2,gp,-1632 # 200002a0 <phydatatime>
    4c32:	8f15                	sub	a4,a4,a3
    4c34:	06400693          	li	a3,100
    4c38:	fce6ffe3          	bgeu	a3,a4,4c16 <WCHNET_PeriodicHandle+0x156>
    4c3c:	2000a7b7          	lui	a5,0x2000a
    4c40:	3787a783          	lw	a5,888(a5) # 2000a378 <WCHCfg+0x1c>
    4c44:	c399                	beqz	a5,4c4a <WCHNET_PeriodicHandle+0x18a>
    4c46:	4501                	li	a0,0
    4c48:	9782                	jalr	a5
    4c4a:	1e442783          	lw	a5,484(s0)
    4c4e:	00f92023          	sw	a5,0(s2)
    4c52:	f8000793          	li	a5,-128
    4c56:	bf75                	j	4c12 <WCHNET_PeriodicHandle+0x152>
    4c58:	9a51c703          	lbu	a4,-1627(gp) # 200002a5 <phydata>
    4c5c:	0762                	slli	a4,a4,0x18
    4c5e:	8761                	srai	a4,a4,0x18
    4c60:	fa075be3          	bgez	a4,4c16 <WCHNET_PeriodicHandle+0x156>
    4c64:	9a01a683          	lw	a3,-1632(gp) # 200002a0 <phydatatime>
    4c68:	1e442703          	lw	a4,484(s0)
    4c6c:	8f15                	sub	a4,a4,a3
    4c6e:	06400693          	li	a3,100
    4c72:	fae6f2e3          	bgeu	a3,a4,4c16 <WCHNET_PeriodicHandle+0x156>
    4c76:	9a0182a3          	sb	zero,-1627(gp) # 200002a5 <phydata>
    4c7a:	bf71                	j	4c16 <WCHNET_PeriodicHandle+0x156>

00004c7c <WCHNET_NetInput>:
    4c7c:	89bfb2ef          	jal	t0,516 <__riscv_save_0>
    4c80:	2000a537          	lui	a0,0x2000a
    4c84:	38850513          	addi	a0,a0,904 # 2000a388 <WCHNetIf>
    4c88:	2bd010ef          	jal	ra,6744 <ethernetif_input>
    4c8c:	8affb06f          	j	53a <__riscv_restore_0>

00004c90 <WCHNET_PhyStatus>:
    4c90:	887fb2ef          	jal	t0,516 <__riscv_save_0>
    4c94:	2000a7b7          	lui	a5,0x2000a
    4c98:	31878793          	addi	a5,a5,792 # 2000a318 <NetInf>
    4c9c:	57d8                	lw	a4,44(a5)
    4c9e:	2000a437          	lui	s0,0x2000a
    4ca2:	d388                	sw	a0,32(a5)
    4ca4:	00476713          	ori	a4,a4,4
    4ca8:	d7d8                	sw	a4,44(a5)
    4caa:	8911                	andi	a0,a0,4
    4cac:	35c40793          	addi	a5,s0,860 # 2000a35c <WCHCfg>
    4cb0:	4f9c                	lw	a5,24(a5)
    4cb2:	35c40413          	addi	s0,s0,860
    4cb6:	cd01                	beqz	a0,4cce <WCHNET_PhyStatus+0x3e>
    4cb8:	c399                	beqz	a5,4cbe <WCHNET_PhyStatus+0x2e>
    4cba:	4501                	li	a0,0
    4cbc:	9782                	jalr	a5
    4cbe:	4c5c                	lw	a5,28(s0)
    4cc0:	c399                	beqz	a5,4cc6 <WCHNET_PhyStatus+0x36>
    4cc2:	4501                	li	a0,0
    4cc4:	9782                	jalr	a5
    4cc6:	4505                	li	a0,1
    4cc8:	2a81                	jal	4e18 <IPCheckParaInit>
    4cca:	871fb06f          	j	53a <__riscv_restore_0>
    4cce:	c399                	beqz	a5,4cd4 <WCHNET_PhyStatus+0x44>
    4cd0:	4505                	li	a0,1
    4cd2:	9782                	jalr	a5
    4cd4:	4c5c                	lw	a5,28(s0)
    4cd6:	dbf5                	beqz	a5,4cca <WCHNET_PhyStatus+0x3a>
    4cd8:	4505                	li	a0,1
    4cda:	9782                	jalr	a5
    4cdc:	b7fd                	j	4cca <WCHNET_PhyStatus+0x3a>

00004cde <WCHNET_Rx>:
    4cde:	20000737          	lui	a4,0x20000
    4ce2:	1f872783          	lw	a5,504(a4) # 200001f8 <pDMARxSet>
    4ce6:	00052023          	sw	zero,0(a0)
    4cea:	cb9d                	beqz	a5,4d20 <WCHNET_Rx+0x42>
    4cec:	4394                	lw	a3,0(a5)
    4cee:	0006db63          	bgez	a3,4d04 <WCHNET_Rx+0x26>
    4cf2:	47d4                	lw	a3,12(a5)
    4cf4:	4290                	lw	a2,0(a3)
    4cf6:	02064563          	bltz	a2,4d20 <WCHNET_Rx+0x42>
    4cfa:	439c                	lw	a5,0(a5)
    4cfc:	0007d463          	bgez	a5,4d04 <WCHNET_Rx+0x26>
    4d00:	1ed72c23          	sw	a3,504(a4)
    4d04:	1f872783          	lw	a5,504(a4)
    4d08:	6591                	lui	a1,0x4
    4d0a:	4601                	li	a2,0
    4d0c:	15fd                	addi	a1,a1,-1
    4d0e:	4835                	li	a6,13
    4d10:	800008b7          	lui	a7,0x80000
    4d14:	4394                	lw	a3,0(a5)
    4d16:	0006d763          	bgez	a3,4d24 <WCHNET_Rx+0x46>
    4d1a:	c219                	beqz	a2,4d20 <WCHNET_Rx+0x42>
    4d1c:	1ef72c23          	sw	a5,504(a4)
    4d20:	4501                	li	a0,0
    4d22:	8082                	ret
    4d24:	4394                	lw	a3,0(a5)
    4d26:	01069313          	slli	t1,a3,0x10
    4d2a:	04034263          	bltz	t1,4d6e <WCHNET_Rx+0x90>
    4d2e:	4394                	lw	a3,0(a5)
    4d30:	1006f693          	andi	a3,a3,256
    4d34:	ce8d                	beqz	a3,4d6e <WCHNET_Rx+0x90>
    4d36:	4394                	lw	a3,0(a5)
    4d38:	2006f693          	andi	a3,a3,512
    4d3c:	ca8d                	beqz	a3,4d6e <WCHNET_Rx+0x90>
    4d3e:	4394                	lw	a3,0(a5)
    4d40:	82c1                	srli	a3,a3,0x10
    4d42:	8eed                	and	a3,a3,a1
    4d44:	16f1                	addi	a3,a3,-4
    4d46:	c114                	sw	a3,0(a0)
    4d48:	02d87163          	bgeu	a6,a3,4d6a <WCHNET_Rx+0x8c>
    4d4c:	4394                	lw	a3,0(a5)
    4d4e:	0206f693          	andi	a3,a3,32
    4d52:	ea81                	bnez	a3,4d62 <WCHNET_Rx+0x84>
    4d54:	c219                	beqz	a2,4d5a <WCHNET_Rx+0x7c>
    4d56:	1ef72c23          	sw	a5,504(a4)
    4d5a:	479c                	lw	a5,8(a5)
    4d5c:	c15c                	sw	a5,4(a0)
    4d5e:	4505                	li	a0,1
    4d60:	8082                	ret
    4d62:	4394                	lw	a3,0(a5)
    4d64:	0816f693          	andi	a3,a3,129
    4d68:	d6f5                	beqz	a3,4d54 <WCHNET_Rx+0x76>
    4d6a:	00052023          	sw	zero,0(a0)
    4d6e:	0117a023          	sw	a7,0(a5)
    4d72:	4605                	li	a2,1
    4d74:	47dc                	lw	a5,12(a5)
    4d76:	bf79                	j	4d14 <WCHNET_Rx+0x36>

00004d78 <setRxBuffAddr>:
    4d78:	200007b7          	lui	a5,0x20000
    4d7c:	1f87a703          	lw	a4,504(a5) # 200001f8 <pDMARxSet>
    4d80:	800006b7          	lui	a3,0x80000
    4d84:	c314                	sw	a3,0(a4)
    4d86:	4758                	lw	a4,12(a4)
    4d88:	1ee7ac23          	sw	a4,504(a5)
    4d8c:	8082                	ret

00004d8e <WCHNET_Tx>:
    4d8e:	f88fb2ef          	jal	t0,516 <__riscv_save_0>
    4d92:	9a51c783          	lbu	a5,-1627(gp) # 200002a5 <phydata>
    4d96:	0ff7f793          	andi	a5,a5,255
    4d9a:	e781                	bnez	a5,4da2 <WCHNET_Tx+0x14>
    4d9c:	4785                	li	a5,1
    4d9e:	9af182a3          	sb	a5,-1627(gp) # 200002a5 <phydata>
    4da2:	200007b7          	lui	a5,0x20000
    4da6:	1e47a703          	lw	a4,484(a5) # 200001e4 <LocalTime>
    4daa:	99c18793          	addi	a5,gp,-1636 # 2000029c <TxTimer>
    4dae:	cb09                	beqz	a4,4dc0 <WCHNET_Tx+0x32>
    4db0:	c398                	sw	a4,0(a5)
    4db2:	2000a7b7          	lui	a5,0x2000a
    4db6:	37c7a783          	lw	a5,892(a5) # 2000a37c <WCHCfg+0x20>
    4dba:	9782                	jalr	a5
    4dbc:	f7efb06f          	j	53a <__riscv_restore_0>
    4dc0:	4705                	li	a4,1
    4dc2:	b7fd                	j	4db0 <WCHNET_Tx+0x22>

00004dc4 <getTxBuffAddr>:
    4dc4:	2000a7b7          	lui	a5,0x2000a
    4dc8:	37c7a783          	lw	a5,892(a5) # 2000a37c <WCHCfg+0x20>
    4dcc:	4501                	li	a0,0
    4dce:	c3a1                	beqz	a5,4e0e <getTxBuffAddr+0x4a>
    4dd0:	200007b7          	lui	a5,0x20000
    4dd4:	1d07a703          	lw	a4,464(a5) # 200001d0 <DMATxDescToSet>
    4dd8:	cb1d                	beqz	a4,4e0e <getTxBuffAddr+0x4a>
    4dda:	4314                	lw	a3,0(a4)
    4ddc:	4708                	lw	a0,8(a4)
    4dde:	99c18793          	addi	a5,gp,-1636 # 2000029c <TxTimer>
    4de2:	0206d463          	bgez	a3,4e0a <getTxBuffAddr+0x46>
    4de6:	438c                	lw	a1,0(a5)
    4de8:	66a1                	lui	a3,0x8
    4dea:	0689                	addi	a3,a3,2
    4dec:	20000837          	lui	a6,0x20000
    4df0:	06300893          	li	a7,99
    4df4:	1e482603          	lw	a2,484(a6) # 200001e4 <LocalTime>
    4df8:	8e0d                	sub	a2,a2,a1
    4dfa:	00c8e463          	bltu	a7,a2,4e02 <getTxBuffAddr+0x3e>
    4dfe:	16fd                	addi	a3,a3,-1
    4e00:	ea81                	bnez	a3,4e10 <getTxBuffAddr+0x4c>
    4e02:	4314                	lw	a3,0(a4)
    4e04:	0686                	slli	a3,a3,0x1
    4e06:	8285                	srli	a3,a3,0x1
    4e08:	c314                	sw	a3,0(a4)
    4e0a:	0007a023          	sw	zero,0(a5)
    4e0e:	8082                	ret
    4e10:	4310                	lw	a2,0(a4)
    4e12:	fe0641e3          	bltz	a2,4df4 <getTxBuffAddr+0x30>
    4e16:	bfd5                	j	4e0a <getTxBuffAddr+0x46>

00004e18 <IPCheckParaInit>:
    4e18:	20000737          	lui	a4,0x20000
    4e1c:	1e472703          	lw	a4,484(a4) # 200001e4 <LocalTime>
    4e20:	2000a7b7          	lui	a5,0x2000a
    4e24:	29478793          	addi	a5,a5,660 # 2000a294 <SelARP>
    4e28:	a388                	sb	a0,0(a5)
    4e2a:	00079123          	sh	zero,2(a5)
    4e2e:	00079223          	sh	zero,4(a5)
    4e32:	c798                	sw	a4,8(a5)
    4e34:	000780a3          	sb	zero,1(a5)
    4e38:	8082                	ret

00004e3a <SelIPARPSend>:
    4e3a:	edcfb2ef          	jal	t0,516 <__riscv_save_0>
    4e3e:	2000a4b7          	lui	s1,0x2000a
    4e42:	38848413          	addi	s0,s1,904 # 2000a388 <WCHNetIf>
    4e46:	405c                	lw	a5,4(s0)
    4e48:	1141                	addi	sp,sp,-16
    4e4a:	006c                	addi	a1,sp,12
    4e4c:	38848513          	addi	a0,s1,904
    4e50:	c63e                	sw	a5,12(sp)
    4e52:	00042223          	sw	zero,4(s0)
    4e56:	4ce010ef          	jal	ra,6324 <etharp_request>
    4e5a:	47b2                	lw	a5,12(sp)
    4e5c:	006c                	addi	a1,sp,12
    4e5e:	38848513          	addi	a0,s1,904
    4e62:	c05c                	sw	a5,4(s0)
    4e64:	445c                	lw	a5,12(s0)
    4e66:	c63e                	sw	a5,12(sp)
    4e68:	4bc010ef          	jal	ra,6324 <etharp_request>
    4e6c:	0141                	addi	sp,sp,16
    4e6e:	eccfb06f          	j	53a <__riscv_restore_0>

00004e72 <IPCheckTmr>:
    4e72:	2000a7b7          	lui	a5,0x2000a
    4e76:	29478793          	addi	a5,a5,660 # 2000a294 <SelARP>
    4e7a:	2398                	lbu	a4,0(a5)
    4e7c:	e319                	bnez	a4,4e82 <IPCheckTmr+0x10>
    4e7e:	c788                	sw	a0,8(a5)
    4e80:	8082                	ret
    4e82:	4798                	lw	a4,8(a5)
    4e84:	3e700693          	li	a3,999
    4e88:	40e50733          	sub	a4,a0,a4
    4e8c:	02e6f363          	bgeu	a3,a4,4eb2 <IPCheckTmr+0x40>
    4e90:	e86fb2ef          	jal	t0,516 <__riscv_save_0>
    4e94:	23ba                	lhu	a4,2(a5)
    4e96:	c788                	sw	a0,8(a5)
    4e98:	4691                	li	a3,4
    4e9a:	00e6f763          	bgeu	a3,a4,4ea8 <IPCheckTmr+0x36>
    4e9e:	4501                	li	a0,0
    4ea0:	f79ff0ef          	jal	ra,4e18 <IPCheckParaInit>
    4ea4:	e96fb06f          	j	53a <__riscv_restore_0>
    4ea8:	0705                	addi	a4,a4,1
    4eaa:	a3ba                	sh	a4,2(a5)
    4eac:	f8fff0ef          	jal	ra,4e3a <SelIPARPSend>
    4eb0:	bfd5                	j	4ea4 <IPCheckTmr+0x32>
    4eb2:	8082                	ret

00004eb4 <IPConflictHandle>:
    4eb4:	e62fb2ef          	jal	t0,516 <__riscv_save_0>
    4eb8:	842a                	mv	s0,a0
    4eba:	4501                	li	a0,0
    4ebc:	f5dff0ef          	jal	ra,4e18 <IPCheckParaInit>
    4ec0:	2000a7b7          	lui	a5,0x2000a
    4ec4:	29478793          	addi	a5,a5,660 # 2000a294 <SelARP>
    4ec8:	c811                	beqz	s0,4edc <IPConflictHandle+0x28>
    4eca:	4705                	li	a4,1
    4ecc:	b398                	sb	a4,1(a5)
    4ece:	2000a7b7          	lui	a5,0x2000a
    4ed2:	4709                	li	a4,2
    4ed4:	34e7a223          	sw	a4,836(a5) # 2000a344 <NetInf+0x2c>
    4ed8:	e62fb06f          	j	53a <__riscv_restore_0>
    4edc:	000780a3          	sb	zero,1(a5)
    4ee0:	bfe5                	j	4ed8 <IPConflictHandle+0x24>

00004ee2 <NET_TCPError>:
    4ee2:	8082                	ret

00004ee4 <LwipTCPSendCallBack>:
    4ee4:	03852803          	lw	a6,56(a0)
    4ee8:	02080b63          	beqz	a6,4f1e <LwipTCPSendCallBack+0x3a>
    4eec:	e2afb2ef          	jal	t0,516 <__riscv_save_0>
    4ef0:	5dfc                	lw	a5,124(a1)
    4ef2:	4701                	li	a4,0
    4ef4:	c791                	beqz	a5,4f00 <LwipTCPSendCallBack+0x1c>
    4ef6:	0705                	addi	a4,a4,1
    4ef8:	0742                	slli	a4,a4,0x10
    4efa:	8341                	srli	a4,a4,0x10
    4efc:	439c                	lw	a5,0(a5)
    4efe:	bfdd                	j	4ef4 <LwipTCPSendCallBack+0x10>
    4f00:	0805a783          	lw	a5,128(a1) # 4080 <xTaskResumeAll+0x9e>
    4f04:	c791                	beqz	a5,4f10 <LwipTCPSendCallBack+0x2c>
    4f06:	0705                	addi	a4,a4,1
    4f08:	0742                	slli	a4,a4,0x10
    4f0a:	8341                	srli	a4,a4,0x10
    4f0c:	439c                	lw	a5,0(a5)
    4f0e:	bfdd                	j	4f04 <LwipTCPSendCallBack+0x20>
    4f10:	4681                	li	a3,0
    4f12:	4601                	li	a2,0
    4f14:	4581                	li	a1,0
    4f16:	9802                	jalr	a6
    4f18:	4501                	li	a0,0
    4f1a:	e20fb06f          	j	53a <__riscv_restore_0>
    4f1e:	4501                	li	a0,0
    4f20:	8082                	ret

00004f22 <LwipTCPPollCallBack>:
    4f22:	4501                	li	a0,0
    4f24:	8082                	ret

00004f26 <SocketIPRAWReceive>:
    4f26:	dc8fb2ef          	jal	t0,4ee <__riscv_save_10>
    4f2a:	425c                	lw	a5,4(a2)
    4f2c:	00852a03          	lw	s4,8(a0)
    4f30:	00c52903          	lw	s2,12(a0)
    4f34:	4900                	lw	s0,16(a0)
    4f36:	84aa                	mv	s1,a0
    4f38:	2388                	lbu	a0,0(a5)
    4f3a:	339c                	lbu	a5,1(a5)
    4f3c:	89b2                	mv	s3,a2
    4f3e:	07a2                	slli	a5,a5,0x8
    4f40:	8d5d                	or	a0,a0,a5
    4f42:	0f7010ef          	jal	ra,6838 <ntohs>
    4f46:	00655593          	srli	a1,a0,0x6
    4f4a:	03c5f593          	andi	a1,a1,60
    4f4e:	40b005b3          	neg	a1,a1
    4f52:	854e                	mv	a0,s3
    4f54:	445020ef          	jal	ra,7b98 <pbuf_header>
    4f58:	e549                	bnez	a0,4fe2 <SocketIPRAWReceive+0xbc>
    4f5a:	44dc                	lw	a5,12(s1)
    4f5c:	4c98                	lw	a4,24(s1)
    4f5e:	0089db03          	lhu	s6,8(s3)
    4f62:	8f99                	sub	a5,a5,a4
    4f64:	0167f863          	bgeu	a5,s6,4f74 <SocketIPRAWReceive+0x4e>
    4f68:	854e                	mv	a0,s3
    4f6a:	49d020ef          	jal	ra,7c06 <pbuf_free>
    4f6e:	4505                	li	a0,1
    4f70:	db6fb06f          	j	526 <__riscv_restore_10>
    4f74:	9a4a                	add	s4,s4,s2
    4f76:	894e                	mv	s2,s3
    4f78:	00a95603          	lhu	a2,10(s2)
    4f7c:	408a0ab3          	sub	s5,s4,s0
    4f80:	00492b83          	lw	s7,4(s2)
    4f84:	04caf463          	bgeu	s5,a2,4fcc <SocketIPRAWReceive+0xa6>
    4f88:	8656                	mv	a2,s5
    4f8a:	85de                	mv	a1,s7
    4f8c:	8522                	mv	a0,s0
    4f8e:	648060ef          	jal	ra,b5d6 <memcpy>
    4f92:	00a95783          	lhu	a5,10(s2)
    4f96:	4498                	lw	a4,8(s1)
    4f98:	41440433          	sub	s0,s0,s4
    4f9c:	943e                	add	s0,s0,a5
    4f9e:	8622                	mv	a2,s0
    4fa0:	015b85b3          	add	a1,s7,s5
    4fa4:	853a                	mv	a0,a4
    4fa6:	630060ef          	jal	ra,b5d6 <memcpy>
    4faa:	942a                	add	s0,s0,a0
    4fac:	00092903          	lw	s2,0(s2)
    4fb0:	fc0914e3          	bnez	s2,4f78 <SocketIPRAWReceive+0x52>
    4fb4:	854e                	mv	a0,s3
    4fb6:	451020ef          	jal	ra,7c06 <pbuf_free>
    4fba:	4c9c                	lw	a5,24(s1)
    4fbc:	c880                	sw	s0,16(s1)
    4fbe:	97da                	add	a5,a5,s6
    4fc0:	cc9c                	sw	a5,24(s1)
    4fc2:	409c                	lw	a5,0(s1)
    4fc4:	0047e793          	ori	a5,a5,4
    4fc8:	c09c                	sw	a5,0(s1)
    4fca:	b755                	j	4f6e <SocketIPRAWReceive+0x48>
    4fcc:	8522                	mv	a0,s0
    4fce:	85de                	mv	a1,s7
    4fd0:	606060ef          	jal	ra,b5d6 <memcpy>
    4fd4:	00a95783          	lhu	a5,10(s2)
    4fd8:	943e                	add	s0,s0,a5
    4fda:	fd5799e3          	bne	a5,s5,4fac <SocketIPRAWReceive+0x86>
    4fde:	4480                	lw	s0,8(s1)
    4fe0:	b7f1                	j	4fac <SocketIPRAWReceive+0x86>
    4fe2:	4501                	li	a0,0
    4fe4:	b771                	j	4f70 <SocketIPRAWReceive+0x4a>

00004fe6 <SocketUdpReceive>:
    4fe6:	ca71                	beqz	a2,50ba <SocketUdpReceive+0xd4>
    4fe8:	d06fb2ef          	jal	t0,4ee <__riscv_save_10>
    4fec:	00c52b83          	lw	s7,12(a0)
    4ff0:	4d1c                	lw	a5,24(a0)
    4ff2:	00865b03          	lhu	s6,8(a2)
    4ff6:	8aba                	mv	s5,a4
    4ff8:	40fb87b3          	sub	a5,s7,a5
    4ffc:	8a36                	mv	s4,a3
    4ffe:	8932                	mv	s2,a2
    5000:	842a                	mv	s0,a0
    5002:	0167f763          	bgeu	a5,s6,5010 <SocketUdpReceive+0x2a>
    5006:	8532                	mv	a0,a2
    5008:	3ff020ef          	jal	ra,7c06 <pbuf_free>
    500c:	d1afb06f          	j	526 <__riscv_restore_10>
    5010:	451c                	lw	a5,8(a0)
    5012:	4904                	lw	s1,16(a0)
    5014:	89b2                	mv	s3,a2
    5016:	9bbe                	add	s7,s7,a5
    5018:	00a9d603          	lhu	a2,10(s3)
    501c:	409b8c33          	sub	s8,s7,s1
    5020:	0049ac83          	lw	s9,4(s3)
    5024:	06cc7763          	bgeu	s8,a2,5092 <SocketUdpReceive+0xac>
    5028:	8662                	mv	a2,s8
    502a:	85e6                	mv	a1,s9
    502c:	8526                	mv	a0,s1
    502e:	5a8060ef          	jal	ra,b5d6 <memcpy>
    5032:	00a9d783          	lhu	a5,10(s3)
    5036:	4418                	lw	a4,8(s0)
    5038:	417484b3          	sub	s1,s1,s7
    503c:	94be                	add	s1,s1,a5
    503e:	8626                	mv	a2,s1
    5040:	018c85b3          	add	a1,s9,s8
    5044:	853a                	mv	a0,a4
    5046:	590060ef          	jal	ra,b5d6 <memcpy>
    504a:	94aa                	add	s1,s1,a0
    504c:	0009a983          	lw	s3,0(s3)
    5050:	fc0994e3          	bnez	s3,5018 <SocketUdpReceive+0x32>
    5054:	854a                	mv	a0,s2
    5056:	3b1020ef          	jal	ra,7c06 <pbuf_free>
    505a:	03842803          	lw	a6,56(s0)
    505e:	04080563          	beqz	a6,50a8 <SocketUdpReceive+0xc2>
    5062:	001a4583          	lbu	a1,1(s4)
    5066:	000a4783          	lbu	a5,0(s4)
    506a:	4814                	lw	a3,16(s0)
    506c:	05a2                	slli	a1,a1,0x8
    506e:	8ddd                	or	a1,a1,a5
    5070:	002a4783          	lbu	a5,2(s4)
    5074:	875a                	mv	a4,s6
    5076:	8656                	mv	a2,s5
    5078:	07c2                	slli	a5,a5,0x10
    507a:	8fcd                	or	a5,a5,a1
    507c:	003a4583          	lbu	a1,3(s4)
    5080:	8522                	mv	a0,s0
    5082:	05e2                	slli	a1,a1,0x18
    5084:	8ddd                	or	a1,a1,a5
    5086:	9802                	jalr	a6
    5088:	441c                	lw	a5,8(s0)
    508a:	00042c23          	sw	zero,24(s0)
    508e:	c81c                	sw	a5,16(s0)
    5090:	bfb5                	j	500c <SocketUdpReceive+0x26>
    5092:	8526                	mv	a0,s1
    5094:	85e6                	mv	a1,s9
    5096:	540060ef          	jal	ra,b5d6 <memcpy>
    509a:	00a9d783          	lhu	a5,10(s3)
    509e:	94be                	add	s1,s1,a5
    50a0:	fb8796e3          	bne	a5,s8,504c <SocketUdpReceive+0x66>
    50a4:	4404                	lw	s1,8(s0)
    50a6:	b75d                	j	504c <SocketUdpReceive+0x66>
    50a8:	4c18                	lw	a4,24(s0)
    50aa:	401c                	lw	a5,0(s0)
    50ac:	c804                	sw	s1,16(s0)
    50ae:	975a                	add	a4,a4,s6
    50b0:	0047e793          	ori	a5,a5,4
    50b4:	cc18                	sw	a4,24(s0)
    50b6:	c01c                	sw	a5,0(s0)
    50b8:	bf91                	j	500c <SocketUdpReceive+0x26>
    50ba:	8082                	ret

000050bc <WCHSocketTCPReceive>:
    50bc:	5118                	lw	a4,32(a0)
    50be:	4795                	li	a5,5
    50c0:	0cf71a63          	bne	a4,a5,5194 <WCHSocketTCPReceive+0xd8>
    50c4:	c2afb2ef          	jal	t0,4ee <__riscv_save_10>
    50c8:	491c                	lw	a5,16(a0)
    50ca:	842a                	mv	s0,a0
    50cc:	557d                	li	a0,-1
    50ce:	cfd9                	beqz	a5,516c <WCHSocketTCPReceive+0xb0>
    50d0:	8a32                	mv	s4,a2
    50d2:	84ae                	mv	s1,a1
    50d4:	ca55                	beqz	a2,5188 <WCHSocketTCPReceive+0xcc>
    50d6:	00842a83          	lw	s5,8(s0)
    50da:	4458                	lw	a4,12(s0)
    50dc:	00865b83          	lhu	s7,8(a2)
    50e0:	8932                	mv	s2,a2
    50e2:	9aba                	add	s5,s5,a4
    50e4:	0ac2                	slli	s5,s5,0x10
    50e6:	010ada93          	srli	s5,s5,0x10
    50ea:	01079993          	slli	s3,a5,0x10
    50ee:	0109d993          	srli	s3,s3,0x10
    50f2:	413a8b33          	sub	s6,s5,s3
    50f6:	00a95603          	lhu	a2,10(s2)
    50fa:	0b42                	slli	s6,s6,0x10
    50fc:	010b5b13          	srli	s6,s6,0x10
    5100:	00492c03          	lw	s8,4(s2)
    5104:	06cb7663          	bgeu	s6,a2,5170 <WCHSocketTCPReceive+0xb4>
    5108:	865a                	mv	a2,s6
    510a:	85e2                	mv	a1,s8
    510c:	853e                	mv	a0,a5
    510e:	4c8060ef          	jal	ra,b5d6 <memcpy>
    5112:	00a95703          	lhu	a4,10(s2)
    5116:	441c                	lw	a5,8(s0)
    5118:	016c05b3          	add	a1,s8,s6
    511c:	41570733          	sub	a4,a4,s5
    5120:	99ba                	add	s3,s3,a4
    5122:	09c2                	slli	s3,s3,0x10
    5124:	0109d993          	srli	s3,s3,0x10
    5128:	853e                	mv	a0,a5
    512a:	864e                	mv	a2,s3
    512c:	4aa060ef          	jal	ra,b5d6 <memcpy>
    5130:	013507b3          	add	a5,a0,s3
    5134:	00092903          	lw	s2,0(s2)
    5138:	fa0919e3          	bnez	s2,50ea <WCHSocketTCPReceive+0x2e>
    513c:	4c18                	lw	a4,24(s0)
    513e:	c81c                	sw	a5,16(s0)
    5140:	8552                	mv	a0,s4
    5142:	975e                	add	a4,a4,s7
    5144:	cc18                	sw	a4,24(s0)
    5146:	4018                	lw	a4,0(s0)
    5148:	00476713          	ori	a4,a4,4
    514c:	c018                	sw	a4,0(s0)
    514e:	2b9020ef          	jal	ra,7c06 <pbuf_free>
    5152:	38fe                	lhu	a5,54(s1)
    5154:	4c18                	lw	a4,24(s0)
    5156:	8526                	mv	a0,s1
    5158:	41778bb3          	sub	s7,a5,s7
    515c:	445c                	lw	a5,12(s0)
    515e:	03749b23          	sh	s7,54(s1)
    5162:	8f99                	sub	a5,a5,a4
    5164:	b4de                	sh	a5,44(s1)
    5166:	116030ef          	jal	ra,827c <tcp_update_rcv_ann_wnd>
    516a:	4501                	li	a0,0
    516c:	bbafb06f          	j	526 <__riscv_restore_10>
    5170:	853e                	mv	a0,a5
    5172:	85e2                	mv	a1,s8
    5174:	462060ef          	jal	ra,b5d6 <memcpy>
    5178:	00a95703          	lhu	a4,10(s2)
    517c:	00e507b3          	add	a5,a0,a4
    5180:	fb671ae3          	bne	a4,s6,5134 <WCHSocketTCPReceive+0x78>
    5184:	441c                	lw	a5,8(s0)
    5186:	b77d                	j	5134 <WCHSocketTCPReceive+0x78>
    5188:	4501                	li	a0,0
    518a:	f2ed                	bnez	a3,516c <WCHSocketTCPReceive+0xb0>
    518c:	852e                	mv	a0,a1
    518e:	580030ef          	jal	ra,870e <tcp_close>
    5192:	bfe9                	j	516c <WCHSocketTCPReceive+0xb0>
    5194:	5565                	li	a0,-7
    5196:	8082                	ret

00005198 <WCHTCPServerAccept>:
    5198:	b64fb2ef          	jal	t0,4fc <__riscv_save_4>
    519c:	2000a9b7          	lui	s3,0x2000a
    51a0:	9a41c603          	lbu	a2,-1628(gp) # 200002a4 <SockNumber>
    51a4:	f6498713          	addi	a4,s3,-156 # 20009f64 <SocketInf>
    51a8:	4781                	li	a5,0
    51aa:	f6498993          	addi	s3,s3,-156
    51ae:	0ff7f693          	andi	a3,a5,255
    51b2:	00c6e563          	bltu	a3,a2,51bc <WCHTCPServerAccept+0x24>
    51b6:	556d                	li	a0,-5
    51b8:	b78fb06f          	j	530 <__riscv_restore_4>
    51bc:	02072803          	lw	a6,32(a4)
    51c0:	00178693          	addi	a3,a5,1
    51c4:	03c70713          	addi	a4,a4,60
    51c8:	00080463          	beqz	a6,51d0 <WCHTCPServerAccept+0x38>
    51cc:	87b6                	mv	a5,a3
    51ce:	b7c5                	j	51ae <WCHTCPServerAccept+0x16>
    51d0:	03c00913          	li	s2,60
    51d4:	03278933          	mul	s2,a5,s2
    51d8:	842e                	mv	s0,a1
    51da:	8a2a                	mv	s4,a0
    51dc:	03c00613          	li	a2,60
    51e0:	4581                	li	a1,0
    51e2:	012984b3          	add	s1,s3,s2
    51e6:	8526                	mv	a0,s1
    51e8:	b5efb0ef          	jal	ra,546 <memset>
    51ec:	02c90513          	addi	a0,s2,44
    51f0:	4611                	li	a2,4
    51f2:	00440593          	addi	a1,s0,4
    51f6:	954e                	add	a0,a0,s3
    51f8:	3de060ef          	jal	ra,b5d6 <memcpy>
    51fc:	305e                	lhu	a5,36(s0)
    51fe:	d880                	sw	s0,48(s1)
    5200:	85a6                	mv	a1,s1
    5202:	d0dc                	sw	a5,36(s1)
    5204:	028a2783          	lw	a5,40(s4)
    5208:	8522                	mv	a0,s0
    520a:	d49c                	sw	a5,40(s1)
    520c:	164030ef          	jal	ra,8370 <tcp_arg>
    5210:	000055b7          	lui	a1,0x5
    5214:	ee258593          	addi	a1,a1,-286 # 4ee2 <NET_TCPError>
    5218:	8522                	mv	a0,s0
    521a:	166030ef          	jal	ra,8380 <tcp_err>
    521e:	000055b7          	lui	a1,0x5
    5222:	0bc58593          	addi	a1,a1,188 # 50bc <WCHSocketTCPReceive>
    5226:	8522                	mv	a0,s0
    5228:	14c030ef          	jal	ra,8374 <tcp_recv>
    522c:	000055b7          	lui	a1,0x5
    5230:	ee458593          	addi	a1,a1,-284 # 4ee4 <LwipTCPSendCallBack>
    5234:	8522                	mv	a0,s0
    5236:	144030ef          	jal	ra,837a <tcp_sent>
    523a:	000055b7          	lui	a1,0x5
    523e:	8522                	mv	a0,s0
    5240:	4605                	li	a2,1
    5242:	f2258593          	addi	a1,a1,-222 # 4f22 <LwipTCPPollCallBack>
    5246:	144030ef          	jal	ra,838a <tcp_poll>
    524a:	478d                	li	a5,3
    524c:	ccdc                	sw	a5,28(s1)
    524e:	4795                	li	a5,5
    5250:	d09c                	sw	a5,32(s1)
    5252:	209c                	lbu	a5,0(s1)
    5254:	4501                	li	a0,0
    5256:	0087e793          	ori	a5,a5,8
    525a:	c09c                	sw	a5,0(s1)
    525c:	bfb1                	j	51b8 <WCHTCPServerAccept+0x20>

0000525e <ErrorEncode>:
    525e:	c919                	beqz	a0,5274 <ErrorEncode+0x16>
    5260:	40a00533          	neg	a0,a0
    5264:	67b5                	lui	a5,0xd
    5266:	c2478793          	addi	a5,a5,-988 # cc24 <ErrTable>
    526a:	0ff57513          	andi	a0,a0,255
    526e:	953e                	add	a0,a0,a5
    5270:	2108                	lbu	a0,0(a0)
    5272:	8082                	ret
    5274:	4501                	li	a0,0
    5276:	8082                	ret

00005278 <WCHSocketInit>:
    5278:	a9efb2ef          	jal	t0,516 <__riscv_save_0>
    527c:	03c00793          	li	a5,60
    5280:	02f587b3          	mul	a5,a1,a5
    5284:	2000a437          	lui	s0,0x2000a
    5288:	f6440713          	addi	a4,s0,-156 # 20009f64 <SocketInf>
    528c:	892a                	mv	s2,a0
    528e:	84ae                	mv	s1,a1
    5290:	03c00613          	li	a2,60
    5294:	4581                	li	a1,0
    5296:	f6440413          	addi	s0,s0,-156
    529a:	97ba                	add	a5,a5,a4
    529c:	853e                	mv	a0,a5
    529e:	aa8fb0ef          	jal	ra,546 <memset>
    52a2:	00090763          	beqz	s2,52b0 <WCHSocketInit+0x38>
    52a6:	03c00613          	li	a2,60
    52aa:	85ca                	mv	a1,s2
    52ac:	32a060ef          	jal	ra,b5d6 <memcpy>
    52b0:	03c00593          	li	a1,60
    52b4:	02b485b3          	mul	a1,s1,a1
    52b8:	95a2                	add	a1,a1,s0
    52ba:	459c                	lw	a5,8(a1)
    52bc:	c99c                	sw	a5,16(a1)
    52be:	c9dc                	sw	a5,20(a1)
    52c0:	a7afb06f          	j	53a <__riscv_restore_0>

000052c4 <WCHNET_Init>:
    52c4:	a38fb2ef          	jal	t0,4fc <__riscv_save_4>
    52c8:	8a2a                	mv	s4,a0
    52ca:	2000a537          	lui	a0,0x2000a
    52ce:	1141                	addi	sp,sp,-16
    52d0:	89ae                	mv	s3,a1
    52d2:	84b2                	mv	s1,a2
    52d4:	4581                	li	a1,0
    52d6:	4661                	li	a2,24
    52d8:	2a050513          	addi	a0,a0,672 # 2000a2a0 <DHCPCtrl>
    52dc:	c636                	sw	a3,12(sp)
    52de:	a68fb0ef          	jal	ra,546 <memset>
    52e2:	46b2                	lw	a3,12(sp)
    52e4:	2000a437          	lui	s0,0x2000a
    52e8:	31840913          	addi	s2,s0,792 # 2000a318 <NetInf>
    52ec:	85b6                	mv	a1,a3
    52ee:	4619                	li	a2,6
    52f0:	00c90513          	addi	a0,s2,12
    52f4:	2e2060ef          	jal	ra,b5d6 <memcpy>
    52f8:	4611                	li	a2,4
    52fa:	85d2                	mv	a1,s4
    52fc:	31840513          	addi	a0,s0,792
    5300:	2d6060ef          	jal	ra,b5d6 <memcpy>
    5304:	4611                	li	a2,4
    5306:	85ce                	mv	a1,s3
    5308:	00490513          	addi	a0,s2,4
    530c:	2ca060ef          	jal	ra,b5d6 <memcpy>
    5310:	31840413          	addi	s0,s0,792
    5314:	e0a1                	bnez	s1,5354 <WCHNET_Init+0x90>
    5316:	010007b7          	lui	a5,0x1000
    531a:	17fd                	addi	a5,a5,-1
    531c:	c41c                	sw	a5,8(s0)
    531e:	4481                	li	s1,0
    5320:	9a41c783          	lbu	a5,-1628(gp) # 200002a4 <SockNumber>
    5324:	02f4cf63          	blt	s1,a5,5362 <WCHNET_Init+0x9e>
    5328:	48c010ef          	jal	ra,67b4 <wch_ethernetif_init>
    532c:	4785                	li	a5,1
    532e:	d05c                	sw	a5,36(s0)
    5330:	6715                	lui	a4,0x5
    5332:	2000a7b7          	lui	a5,0x2000a
    5336:	30c78793          	addi	a5,a5,780 # 2000a30c <KeepLiveCfg>
    533a:	e2070713          	addi	a4,a4,-480 # 4e20 <IPCheckParaInit+0x8>
    533e:	c398                	sw	a4,0(a5)
    5340:	6711                	lui	a4,0x4
    5342:	a9870713          	addi	a4,a4,-1384 # 3a98 <prvAddNewTaskToReadyList+0x86>
    5346:	c3d8                	sw	a4,4(a5)
    5348:	4725                	li	a4,9
    534a:	c798                	sw	a4,8(a5)
    534c:	4501                	li	a0,0
    534e:	0141                	addi	sp,sp,16
    5350:	9e0fb06f          	j	530 <__riscv_restore_4>
    5354:	4611                	li	a2,4
    5356:	85a6                	mv	a1,s1
    5358:	00840513          	addi	a0,s0,8
    535c:	27a060ef          	jal	ra,b5d6 <memcpy>
    5360:	bf7d                	j	531e <WCHNET_Init+0x5a>
    5362:	0ff4f593          	andi	a1,s1,255
    5366:	4501                	li	a0,0
    5368:	f11ff0ef          	jal	ra,5278 <WCHSocketInit>
    536c:	0485                	addi	s1,s1,1
    536e:	bf4d                	j	5320 <WCHNET_Init+0x5c>

00005370 <WCHNET_ConfigKeepLive>:
    5370:	4118                	lw	a4,0(a0)
    5372:	2000a7b7          	lui	a5,0x2000a
    5376:	30c78793          	addi	a5,a5,780 # 2000a30c <KeepLiveCfg>
    537a:	c398                	sw	a4,0(a5)
    537c:	4158                	lw	a4,4(a0)
    537e:	c3d8                	sw	a4,4(a5)
    5380:	4518                	lw	a4,8(a0)
    5382:	c798                	sw	a4,8(a5)
    5384:	8082                	ret

00005386 <WCHNET_ConfigLIB>:
    5386:	5518                	lw	a4,40(a0)
    5388:	123457b7          	lui	a5,0x12345
    538c:	67878793          	addi	a5,a5,1656 # 12345678 <_data_lma+0x12338958>
    5390:	12f71063          	bne	a4,a5,54b0 <WCHNET_ConfigLIB+0x12a>
    5394:	968fb2ef          	jal	t0,4fc <__riscv_save_4>
    5398:	511c                	lw	a5,32(a0)
    539a:	842a                	mv	s0,a0
    539c:	4525                	li	a0,9
    539e:	10078163          	beqz	a5,54a0 <WCHNET_ConfigLIB+0x11a>
    53a2:	2000a937          	lui	s2,0x2000a
    53a6:	04400613          	li	a2,68
    53aa:	4581                	li	a1,0
    53ac:	31890513          	addi	a0,s2,792 # 2000a318 <NetInf>
    53b0:	996fb0ef          	jal	ra,546 <memset>
    53b4:	2000a4b7          	lui	s1,0x2000a
    53b8:	02c00613          	li	a2,44
    53bc:	4581                	li	a1,0
    53be:	35c48513          	addi	a0,s1,860 # 2000a35c <WCHCfg>
    53c2:	984fb0ef          	jal	ra,546 <memset>
    53c6:	02c00613          	li	a2,44
    53ca:	85a2                	mv	a1,s0
    53cc:	35c48513          	addi	a0,s1,860
    53d0:	206060ef          	jal	ra,b5d6 <memcpy>
    53d4:	35c48993          	addi	s3,s1,860
    53d8:	0149a703          	lw	a4,20(s3)
    53dc:	864a                	mv	a2,s2
    53de:	35c48793          	addi	a5,s1,860
    53e2:	eb25                	bnez	a4,5452 <WCHNET_ConfigLIB+0xcc>
    53e4:	66b5                	lui	a3,0xd
    53e6:	af86d703          	lhu	a4,-1288(a3) # caf8 <MemNum>
    53ea:	af868693          	addi	a3,a3,-1288
    53ee:	22ae                	lhu	a1,2(a3)
    53f0:	972e                	add	a4,a4,a1
    53f2:	22ce                	lhu	a1,4(a3)
    53f4:	22f6                	lhu	a3,6(a3)
    53f6:	972e                	add	a4,a4,a1
    53f8:	9736                	add	a4,a4,a3
    53fa:	01271693          	slli	a3,a4,0x12
    53fe:	0a06d363          	bgez	a3,54a4 <WCHNET_ConfigLIB+0x11e>
    5402:	cbd8                	sw	a4,20(a5)
    5404:	4bd8                	lw	a4,20(a5)
    5406:	00e75693          	srli	a3,a4,0xe
    540a:	8afd                	andi	a3,a3,31
    540c:	ea89                	bnez	a3,541e <WCHNET_ConfigLIB+0x98>
    540e:	fff846b7          	lui	a3,0xfff84
    5412:	16fd                	addi	a3,a3,-1
    5414:	8f75                	and	a4,a4,a3
    5416:	000506b7          	lui	a3,0x50
    541a:	8f55                	or	a4,a4,a3
    541c:	cbd8                	sw	a4,20(a5)
    541e:	4bd8                	lw	a4,20(a5)
    5420:	01375693          	srli	a3,a4,0x13
    5424:	8afd                	andi	a3,a3,31
    5426:	ea89                	bnez	a3,5438 <WCHNET_ConfigLIB+0xb2>
    5428:	fff846b7          	lui	a3,0xfff84
    542c:	16fd                	addi	a3,a3,-1
    542e:	8f75                	and	a4,a4,a3
    5430:	005006b7          	lui	a3,0x500
    5434:	8f55                	or	a4,a4,a3
    5436:	cbd8                	sw	a4,20(a5)
    5438:	4bd8                	lw	a4,20(a5)
    543a:	00671693          	slli	a3,a4,0x6
    543e:	0006ca63          	bltz	a3,5452 <WCHNET_ConfigLIB+0xcc>
    5442:	fe0006b7          	lui	a3,0xfe000
    5446:	16fd                	addi	a3,a3,-1
    5448:	8f75                	and	a4,a4,a3
    544a:	140006b7          	lui	a3,0x14000
    544e:	8f55                	or	a4,a4,a3
    5450:	cbd8                	sw	a4,20(a5)
    5452:	4bd8                	lw	a4,20(a5)
    5454:	01b75693          	srli	a3,a4,0x1b
    5458:	e689                	bnez	a3,5462 <WCHNET_ConfigLIB+0xdc>
    545a:	400006b7          	lui	a3,0x40000
    545e:	8f55                	or	a4,a4,a3
    5460:	cbd8                	sw	a4,20(a5)
    5462:	53d8                	lw	a4,36(a5)
    5464:	e711                	bnez	a4,5470 <WCHNET_ConfigLIB+0xea>
    5466:	00005737          	lui	a4,0x5
    546a:	cde70713          	addi	a4,a4,-802 # 4cde <WCHNET_Rx>
    546e:	d3d8                	sw	a4,36(a5)
    5470:	4bd4                	lw	a3,20(a5)
    5472:	4501                	li	a0,0
    5474:	00e6d713          	srli	a4,a3,0xe
    5478:	8b7d                	andi	a4,a4,31
    547a:	9ad18223          	sb	a3,-1628(gp) # 200002a4 <SockNumber>
    547e:	31860793          	addi	a5,a2,792
    5482:	cf98                	sw	a4,24(a5)
    5484:	0136d713          	srli	a4,a3,0x13
    5488:	8b7d                	andi	a4,a4,31
    548a:	03200613          	li	a2,50
    548e:	02c70733          	mul	a4,a4,a2
    5492:	cfd8                	sw	a4,28(a5)
    5494:	00669713          	slli	a4,a3,0x6
    5498:	00075463          	bgez	a4,54a0 <WCHNET_ConfigLIB+0x11a>
    549c:	4709                	li	a4,2
    549e:	c3b8                	sw	a4,64(a5)
    54a0:	890fb06f          	j	530 <__riscv_restore_4>
    54a4:	76f9                	lui	a3,0xffffe
    54a6:	16fd                	addi	a3,a3,-1
    54a8:	8f75                	and	a4,a4,a3
    54aa:	6689                	lui	a3,0x2
    54ac:	8f55                	or	a4,a4,a3
    54ae:	bf91                	j	5402 <WCHNET_ConfigLIB+0x7c>
    54b0:	0ff00513          	li	a0,255
    54b4:	8082                	ret

000054b6 <WCHFindCorrectTCBPcb>:
    54b6:	9a41c603          	lbu	a2,-1628(gp) # 200002a4 <SockNumber>
    54ba:	2000a7b7          	lui	a5,0x2000a
    54be:	f6478693          	addi	a3,a5,-156 # 20009f64 <SocketInf>
    54c2:	4701                	li	a4,0
    54c4:	f6478793          	addi	a5,a5,-156
    54c8:	00e61763          	bne	a2,a4,54d6 <WCHFindCorrectTCBPcb+0x20>
    54cc:	4781                	li	a5,0
    54ce:	02f71363          	bne	a4,a5,54f4 <WCHFindCorrectTCBPcb+0x3e>
    54d2:	4501                	li	a0,0
    54d4:	8082                	ret
    54d6:	0307a803          	lw	a6,48(a5)
    54da:	00a81763          	bne	a6,a0,54e8 <WCHFindCorrectTCBPcb+0x32>
    54de:	c509                	beqz	a0,54e8 <WCHFindCorrectTCBPcb+0x32>
    54e0:	4505                	li	a0,1
    54e2:	d9ed                	beqz	a1,54d4 <WCHFindCorrectTCBPcb+0x1e>
    54e4:	a198                	sb	a4,0(a1)
    54e6:	8082                	ret
    54e8:	0705                	addi	a4,a4,1
    54ea:	0ff77713          	andi	a4,a4,255
    54ee:	03c78793          	addi	a5,a5,60
    54f2:	bfd9                	j	54c8 <WCHFindCorrectTCBPcb+0x12>
    54f4:	5ad0                	lw	a2,52(a3)
    54f6:	00a61963          	bne	a2,a0,5508 <WCHFindCorrectTCBPcb+0x52>
    54fa:	c519                	beqz	a0,5508 <WCHFindCorrectTCBPcb+0x52>
    54fc:	4505                	li	a0,1
    54fe:	d9f9                	beqz	a1,54d4 <WCHFindCorrectTCBPcb+0x1e>
    5500:	f807e793          	ori	a5,a5,-128
    5504:	a19c                	sb	a5,0(a1)
    5506:	8082                	ret
    5508:	0785                	addi	a5,a5,1
    550a:	0ff7f793          	andi	a5,a5,255
    550e:	03c68693          	addi	a3,a3,60 # 203c <USART_GetFlagStatus+0x2>
    5512:	bf75                	j	54ce <WCHFindCorrectTCBPcb+0x18>

00005514 <WCHNET_SocketCreat>:
    5514:	fe9fa2ef          	jal	t0,4fc <__riscv_save_4>
    5518:	2000a937          	lui	s2,0x2000a
    551c:	00050023          	sb	zero,0(a0)
    5520:	9a41c703          	lbu	a4,-1628(gp) # 200002a4 <SockNumber>
    5524:	1141                	addi	sp,sp,-16
    5526:	f6490793          	addi	a5,s2,-156 # 20009f64 <SocketInf>
    552a:	4481                	li	s1,0
    552c:	f6490913          	addi	s2,s2,-156
    5530:	00971763          	bne	a4,s1,553e <WCHNET_SocketCreat+0x2a>
    5534:	02000513          	li	a0,32
    5538:	0141                	addi	sp,sp,16
    553a:	ff7fa06f          	j	530 <__riscv_restore_4>
    553e:	03c78793          	addi	a5,a5,60
    5542:	fe47a683          	lw	a3,-28(a5)
    5546:	18068163          	beqz	a3,56c8 <WCHNET_SocketCreat+0x1b4>
    554a:	0485                	addi	s1,s1,1
    554c:	0ff4f493          	andi	s1,s1,255
    5550:	b7c5                	j	5530 <WCHNET_SocketCreat+0x1c>
    5552:	2000a7b7          	lui	a5,0x2000a
    5556:	3187a783          	lw	a5,792(a5) # 2000a318 <NetInf>
    555a:	006c                	addi	a1,sp,12
    555c:	c63e                	sw	a5,12(sp)
    555e:	1df020ef          	jal	ra,7f3c <raw_bind>
    5562:	4611                	li	a2,4
    5564:	02c40593          	addi	a1,s0,44
    5568:	0068                	addi	a0,sp,12
    556a:	06c060ef          	jal	ra,b5d6 <memcpy>
    556e:	006c                	addi	a1,sp,12
    5570:	854e                	mv	a0,s3
    5572:	1e9020ef          	jal	ra,7f5a <raw_connect>
    5576:	03c00613          	li	a2,60
    557a:	02c48633          	mul	a2,s1,a2
    557e:	000055b7          	lui	a1,0x5
    5582:	f2658593          	addi	a1,a1,-218 # 4f26 <SocketIPRAWReceive>
    5586:	854e                	mv	a0,s3
    5588:	964a                	add	a2,a2,s2
    558a:	1ef020ef          	jal	ra,7f78 <raw_recv>
    558e:	4795                	li	a5,5
    5590:	2000a537          	lui	a0,0x2000a
    5594:	006c                	addi	a1,sp,12
    5596:	03342823          	sw	s3,48(s0)
    559a:	d01c                	sw	a5,32(s0)
    559c:	38850513          	addi	a0,a0,904 # 2000a388 <WCHNetIf>
    55a0:	585000ef          	jal	ra,6324 <etharp_request>
    55a4:	85a6                	mv	a1,s1
    55a6:	8522                	mv	a0,s0
    55a8:	cd1ff0ef          	jal	ra,5278 <WCHSocketInit>
    55ac:	4501                	li	a0,0
    55ae:	b769                	j	5538 <WCHNET_SocketCreat+0x24>
    55b0:	4709                	li	a4,2
    55b2:	0ae79063          	bne	a5,a4,5652 <WCHNET_SocketCreat+0x13e>
    55b6:	2e5050ef          	jal	ra,b09a <udp_new>
    55ba:	89aa                	mv	s3,a0
    55bc:	12050363          	beqz	a0,56e2 <WCHNET_SocketCreat+0x1ce>
    55c0:	02c40a93          	addi	s5,s0,44
    55c4:	4611                	li	a2,4
    55c6:	85d6                	mv	a1,s5
    55c8:	0068                	addi	a0,sp,12
    55ca:	00c060ef          	jal	ra,b5d6 <memcpy>
    55ce:	4a32                	lw	s4,12(sp)
    55d0:	f0000537          	lui	a0,0xf0000
    55d4:	296010ef          	jal	ra,686a <ntohl>
    55d8:	00aa7a33          	and	s4,s4,a0
    55dc:	e0000537          	lui	a0,0xe0000
    55e0:	28a010ef          	jal	ra,686a <ntohl>
    55e4:	04aa0063          	beq	s4,a0,5624 <WCHNET_SocketCreat+0x110>
    55e8:	2000a5b7          	lui	a1,0x2000a
    55ec:	38858593          	addi	a1,a1,904 # 2000a388 <WCHNetIf>
    55f0:	0068                	addi	a0,sp,12
    55f2:	6fa010ef          	jal	ra,6cec <ip_addr_isbroadcast>
    55f6:	e51d                	bnez	a0,5624 <WCHNET_SocketCreat+0x110>
    55f8:	2000a7b7          	lui	a5,0x2000a
    55fc:	3187a783          	lw	a5,792(a5) # 2000a318 <NetInf>
    5600:	3412                	lhu	a2,40(s0)
    5602:	006c                	addi	a1,sp,12
    5604:	854e                	mv	a0,s3
    5606:	c63e                	sw	a5,12(sp)
    5608:	02f050ef          	jal	ra,ae36 <udp_bind>
    560c:	e11d                	bnez	a0,5632 <WCHNET_SocketCreat+0x11e>
    560e:	85d6                	mv	a1,s5
    5610:	4611                	li	a2,4
    5612:	0068                	addi	a0,sp,12
    5614:	7c3050ef          	jal	ra,b5d6 <memcpy>
    5618:	3052                	lhu	a2,36(s0)
    561a:	006c                	addi	a1,sp,12
    561c:	854e                	mv	a0,s3
    561e:	1c9050ef          	jal	ra,afe6 <udp_connect>
    5622:	a039                	j	5630 <WCHNET_SocketCreat+0x11c>
    5624:	3412                	lhu	a2,40(s0)
    5626:	86818593          	addi	a1,gp,-1944 # 20000168 <ip_addr_any>
    562a:	854e                	mv	a0,s3
    562c:	00b050ef          	jal	ra,ae36 <udp_bind>
    5630:	c501                	beqz	a0,5638 <WCHNET_SocketCreat+0x124>
    5632:	c2dff0ef          	jal	ra,525e <ErrorEncode>
    5636:	b709                	j	5538 <WCHNET_SocketCreat+0x24>
    5638:	03c00613          	li	a2,60
    563c:	02c48633          	mul	a2,s1,a2
    5640:	000055b7          	lui	a1,0x5
    5644:	fe658593          	addi	a1,a1,-26 # 4fe6 <SocketUdpReceive>
    5648:	854e                	mv	a0,s3
    564a:	964a                	add	a2,a2,s2
    564c:	219050ef          	jal	ra,b064 <udp_recv>
    5650:	bf3d                	j	558e <WCHNET_SocketCreat+0x7a>
    5652:	470d                	li	a4,3
    5654:	02100513          	li	a0,33
    5658:	eee790e3          	bne	a5,a4,5538 <WCHNET_SocketCreat+0x24>
    565c:	472030ef          	jal	ra,8ace <tcp_new>
    5660:	445c                	lw	a5,12(s0)
    5662:	3412                	lhu	a2,40(s0)
    5664:	006c                	addi	a1,sp,12
    5666:	b95e                	sh	a5,52(a0)
    5668:	2000a7b7          	lui	a5,0x2000a
    566c:	3187a783          	lw	a5,792(a5) # 2000a318 <NetInf>
    5670:	89aa                	mv	s3,a0
    5672:	c63e                	sw	a5,12(sp)
    5674:	259020ef          	jal	ra,80cc <tcp_bind>
    5678:	8a2a                	mv	s4,a0
    567a:	c511                	beqz	a0,5686 <WCHNET_SocketCreat+0x172>
    567c:	854e                	mv	a0,s3
    567e:	090030ef          	jal	ra,870e <tcp_close>
    5682:	8552                	mv	a0,s4
    5684:	b77d                	j	5632 <WCHNET_SocketCreat+0x11e>
    5686:	03c00593          	li	a1,60
    568a:	02b485b3          	mul	a1,s1,a1
    568e:	854e                	mv	a0,s3
    5690:	95ca                	add	a1,a1,s2
    5692:	4df020ef          	jal	ra,8370 <tcp_arg>
    5696:	000055b7          	lui	a1,0x5
    569a:	854e                	mv	a0,s3
    569c:	ee258593          	addi	a1,a1,-286 # 4ee2 <NET_TCPError>
    56a0:	4e1020ef          	jal	ra,8380 <tcp_err>
    56a4:	4795                	li	a5,5
    56a6:	85a6                	mv	a1,s1
    56a8:	8522                	mv	a0,s0
    56aa:	03342823          	sw	s3,48(s0)
    56ae:	03342a23          	sw	s3,52(s0)
    56b2:	d01c                	sw	a5,32(s0)
    56b4:	bc5ff0ef          	jal	ra,5278 <WCHSocketInit>
    56b8:	2000a537          	lui	a0,0x2000a
    56bc:	006c                	addi	a1,sp,12
    56be:	38850513          	addi	a0,a0,904 # 2000a388 <WCHNetIf>
    56c2:	463000ef          	jal	ra,6324 <etharp_request>
    56c6:	b5dd                	j	55ac <WCHNET_SocketCreat+0x98>
    56c8:	a104                	sb	s1,0(a0)
    56ca:	4ddc                	lw	a5,28(a1)
    56cc:	c1c4                	sw	s1,4(a1)
    56ce:	842e                	mv	s0,a1
    56d0:	ee0790e3          	bnez	a5,55b0 <WCHNET_SocketCreat+0x9c>
    56d4:	02844503          	lbu	a0,40(s0)
    56d8:	165020ef          	jal	ra,803c <raw_new>
    56dc:	89aa                	mv	s3,a0
    56de:	e6051ae3          	bnez	a0,5552 <WCHNET_SocketCreat+0x3e>
    56e2:	4545                	li	a0,17
    56e4:	bd91                	j	5538 <WCHNET_SocketCreat+0x24>

000056e6 <tcp_recved_socket>:
    56e6:	e31fa2ef          	jal	t0,516 <__riscv_save_0>
    56ea:	b54e                	sh	a1,44(a0)
    56ec:	842a                	mv	s0,a0
    56ee:	38f020ef          	jal	ra,827c <tcp_update_rcv_ann_wnd>
    56f2:	cd09                	beqz	a0,570c <tcp_recved_socket+0x26>
    56f4:	02644783          	lbu	a5,38(s0)
    56f8:	8522                	mv	a0,s0
    56fa:	0027e793          	ori	a5,a5,2
    56fe:	02f40323          	sb	a5,38(s0)
    5702:	649040ef          	jal	ra,a54a <tcp_output>
    5706:	4505                	li	a0,1
    5708:	e33fa06f          	j	53a <__riscv_restore_0>
    570c:	2000a7b7          	lui	a5,0x2000a
    5710:	36c7a783          	lw	a5,876(a5) # 2000a36c <WCHCfg+0x10>
    5714:	83a1                	srli	a5,a5,0x8
    5716:	8b85                	andi	a5,a5,1
    5718:	d7fd                	beqz	a5,5706 <tcp_recved_socket+0x20>
    571a:	02644783          	lbu	a5,38(s0)
    571e:	8b85                	andi	a5,a5,1
    5720:	d3fd                	beqz	a5,5706 <tcp_recved_socket+0x20>
    5722:	4789                	li	a5,2
    5724:	02f403a3          	sb	a5,39(s0)
    5728:	4705                	li	a4,1
    572a:	9ae1a423          	sw	a4,-1624(gp) # 200002a8 <tcpSendAckFlag>
    572e:	bfe1                	j	5706 <tcp_recved_socket+0x20>

00005730 <WCHNET_ModifyRecvBuf>:
    5730:	9a41c783          	lbu	a5,-1628(gp) # 200002a4 <SockNumber>
    5734:	04f57663          	bgeu	a0,a5,5780 <WCHNET_ModifyRecvBuf+0x50>
    5738:	03c00713          	li	a4,60
    573c:	02e50533          	mul	a0,a0,a4
    5740:	2000a7b7          	lui	a5,0x2000a
    5744:	f6478793          	addi	a5,a5,-156 # 20009f64 <SocketInf>
    5748:	953e                	add	a0,a0,a5
    574a:	4d58                	lw	a4,28(a0)
    574c:	00052c23          	sw	zero,24(a0)
    5750:	c550                	sw	a2,12(a0)
    5752:	c50c                	sw	a1,8(a0)
    5754:	c90c                	sw	a1,16(a0)
    5756:	c94c                	sw	a1,20(a0)
    5758:	478d                	li	a5,3
    575a:	02f71363          	bne	a4,a5,5780 <WCHNET_ModifyRecvBuf+0x50>
    575e:	5908                	lw	a0,48(a0)
    5760:	c105                	beqz	a0,5780 <WCHNET_ModifyRecvBuf+0x50>
    5762:	395a                	lhu	a4,52(a0)
    5764:	00163793          	seqz	a5,a2
    5768:	00f71c63          	bne	a4,a5,5780 <WCHNET_ModifyRecvBuf+0x50>
    576c:	dabfa2ef          	jal	t0,516 <__riscv_save_0>
    5770:	01061593          	slli	a1,a2,0x10
    5774:	81c1                	srli	a1,a1,0x10
    5776:	b94e                	sh	a1,52(a0)
    5778:	f6fff0ef          	jal	ra,56e6 <tcp_recved_socket>
    577c:	dbffa06f          	j	53a <__riscv_restore_0>
    5780:	8082                	ret

00005782 <WCHNET_SocketRecv>:
    5782:	d7bfa2ef          	jal	t0,4fc <__riscv_save_4>
    5786:	4214                	lw	a3,0(a2)
    5788:	4469                	li	s0,26
    578a:	cecd                	beqz	a3,5844 <WCHNET_SocketRecv+0xc2>
    578c:	00062023          	sw	zero,0(a2)
    5790:	8a32                	mv	s4,a2
    5792:	03c00613          	li	a2,60
    5796:	02c50633          	mul	a2,a0,a2
    579a:	2000a4b7          	lui	s1,0x2000a
    579e:	f6448713          	addi	a4,s1,-156 # 20009f64 <SocketInf>
    57a2:	89aa                	mv	s3,a0
    57a4:	87ae                	mv	a5,a1
    57a6:	f6448493          	addi	s1,s1,-156
    57aa:	9732                	add	a4,a4,a2
    57ac:	00872b03          	lw	s6,8(a4)
    57b0:	4750                	lw	a2,12(a4)
    57b2:	01872903          	lw	s2,24(a4)
    57b6:	4b40                	lw	s0,20(a4)
    57b8:	9b32                	add	s6,s6,a2
    57ba:	0126f363          	bgeu	a3,s2,57c0 <WCHNET_SocketRecv+0x3e>
    57be:	8936                	mv	s2,a3
    57c0:	408b0ab3          	sub	s5,s6,s0
    57c4:	092af363          	bgeu	s5,s2,584a <WCHNET_SocketRecv+0xc8>
    57c8:	cb81                	beqz	a5,57d8 <WCHNET_SocketRecv+0x56>
    57ca:	853e                	mv	a0,a5
    57cc:	8656                	mv	a2,s5
    57ce:	85a2                	mv	a1,s0
    57d0:	607050ef          	jal	ra,b5d6 <memcpy>
    57d4:	015507b3          	add	a5,a0,s5
    57d8:	03c00713          	li	a4,60
    57dc:	02e98733          	mul	a4,s3,a4
    57e0:	944a                	add	s0,s0,s2
    57e2:	41640433          	sub	s0,s0,s6
    57e6:	9726                	add	a4,a4,s1
    57e8:	00872a83          	lw	s5,8(a4)
    57ec:	c791                	beqz	a5,57f8 <WCHNET_SocketRecv+0x76>
    57ee:	8622                	mv	a2,s0
    57f0:	85d6                	mv	a1,s5
    57f2:	853e                	mv	a0,a5
    57f4:	5e3050ef          	jal	ra,b5d6 <memcpy>
    57f8:	9456                	add	s0,s0,s5
    57fa:	03c00793          	li	a5,60
    57fe:	02f987b3          	mul	a5,s3,a5
    5802:	012a2023          	sw	s2,0(s4)
    5806:	97a6                	add	a5,a5,s1
    5808:	4f98                	lw	a4,24(a5)
    580a:	cbc0                	sw	s0,20(a5)
    580c:	41270933          	sub	s2,a4,s2
    5810:	0127ac23          	sw	s2,24(a5)
    5814:	00091863          	bnez	s2,5824 <WCHNET_SocketRecv+0xa2>
    5818:	4798                	lw	a4,8(a5)
    581a:	cbd8                	sw	a4,20(a5)
    581c:	cb98                	sw	a4,16(a5)
    581e:	4398                	lw	a4,0(a5)
    5820:	9b6d                	andi	a4,a4,-5
    5822:	c398                	sw	a4,0(a5)
    5824:	03c00793          	li	a5,60
    5828:	02f989b3          	mul	s3,s3,a5
    582c:	478d                	li	a5,3
    582e:	4401                	li	s0,0
    5830:	94ce                	add	s1,s1,s3
    5832:	4cd8                	lw	a4,28(s1)
    5834:	00f71863          	bne	a4,a5,5844 <WCHNET_SocketRecv+0xc2>
    5838:	00091663          	bnez	s2,5844 <WCHNET_SocketRecv+0xc2>
    583c:	24ce                	lhu	a1,12(s1)
    583e:	5888                	lw	a0,48(s1)
    5840:	ea7ff0ef          	jal	ra,56e6 <tcp_recved_socket>
    5844:	8522                	mv	a0,s0
    5846:	cebfa06f          	j	530 <__riscv_restore_4>
    584a:	c791                	beqz	a5,5856 <WCHNET_SocketRecv+0xd4>
    584c:	864a                	mv	a2,s2
    584e:	85a2                	mv	a1,s0
    5850:	853e                	mv	a0,a5
    5852:	585050ef          	jal	ra,b5d6 <memcpy>
    5856:	944a                	add	s0,s0,s2
    5858:	fb2a91e3          	bne	s5,s2,57fa <WCHNET_SocketRecv+0x78>
    585c:	03c00793          	li	a5,60
    5860:	02f987b3          	mul	a5,s3,a5
    5864:	97a6                	add	a5,a5,s1
    5866:	4780                	lw	s0,8(a5)
    5868:	bf49                	j	57fa <WCHNET_SocketRecv+0x78>

0000586a <SocketIPRawSend>:
    586a:	c85fa2ef          	jal	t0,4ee <__riscv_save_10>
    586e:	4200                	lw	s0,0(a2)
    5870:	00062023          	sw	zero,0(a2)
    5874:	c455                	beqz	s0,5920 <SocketIPRawSend+0xb6>
    5876:	87aa                	mv	a5,a0
    5878:	4569                	li	a0,26
    587a:	c5d9                	beqz	a1,5908 <SocketIPRawSend+0x9e>
    587c:	03c00513          	li	a0,60
    5880:	02a787b3          	mul	a5,a5,a0
    5884:	2000a537          	lui	a0,0x2000a
    5888:	f6450513          	addi	a0,a0,-156 # 20009f64 <SocketInf>
    588c:	2000aab7          	lui	s5,0x2000a
    5890:	4481                	li	s1,0
    5892:	97aa                	add	a5,a5,a0
    5894:	0307ab03          	lw	s6,48(a5)
    5898:	318a8793          	addi	a5,s5,792 # 2000a318 <NetInf>
    589c:	43bc                	lw	a5,64(a5)
    589e:	318a8a93          	addi	s5,s5,792
    58a2:	8b89                	andi	a5,a5,2
    58a4:	e399                	bnez	a5,58aa <SocketIPRawSend+0x40>
    58a6:	0c700493          	li	s1,199
    58aa:	5c800793          	li	a5,1480
    58ae:	0087f463          	bgeu	a5,s0,58b6 <SocketIPRawSend+0x4c>
    58b2:	5c800413          	li	s0,1480
    58b6:	01041c93          	slli	s9,s0,0x10
    58ba:	8a32                	mv	s4,a2
    58bc:	892e                	mv	s2,a1
    58be:	010cdc93          	srli	s9,s9,0x10
    58c2:	0c800c13          	li	s8,200
    58c6:	4601                	li	a2,0
    58c8:	85e6                	mv	a1,s9
    58ca:	4501                	li	a0,0
    58cc:	388020ef          	jal	ra,7c54 <pbuf_alloc>
    58d0:	89aa                	mv	s3,a0
    58d2:	c929                	beqz	a0,5924 <SocketIPRawSend+0xba>
    58d4:	4148                	lw	a0,4(a0)
    58d6:	8622                	mv	a2,s0
    58d8:	85ca                	mv	a1,s2
    58da:	020aae23          	sw	zero,60(s5)
    58de:	4f9050ef          	jal	ra,b5d6 <memcpy>
    58e2:	85ce                	mv	a1,s3
    58e4:	855a                	mv	a0,s6
    58e6:	716020ef          	jal	ra,7ffc <raw_send>
    58ea:	8baa                	mv	s7,a0
    58ec:	854e                	mv	a0,s3
    58ee:	318020ef          	jal	ra,7c06 <pbuf_free>
    58f2:	03caa783          	lw	a5,60(s5)
    58f6:	cb99                	beqz	a5,590c <SocketIPRawSend+0xa2>
    58f8:	0485                	addi	s1,s1,1
    58fa:	04c2                	slli	s1,s1,0x10
    58fc:	80c1                	srli	s1,s1,0x10
    58fe:	b7eff0ef          	jal	ra,4c7c <WCHNET_NetInput>
    5902:	fd8492e3          	bne	s1,s8,58c6 <SocketIPRawSend+0x5c>
    5906:	454d                	li	a0,19
    5908:	c1ffa06f          	j	526 <__riscv_restore_10>
    590c:	000bd663          	bgez	s7,5918 <SocketIPRawSend+0xae>
    5910:	855e                	mv	a0,s7
    5912:	94dff0ef          	jal	ra,525e <ErrorEncode>
    5916:	bfcd                	j	5908 <SocketIPRawSend+0x9e>
    5918:	008a2023          	sw	s0,0(s4)
    591c:	4501                	li	a0,0
    591e:	b7ed                	j	5908 <SocketIPRawSend+0x9e>
    5920:	4569                	li	a0,26
    5922:	b7dd                	j	5908 <SocketIPRawSend+0x9e>
    5924:	4545                	li	a0,17
    5926:	b7cd                	j	5908 <SocketIPRawSend+0x9e>

00005928 <SocketUdpSend>:
    5928:	bc7fa2ef          	jal	t0,4ee <__riscv_save_10>
    592c:	4200                	lw	s0,0(a2)
    592e:	00062023          	sw	zero,0(a2)
    5932:	c455                	beqz	s0,59de <SocketUdpSend+0xb6>
    5934:	87aa                	mv	a5,a0
    5936:	4569                	li	a0,26
    5938:	c5d9                	beqz	a1,59c6 <SocketUdpSend+0x9e>
    593a:	03c00513          	li	a0,60
    593e:	02a787b3          	mul	a5,a5,a0
    5942:	2000a537          	lui	a0,0x2000a
    5946:	f6450513          	addi	a0,a0,-156 # 20009f64 <SocketInf>
    594a:	2000aab7          	lui	s5,0x2000a
    594e:	4481                	li	s1,0
    5950:	97aa                	add	a5,a5,a0
    5952:	0307ab03          	lw	s6,48(a5)
    5956:	318a8793          	addi	a5,s5,792 # 2000a318 <NetInf>
    595a:	43bc                	lw	a5,64(a5)
    595c:	318a8a93          	addi	s5,s5,792
    5960:	8b89                	andi	a5,a5,2
    5962:	e399                	bnez	a5,5968 <SocketUdpSend+0x40>
    5964:	0c700493          	li	s1,199
    5968:	5c000793          	li	a5,1472
    596c:	0087f463          	bgeu	a5,s0,5974 <SocketUdpSend+0x4c>
    5970:	5c000413          	li	s0,1472
    5974:	01041c93          	slli	s9,s0,0x10
    5978:	8a32                	mv	s4,a2
    597a:	892e                	mv	s2,a1
    597c:	010cdc93          	srli	s9,s9,0x10
    5980:	0c800c13          	li	s8,200
    5984:	4601                	li	a2,0
    5986:	85e6                	mv	a1,s9
    5988:	4501                	li	a0,0
    598a:	2ca020ef          	jal	ra,7c54 <pbuf_alloc>
    598e:	89aa                	mv	s3,a0
    5990:	c929                	beqz	a0,59e2 <SocketUdpSend+0xba>
    5992:	4148                	lw	a0,4(a0)
    5994:	8622                	mv	a2,s0
    5996:	85ca                	mv	a1,s2
    5998:	020aae23          	sw	zero,60(s5)
    599c:	43b050ef          	jal	ra,b5d6 <memcpy>
    59a0:	85ce                	mv	a1,s3
    59a2:	855a                	mv	a0,s6
    59a4:	630050ef          	jal	ra,afd4 <udp_send>
    59a8:	8baa                	mv	s7,a0
    59aa:	854e                	mv	a0,s3
    59ac:	25a020ef          	jal	ra,7c06 <pbuf_free>
    59b0:	03caa783          	lw	a5,60(s5)
    59b4:	cb99                	beqz	a5,59ca <SocketUdpSend+0xa2>
    59b6:	0485                	addi	s1,s1,1
    59b8:	04c2                	slli	s1,s1,0x10
    59ba:	80c1                	srli	s1,s1,0x10
    59bc:	ac0ff0ef          	jal	ra,4c7c <WCHNET_NetInput>
    59c0:	fd8492e3          	bne	s1,s8,5984 <SocketUdpSend+0x5c>
    59c4:	454d                	li	a0,19
    59c6:	b61fa06f          	j	526 <__riscv_restore_10>
    59ca:	000bd663          	bgez	s7,59d6 <SocketUdpSend+0xae>
    59ce:	855e                	mv	a0,s7
    59d0:	88fff0ef          	jal	ra,525e <ErrorEncode>
    59d4:	bfcd                	j	59c6 <SocketUdpSend+0x9e>
    59d6:	008a2023          	sw	s0,0(s4)
    59da:	4501                	li	a0,0
    59dc:	b7ed                	j	59c6 <SocketUdpSend+0x9e>
    59de:	4569                	li	a0,26
    59e0:	b7dd                	j	59c6 <SocketUdpSend+0x9e>
    59e2:	4545                	li	a0,17
    59e4:	b7cd                	j	59c6 <SocketUdpSend+0x9e>

000059e6 <SocketTcpSend>:
    59e6:	b09fa2ef          	jal	t0,4ee <__riscv_save_10>
    59ea:	00062983          	lw	s3,0(a2)
    59ee:	00062023          	sw	zero,0(a2)
    59f2:	0c098e63          	beqz	s3,5ace <SocketTcpSend+0xe8>
    59f6:	87aa                	mv	a5,a0
    59f8:	8b2e                	mv	s6,a1
    59fa:	4569                	li	a0,26
    59fc:	c1a1                	beqz	a1,5a3c <SocketTcpSend+0x56>
    59fe:	03c00513          	li	a0,60
    5a02:	02a787b3          	mul	a5,a5,a0
    5a06:	2000a537          	lui	a0,0x2000a
    5a0a:	f6450513          	addi	a0,a0,-156 # 20009f64 <SocketInf>
    5a0e:	2000aa37          	lui	s4,0x2000a
    5a12:	8bb2                	mv	s7,a2
    5a14:	0c900a93          	li	s5,201
    5a18:	4481                	li	s1,0
    5a1a:	4c11                	li	s8,4
    5a1c:	35ca0a13          	addi	s4,s4,860 # 2000a35c <WCHCfg>
    5a20:	5cfd                	li	s9,-1
    5a22:	97aa                	add	a5,a5,a0
    5a24:	0307a903          	lw	s2,48(a5)
    5a28:	1afd                	addi	s5,s5,-1
    5a2a:	0ac2                	slli	s5,s5,0x10
    5a2c:	010ada93          	srli	s5,s5,0x10
    5a30:	000a9863          	bnez	s5,5a40 <SocketTcpSend+0x5a>
    5a34:	000ba783          	lw	a5,0(s7) # 4000 <xTaskResumeAll+0x1e>
    5a38:	cbc9                	beqz	a5,5aca <SocketTcpSend+0xe4>
    5a3a:	4501                	li	a0,0
    5a3c:	aebfa06f          	j	526 <__riscv_restore_10>
    5a40:	01092783          	lw	a5,16(s2)
    5a44:	09879763          	bne	a5,s8,5ad2 <SocketTcpSend+0xec>
    5a48:	a34ff0ef          	jal	ra,4c7c <WCHNET_NetInput>
    5a4c:	07695703          	lhu	a4,118(s2)
    5a50:	e319                	bnez	a4,5a56 <SocketTcpSend+0x70>
    5a52:	4545                	li	a0,17
    5a54:	b7e5                	j	5a3c <SocketTcpSend+0x56>
    5a56:	010a2783          	lw	a5,16(s4)
    5a5a:	8b85                	andi	a5,a5,1
    5a5c:	e399                	bnez	a5,5a62 <SocketTcpSend+0x7c>
    5a5e:	ff376ae3          	bltu	a4,s3,5a52 <SocketTcpSend+0x6c>
    5a62:	004a2403          	lw	s0,4(s4)
    5a66:	00877363          	bgeu	a4,s0,5a6c <SocketTcpSend+0x86>
    5a6a:	843a                	mv	s0,a4
    5a6c:	0089f363          	bgeu	s3,s0,5a72 <SocketTcpSend+0x8c>
    5a70:	844e                	mv	s0,s3
    5a72:	01041613          	slli	a2,s0,0x10
    5a76:	8241                	srli	a2,a2,0x10
    5a78:	4685                	li	a3,1
    5a7a:	e391                	bnez	a5,5a7e <SocketTcpSend+0x98>
    5a7c:	4681                	li	a3,0
    5a7e:	85da                	mv	a1,s6
    5a80:	854a                	mv	a0,s2
    5a82:	229040ef          	jal	ra,a4aa <tcp_write>
    5a86:	84aa                	mv	s1,a0
    5a88:	854a                	mv	a0,s2
    5a8a:	e48d                	bnez	s1,5ab4 <SocketTcpSend+0xce>
    5a8c:	2bf040ef          	jal	ra,a54a <tcp_output>
    5a90:	000ba783          	lw	a5,0(s7)
    5a94:	408989b3          	sub	s3,s3,s0
    5a98:	84aa                	mv	s1,a0
    5a9a:	97a2                	add	a5,a5,s0
    5a9c:	00fba023          	sw	a5,0(s7)
    5aa0:	9b22                	add	s6,s6,s0
    5aa2:	f8098ce3          	beqz	s3,5a3a <SocketTcpSend+0x54>
    5aa6:	010a2783          	lw	a5,16(s4)
    5aaa:	8b85                	andi	a5,a5,1
    5aac:	ffb5                	bnez	a5,5a28 <SocketTcpSend+0x42>
    5aae:	fb0ff0ef          	jal	ra,525e <ErrorEncode>
    5ab2:	b769                	j	5a3c <SocketTcpSend+0x56>
    5ab4:	01949963          	bne	s1,s9,5ac6 <SocketTcpSend+0xe0>
    5ab8:	293040ef          	jal	ra,a54a <tcp_output>
    5abc:	010a2783          	lw	a5,16(s4)
    5ac0:	8b85                	andi	a5,a5,1
    5ac2:	f3bd                	bnez	a5,5a28 <SocketTcpSend+0x42>
    5ac4:	b779                	j	5a52 <SocketTcpSend+0x6c>
    5ac6:	285040ef          	jal	ra,a54a <tcp_output>
    5aca:	8526                	mv	a0,s1
    5acc:	b7cd                	j	5aae <SocketTcpSend+0xc8>
    5ace:	4569                	li	a0,26
    5ad0:	b7b5                	j	5a3c <SocketTcpSend+0x56>
    5ad2:	455d                	li	a0,23
    5ad4:	b7a5                	j	5a3c <SocketTcpSend+0x56>

00005ad6 <WCHNET_SocketSend>:
    5ad6:	03c00793          	li	a5,60
    5ada:	02f507b3          	mul	a5,a0,a5
    5ade:	2000a737          	lui	a4,0x2000a
    5ae2:	f6470713          	addi	a4,a4,-156 # 20009f64 <SocketInf>
    5ae6:	97ba                	add	a5,a5,a4
    5ae8:	0207a803          	lw	a6,32(a5)
    5aec:	4715                	li	a4,5
    5aee:	00e80763          	beq	a6,a4,5afc <WCHNET_SocketSend+0x26>
    5af2:	47dd                	li	a5,23
    5af4:	00062023          	sw	zero,0(a2)
    5af8:	853e                	mv	a0,a5
    5afa:	8082                	ret
    5afc:	a1bfa2ef          	jal	t0,516 <__riscv_save_0>
    5b00:	4fd8                	lw	a4,28(a5)
    5b02:	478d                	li	a5,3
    5b04:	00f71863          	bne	a4,a5,5b14 <WCHNET_SocketSend+0x3e>
    5b08:	edfff0ef          	jal	ra,59e6 <SocketTcpSend>
    5b0c:	87aa                	mv	a5,a0
    5b0e:	853e                	mv	a0,a5
    5b10:	a2bfa06f          	j	53a <__riscv_restore_0>
    5b14:	e701                	bnez	a4,5b1c <WCHNET_SocketSend+0x46>
    5b16:	d55ff0ef          	jal	ra,586a <SocketIPRawSend>
    5b1a:	bfcd                	j	5b0c <WCHNET_SocketSend+0x36>
    5b1c:	4689                	li	a3,2
    5b1e:	0fa00793          	li	a5,250
    5b22:	fed716e3          	bne	a4,a3,5b0e <WCHNET_SocketSend+0x38>
    5b26:	e03ff0ef          	jal	ra,5928 <SocketUdpSend>
    5b2a:	b7cd                	j	5b0c <WCHNET_SocketSend+0x36>

00005b2c <WCHScokedIntHandle>:
    5b2c:	9ebfa2ef          	jal	t0,516 <__riscv_save_0>
    5b30:	47a1                	li	a5,8
    5b32:	84aa                	mv	s1,a0
    5b34:	2100                	lbu	s0,0(a0)
    5b36:	02f58a63          	beq	a1,a5,5b6a <WCHScokedIntHandle+0x3e>
    5b3a:	00b7ec63          	bltu	a5,a1,5b52 <WCHScokedIntHandle+0x26>
    5b3e:	4785                	li	a5,1
    5b40:	02f58163          	beq	a1,a5,5b62 <WCHScokedIntHandle+0x36>
    5b44:	4789                	li	a5,2
    5b46:	00246413          	ori	s0,s0,2
    5b4a:	00f58e63          	beq	a1,a5,5b66 <WCHScokedIntHandle+0x3a>
    5b4e:	9edfa06f          	j	53a <__riscv_restore_0>
    5b52:	47c1                	li	a5,16
    5b54:	00f58e63          	beq	a1,a5,5b70 <WCHScokedIntHandle+0x44>
    5b58:	04000793          	li	a5,64
    5b5c:	04046413          	ori	s0,s0,64
    5b60:	b7ed                	j	5b4a <WCHScokedIntHandle+0x1e>
    5b62:	00146413          	ori	s0,s0,1
    5b66:	c080                	sw	s0,0(s1)
    5b68:	b7dd                	j	5b4e <WCHScokedIntHandle+0x22>
    5b6a:	00846413          	ori	s0,s0,8
    5b6e:	bfe5                	j	5b66 <WCHScokedIntHandle+0x3a>
    5b70:	5948                	lw	a0,52(a0)
    5b72:	01046413          	ori	s0,s0,16
    5b76:	d965                	beqz	a0,5b66 <WCHScokedIntHandle+0x3a>
    5b78:	397020ef          	jal	ra,870e <tcp_close>
    5b7c:	b7ed                	j	5b66 <WCHScokedIntHandle+0x3a>

00005b7e <LwipRemoveTcpPcb>:
    5b7e:	999fa2ef          	jal	t0,516 <__riscv_save_0>
    5b82:	1141                	addi	sp,sp,-16
    5b84:	00f10593          	addi	a1,sp,15
    5b88:	892a                	mv	s2,a0
    5b8a:	000107a3          	sb	zero,15(sp)
    5b8e:	929ff0ef          	jal	ra,54b6 <WCHFindCorrectTCBPcb>
    5b92:	c515                	beqz	a0,5bbe <LwipRemoveTcpPcb+0x40>
    5b94:	8780                	lbu	s0,15(sp)
    5b96:	01841793          	slli	a5,s0,0x18
    5b9a:	87e1                	srai	a5,a5,0x18
    5b9c:	0207d463          	bgez	a5,5bc4 <LwipRemoveTcpPcb+0x46>
    5ba0:	07f47413          	andi	s0,s0,127
    5ba4:	03c00713          	li	a4,60
    5ba8:	02e40433          	mul	s0,s0,a4
    5bac:	2000a7b7          	lui	a5,0x2000a
    5bb0:	f6478793          	addi	a5,a5,-156 # 20009f64 <SocketInf>
    5bb4:	943e                	add	s0,s0,a5
    5bb6:	02042a23          	sw	zero,52(s0)
    5bba:	02042023          	sw	zero,32(s0)
    5bbe:	0141                	addi	sp,sp,16
    5bc0:	97bfa06f          	j	53a <__riscv_restore_0>
    5bc4:	9a41c783          	lbu	a5,-1628(gp) # 200002a4 <SockNumber>
    5bc8:	fef47be3          	bgeu	s0,a5,5bbe <LwipRemoveTcpPcb+0x40>
    5bcc:	03c00713          	li	a4,60
    5bd0:	02e40733          	mul	a4,s0,a4
    5bd4:	2000a7b7          	lui	a5,0x2000a
    5bd8:	f6478513          	addi	a0,a5,-156 # 20009f64 <SocketInf>
    5bdc:	f6478493          	addi	s1,a5,-156
    5be0:	953a                	add	a0,a0,a4
    5be2:	4d54                	lw	a3,28(a0)
    5be4:	470d                	li	a4,3
    5be6:	fce69ce3          	bne	a3,a4,5bbe <LwipRemoveTcpPcb+0x40>
    5bea:	01092783          	lw	a5,16(s2)
    5bee:	4705                	li	a4,1
    5bf0:	17dd                	addi	a5,a5,-9
    5bf2:	0ff7f793          	andi	a5,a5,255
    5bf6:	00f76d63          	bltu	a4,a5,5c10 <LwipRemoveTcpPcb+0x92>
    5bfa:	45c1                	li	a1,16
    5bfc:	f31ff0ef          	jal	ra,5b2c <WCHScokedIntHandle>
    5c00:	03c00793          	li	a5,60
    5c04:	02f40433          	mul	s0,s0,a5
    5c08:	9426                	add	s0,s0,s1
    5c0a:	02042823          	sw	zero,48(s0)
    5c0e:	b775                	j	5bba <LwipRemoveTcpPcb+0x3c>
    5c10:	211c                	lbu	a5,0(a0)
    5c12:	0407e793          	ori	a5,a5,64
    5c16:	c11c                	sw	a5,0(a0)
    5c18:	b7e5                	j	5c00 <LwipRemoveTcpPcb+0x82>

00005c1a <WCHNET_QueryGlobalInt>:
    5c1a:	2000a737          	lui	a4,0x2000a
    5c1e:	9a41c683          	lbu	a3,-1628(gp) # 200002a4 <SockNumber>
    5c22:	f6470713          	addi	a4,a4,-156 # 20009f64 <SocketInf>
    5c26:	4781                	li	a5,0
    5c28:	00f68f63          	beq	a3,a5,5c46 <WCHNET_QueryGlobalInt+0x2c>
    5c2c:	03c70713          	addi	a4,a4,60
    5c30:	fc472603          	lw	a2,-60(a4)
    5c34:	ce11                	beqz	a2,5c50 <WCHNET_QueryGlobalInt+0x36>
    5c36:	2000a7b7          	lui	a5,0x2000a
    5c3a:	31878793          	addi	a5,a5,792 # 2000a318 <NetInf>
    5c3e:	57d8                	lw	a4,44(a5)
    5c40:	01076713          	ori	a4,a4,16
    5c44:	d7d8                	sw	a4,44(a5)
    5c46:	2000a7b7          	lui	a5,0x2000a
    5c4a:	3447c503          	lbu	a0,836(a5) # 2000a344 <NetInf+0x2c>
    5c4e:	8082                	ret
    5c50:	0785                	addi	a5,a5,1
    5c52:	0ff7f793          	andi	a5,a5,255
    5c56:	bfc9                	j	5c28 <WCHNET_QueryGlobalInt+0xe>

00005c58 <WCHNET_GetGlobalInt>:
    5c58:	8bffa2ef          	jal	t0,516 <__riscv_save_0>
    5c5c:	fbfff0ef          	jal	ra,5c1a <WCHNET_QueryGlobalInt>
    5c60:	2000a7b7          	lui	a5,0x2000a
    5c64:	3407a223          	sw	zero,836(a5) # 2000a344 <NetInf+0x2c>
    5c68:	8d3fa06f          	j	53a <__riscv_restore_0>

00005c6c <WCHNET_GetSocketInt>:
    5c6c:	9a41c783          	lbu	a5,-1628(gp) # 200002a4 <SockNumber>
    5c70:	02f57163          	bgeu	a0,a5,5c92 <WCHNET_GetSocketInt+0x26>
    5c74:	03c00793          	li	a5,60
    5c78:	02f50533          	mul	a0,a0,a5
    5c7c:	2000a7b7          	lui	a5,0x2000a
    5c80:	f6478793          	addi	a5,a5,-156 # 20009f64 <SocketInf>
    5c84:	97aa                	add	a5,a5,a0
    5c86:	4398                	lw	a4,0(a5)
    5c88:	0ff77513          	andi	a0,a4,255
    5c8c:	8b11                	andi	a4,a4,4
    5c8e:	c398                	sw	a4,0(a5)
    5c90:	8082                	ret
    5c92:	4501                	li	a0,0
    5c94:	8082                	ret

00005c96 <WCHNET_GetPHYStatus>:
    5c96:	2000a7b7          	lui	a5,0x2000a
    5c9a:	3387c503          	lbu	a0,824(a5) # 2000a338 <NetInf+0x20>
    5c9e:	8082                	ret

00005ca0 <WCHNET_SocketSetKeepLive>:
    5ca0:	03c00793          	li	a5,60
    5ca4:	02f50533          	mul	a0,a0,a5
    5ca8:	2000a7b7          	lui	a5,0x2000a
    5cac:	f6478793          	addi	a5,a5,-156 # 20009f64 <SocketInf>
    5cb0:	953e                	add	a0,a0,a5
    5cb2:	591c                	lw	a5,48(a0)
    5cb4:	cf95                	beqz	a5,5cf0 <WCHNET_SocketSetKeepLive+0x50>
    5cb6:	5114                	lw	a3,32(a0)
    5cb8:	4715                	li	a4,5
    5cba:	455d                	li	a0,23
    5cbc:	02e69b63          	bne	a3,a4,5cf2 <WCHNET_SocketSetKeepLive+0x52>
    5cc0:	8985                	andi	a1,a1,1
    5cc2:	279a                	lhu	a4,8(a5)
    5cc4:	c19d                	beqz	a1,5cea <WCHNET_SocketSetKeepLive+0x4a>
    5cc6:	00876713          	ori	a4,a4,8
    5cca:	a79a                	sh	a4,8(a5)
    5ccc:	2000a737          	lui	a4,0x2000a
    5cd0:	30c70713          	addi	a4,a4,780 # 2000a30c <KeepLiveCfg>
    5cd4:	4314                	lw	a3,0(a4)
    5cd6:	0ad7a023          	sw	a3,160(a5)
    5cda:	4354                	lw	a3,4(a4)
    5cdc:	4718                	lw	a4,8(a4)
    5cde:	0ad7a223          	sw	a3,164(a5)
    5ce2:	0ae7a423          	sw	a4,168(a5)
    5ce6:	4501                	li	a0,0
    5ce8:	8082                	ret
    5cea:	9b5d                	andi	a4,a4,-9
    5cec:	a79a                	sh	a4,8(a5)
    5cee:	bfe5                	j	5ce6 <WCHNET_SocketSetKeepLive+0x46>
    5cf0:	455d                	li	a0,23
    5cf2:	8082                	ret

00005cf4 <WCHNET_SocketListen>:
    5cf4:	03c00713          	li	a4,60
    5cf8:	02e50733          	mul	a4,a0,a4
    5cfc:	2000a7b7          	lui	a5,0x2000a
    5d00:	f6478693          	addi	a3,a5,-156 # 20009f64 <SocketInf>
    5d04:	9736                	add	a4,a4,a3
    5d06:	5310                	lw	a2,32(a4)
    5d08:	4695                	li	a3,5
    5d0a:	04d61963          	bne	a2,a3,5d5c <WCHNET_SocketListen+0x68>
    5d0e:	809fa2ef          	jal	t0,516 <__riscv_save_0>
    5d12:	5b04                	lw	s1,48(a4)
    5d14:	5b58                	lw	a4,52(a4)
    5d16:	f6478793          	addi	a5,a5,-156
    5d1a:	00970463          	beq	a4,s1,5d22 <WCHNET_SocketListen+0x2e>
    5d1e:	475d                	li	a4,23
    5d20:	e89d                	bnez	s1,5d56 <WCHNET_SocketListen+0x62>
    5d22:	03c00413          	li	s0,60
    5d26:	02850433          	mul	s0,a0,s0
    5d2a:	8526                	mv	a0,s1
    5d2c:	943e                	add	s0,s0,a5
    5d2e:	85a2                	mv	a1,s0
    5d30:	02042823          	sw	zero,48(s0)
    5d34:	63c020ef          	jal	ra,8370 <tcp_arg>
    5d38:	0ff00593          	li	a1,255
    5d3c:	8526                	mv	a0,s1
    5d3e:	4a4020ef          	jal	ra,81e2 <tcp_listen_with_backlog>
    5d42:	4745                	li	a4,17
    5d44:	c909                	beqz	a0,5d56 <WCHNET_SocketListen+0x62>
    5d46:	000055b7          	lui	a1,0x5
    5d4a:	d848                	sw	a0,52(s0)
    5d4c:	19858593          	addi	a1,a1,408 # 5198 <WCHTCPServerAccept>
    5d50:	636020ef          	jal	ra,8386 <tcp_accept>
    5d54:	4701                	li	a4,0
    5d56:	853a                	mv	a0,a4
    5d58:	fe2fa06f          	j	53a <__riscv_restore_0>
    5d5c:	475d                	li	a4,23
    5d5e:	853a                	mv	a0,a4
    5d60:	8082                	ret

00005d62 <CloseUpdConnect>:
    5d62:	fb4fa2ef          	jal	t0,516 <__riscv_save_0>
    5d66:	03c00413          	li	s0,60
    5d6a:	02850433          	mul	s0,a0,s0
    5d6e:	2000a537          	lui	a0,0x2000a
    5d72:	f6450513          	addi	a0,a0,-156 # 20009f64 <SocketInf>
    5d76:	44dd                	li	s1,23
    5d78:	942a                	add	s0,s0,a0
    5d7a:	5808                	lw	a0,48(s0)
    5d7c:	cd01                	beqz	a0,5d94 <CloseUpdConnect+0x32>
    5d7e:	5018                	lw	a4,32(s0)
    5d80:	4795                	li	a5,5
    5d82:	4481                	li	s1,0
    5d84:	00f71863          	bne	a4,a5,5d94 <CloseUpdConnect+0x32>
    5d88:	2e2050ef          	jal	ra,b06a <udp_remove>
    5d8c:	02042823          	sw	zero,48(s0)
    5d90:	02042023          	sw	zero,32(s0)
    5d94:	8526                	mv	a0,s1
    5d96:	fa4fa06f          	j	53a <__riscv_restore_0>

00005d9a <CloseIPRAWConnect>:
    5d9a:	f7cfa2ef          	jal	t0,516 <__riscv_save_0>
    5d9e:	03c00413          	li	s0,60
    5da2:	02850433          	mul	s0,a0,s0
    5da6:	2000a537          	lui	a0,0x2000a
    5daa:	f6450513          	addi	a0,a0,-156 # 20009f64 <SocketInf>
    5dae:	44dd                	li	s1,23
    5db0:	942a                	add	s0,s0,a0
    5db2:	5808                	lw	a0,48(s0)
    5db4:	cd01                	beqz	a0,5dcc <CloseIPRAWConnect+0x32>
    5db6:	5018                	lw	a4,32(s0)
    5db8:	4795                	li	a5,5
    5dba:	4481                	li	s1,0
    5dbc:	00f71863          	bne	a4,a5,5dcc <CloseIPRAWConnect+0x32>
    5dc0:	24c020ef          	jal	ra,800c <raw_remove>
    5dc4:	02042823          	sw	zero,48(s0)
    5dc8:	02042023          	sw	zero,32(s0)
    5dcc:	8526                	mv	a0,s1
    5dce:	f6cfa06f          	j	53a <__riscv_restore_0>

00005dd2 <CloseTcpPCB>:
    5dd2:	f2afa2ef          	jal	t0,4fc <__riscv_save_4>
    5dd6:	03c00793          	li	a5,60
    5dda:	02f507b3          	mul	a5,a0,a5
    5dde:	2000a437          	lui	s0,0x2000a
    5de2:	f6440993          	addi	s3,s0,-156 # 20009f64 <SocketInf>
    5de6:	892a                	mv	s2,a0
    5de8:	1141                	addi	sp,sp,-16
    5dea:	f6440413          	addi	s0,s0,-156
    5dee:	4481                	li	s1,0
    5df0:	99be                	add	s3,s3,a5
    5df2:	0349a503          	lw	a0,52(s3)
    5df6:	c901                	beqz	a0,5e06 <CloseTcpPCB+0x34>
    5df8:	c62e                	sw	a1,12(sp)
    5dfa:	115020ef          	jal	ra,870e <tcp_close>
    5dfe:	45b2                	lw	a1,12(sp)
    5e00:	84aa                	mv	s1,a0
    5e02:	0209a023          	sw	zero,32(s3)
    5e06:	03c00793          	li	a5,60
    5e0a:	02f907b3          	mul	a5,s2,a5
    5e0e:	97a2                	add	a5,a5,s0
    5e10:	5b88                	lw	a0,48(a5)
    5e12:	cd09                	beqz	a0,5e2c <CloseTcpPCB+0x5a>
    5e14:	e185                	bnez	a1,5e34 <CloseTcpPCB+0x62>
    5e16:	0f9020ef          	jal	ra,870e <tcp_close>
    5e1a:	84aa                	mv	s1,a0
    5e1c:	e881                	bnez	s1,5e2c <CloseTcpPCB+0x5a>
    5e1e:	03c00513          	li	a0,60
    5e22:	02a90533          	mul	a0,s2,a0
    5e26:	942a                	add	s0,s0,a0
    5e28:	02042023          	sw	zero,32(s0)
    5e2c:	8526                	mv	a0,s1
    5e2e:	0141                	addi	sp,sp,16
    5e30:	f00fa06f          	j	530 <__riscv_restore_4>
    5e34:	4785                	li	a5,1
    5e36:	00f59663          	bne	a1,a5,5e42 <CloseTcpPCB+0x70>
    5e3a:	4585                	li	a1,1
    5e3c:	2b5020ef          	jal	ra,88f0 <tcp_abandon>
    5e40:	bff1                	j	5e1c <CloseTcpPCB+0x4a>
    5e42:	4789                	li	a5,2
    5e44:	00f59463          	bne	a1,a5,5e4c <CloseTcpPCB+0x7a>
    5e48:	4581                	li	a1,0
    5e4a:	bfcd                	j	5e3c <CloseTcpPCB+0x6a>
    5e4c:	54d9                	li	s1,-10
    5e4e:	bff9                	j	5e2c <CloseTcpPCB+0x5a>

00005e50 <WCHNET_SocketClose>:
    5e50:	9a41c703          	lbu	a4,-1628(gp) # 200002a4 <SockNumber>
    5e54:	04e57b63          	bgeu	a0,a4,5eaa <WCHNET_SocketClose+0x5a>
    5e58:	03c00713          	li	a4,60
    5e5c:	02e507b3          	mul	a5,a0,a4
    5e60:	2000a737          	lui	a4,0x2000a
    5e64:	f6470713          	addi	a4,a4,-156 # 20009f64 <SocketInf>
    5e68:	4695                	li	a3,5
    5e6a:	97ba                	add	a5,a5,a4
    5e6c:	5390                	lw	a2,32(a5)
    5e6e:	475d                	li	a4,23
    5e70:	02d61e63          	bne	a2,a3,5eac <WCHNET_SocketClose+0x5c>
    5e74:	ea2fa2ef          	jal	t0,516 <__riscv_save_0>
    5e78:	4fdc                	lw	a5,28(a5)
    5e7a:	4709                	li	a4,2
    5e7c:	00e79763          	bne	a5,a4,5e8a <WCHNET_SocketClose+0x3a>
    5e80:	ee3ff0ef          	jal	ra,5d62 <CloseUpdConnect>
    5e84:	0562                	slli	a0,a0,0x18
    5e86:	8561                	srai	a0,a0,0x18
    5e88:	a031                	j	5e94 <WCHNET_SocketClose+0x44>
    5e8a:	470d                	li	a4,3
    5e8c:	00e79a63          	bne	a5,a4,5ea0 <WCHNET_SocketClose+0x50>
    5e90:	f43ff0ef          	jal	ra,5dd2 <CloseTcpPCB>
    5e94:	bcaff0ef          	jal	ra,525e <ErrorEncode>
    5e98:	872a                	mv	a4,a0
    5e9a:	853a                	mv	a0,a4
    5e9c:	e9efa06f          	j	53a <__riscv_restore_0>
    5ea0:	4765                	li	a4,25
    5ea2:	ffe5                	bnez	a5,5e9a <WCHNET_SocketClose+0x4a>
    5ea4:	ef7ff0ef          	jal	ra,5d9a <CloseIPRAWConnect>
    5ea8:	bff1                	j	5e84 <WCHNET_SocketClose+0x34>
    5eaa:	4769                	li	a4,26
    5eac:	853a                	mv	a0,a4
    5eae:	8082                	ret

00005eb0 <QueryPingEnable>:
    5eb0:	2000a7b7          	lui	a5,0x2000a
    5eb4:	3707a503          	lw	a0,880(a5) # 2000a370 <WCHCfg+0x14>
    5eb8:	8135                	srli	a0,a0,0xd
    5eba:	8905                	andi	a0,a0,1
    5ebc:	8082                	ret

00005ebe <LwipUnreachPort>:
    5ebe:	2000a7b7          	lui	a5,0x2000a
    5ec2:	31878793          	addi	a5,a5,792 # 2000a318 <NetInf>
    5ec6:	4705                	li	a4,1
    5ec8:	1141                	addi	sp,sp,-16
    5eca:	cbc8                	sw	a0,20(a5)
    5ecc:	db94                	sw	a3,48(a5)
    5ece:	dbd0                	sw	a2,52(a5)
    5ed0:	df8c                	sw	a1,56(a5)
    5ed2:	d7d8                	sw	a4,44(a5)
    5ed4:	0141                	addi	sp,sp,16
    5ed6:	8082                	ret

00005ed8 <LwipArpCheck>:
    5ed8:	2000a7b7          	lui	a5,0x2000a
    5edc:	4705                	li	a4,1
    5ede:	34e7aa23          	sw	a4,852(a5) # 2000a354 <NetInf+0x3c>
    5ee2:	8082                	ret

00005ee4 <find_entry>:
    5ee4:	e32fa2ef          	jal	t0,516 <__riscv_save_0>
    5ee8:	2000a7b7          	lui	a5,0x2000a
    5eec:	3687a603          	lw	a2,872(a5) # 2000a368 <WCHCfg+0xc>
    5ef0:	8301a683          	lw	a3,-2000(gp) # 20000130 <arp_table>
    5ef4:	01861713          	slli	a4,a2,0x18
    5ef8:	8761                	srai	a4,a4,0x18
    5efa:	14050b63          	beqz	a0,6050 <find_entry+0x16c>
    5efe:	9ac1c783          	lbu	a5,-1620(gp) # 200002ac <etharp_cached_entry>
    5f02:	4861                	li	a6,24
    5f04:	4889                	li	a7,2
    5f06:	03078833          	mul	a6,a5,a6
    5f0a:	9836                	add	a6,a6,a3
    5f0c:	00c82303          	lw	t1,12(a6)
    5f10:	15131063          	bne	t1,a7,6050 <find_entry+0x16c>
    5f14:	00154303          	lbu	t1,1(a0)
    5f18:	00054883          	lbu	a7,0(a0)
    5f1c:	00082803          	lw	a6,0(a6)
    5f20:	0322                	slli	t1,t1,0x8
    5f22:	01136333          	or	t1,t1,a7
    5f26:	00254883          	lbu	a7,2(a0)
    5f2a:	08c2                	slli	a7,a7,0x10
    5f2c:	0068e333          	or	t1,a7,t1
    5f30:	00354883          	lbu	a7,3(a0)
    5f34:	08e2                	slli	a7,a7,0x18
    5f36:	0068e8b3          	or	a7,a7,t1
    5f3a:	11089b63          	bne	a7,a6,6050 <find_entry+0x16c>
    5f3e:	07e2                	slli	a5,a5,0x18
    5f40:	87e1                	srai	a5,a5,0x18
    5f42:	853e                	mv	a0,a5
    5f44:	df6fa06f          	j	53a <__riscv_restore_0>
    5f48:	025788b3          	mul	a7,a5,t0
    5f4c:	98b6                	add	a7,a7,a3
    5f4e:	00c8ae03          	lw	t3,12(a7) # 8000000c <__freertos_irq_stack_top+0x5fff000c>
    5f52:	07061963          	bne	a2,a6,5fc4 <find_entry+0xe0>
    5f56:	060e1763          	bnez	t3,5fc4 <find_entry+0xe0>
    5f5a:	01879813          	slli	a6,a5,0x18
    5f5e:	41885813          	srai	a6,a6,0x18
    5f62:	0785                	addi	a5,a5,1
    5f64:	0ff7f793          	andi	a5,a5,255
    5f68:	fec7e0e3          	bltu	a5,a2,5f48 <find_entry+0x64>
    5f6c:	01061763          	bne	a2,a6,5f7a <find_entry+0x96>
    5f70:	0015f893          	andi	a7,a1,1
    5f74:	57fd                	li	a5,-1
    5f76:	fc0886e3          	beqz	a7,5f42 <find_entry+0x5e>
    5f7a:	8989                	andi	a1,a1,2
    5f7c:	57fd                	li	a5,-1
    5f7e:	f1f1                	bnez	a1,5f42 <find_entry+0x5e>
    5f80:	0ff87793          	andi	a5,a6,255
    5f84:	00c86b63          	bltu	a6,a2,5f9a <find_entry+0xb6>
    5f88:	0ff37793          	andi	a5,t1,255
    5f8c:	00c36763          	bltu	t1,a2,5f9a <find_entry+0xb6>
    5f90:	57fd                	li	a5,-1
    5f92:	fac778e3          	bgeu	a4,a2,5f42 <find_entry+0x5e>
    5f96:	0ff77793          	andi	a5,a4,255
    5f9a:	4761                	li	a4,24
    5f9c:	02e78733          	mul	a4,a5,a4
    5fa0:	96ba                	add	a3,a3,a4
    5fa2:	0006a623          	sw	zero,12(a3)
    5fa6:	cd01                	beqz	a0,5fbe <find_entry+0xda>
    5fa8:	3110                	lbu	a2,1(a0)
    5faa:	2118                	lbu	a4,0(a0)
    5fac:	0622                	slli	a2,a2,0x8
    5fae:	8e59                	or	a2,a2,a4
    5fb0:	2138                	lbu	a4,2(a0)
    5fb2:	0742                	slli	a4,a4,0x10
    5fb4:	8e59                	or	a2,a2,a4
    5fb6:	3138                	lbu	a4,3(a0)
    5fb8:	0762                	slli	a4,a4,0x18
    5fba:	8f51                	or	a4,a4,a2
    5fbc:	c298                	sw	a4,0(a3)
    5fbe:	00068823          	sb	zero,16(a3)
    5fc2:	a80d                	j	5ff4 <find_entry+0x110>
    5fc4:	047e1463          	bne	t3,t2,600c <find_entry+0x128>
    5fc8:	c90d                	beqz	a0,5ffa <find_entry+0x116>
    5fca:	00154e83          	lbu	t4,1(a0)
    5fce:	00054e03          	lbu	t3,0(a0)
    5fd2:	0ea2                	slli	t4,t4,0x8
    5fd4:	01ceeeb3          	or	t4,t4,t3
    5fd8:	00254e03          	lbu	t3,2(a0)
    5fdc:	0e42                	slli	t3,t3,0x10
    5fde:	01de6eb3          	or	t4,t3,t4
    5fe2:	00354e03          	lbu	t3,3(a0)
    5fe6:	0e62                	slli	t3,t3,0x18
    5fe8:	01de6e33          	or	t3,t3,t4
    5fec:	0008ae83          	lw	t4,0(a7)
    5ff0:	01de1563          	bne	t3,t4,5ffa <find_entry+0x116>
    5ff4:	9af18623          	sb	a5,-1620(gp) # 200002ac <etharp_cached_entry>
    5ff8:	b799                	j	5f3e <find_entry+0x5a>
    5ffa:	0108c883          	lbu	a7,16(a7)
    5ffe:	f7e8e2e3          	bltu	a7,t5,5f62 <find_entry+0x7e>
    6002:	01879713          	slli	a4,a5,0x18
    6006:	8761                	srai	a4,a4,0x18
    6008:	8f46                	mv	t5,a7
    600a:	bfa1                	j	5f62 <find_entry+0x7e>
    600c:	f48e1be3          	bne	t3,s0,5f62 <find_entry+0x7e>
    6010:	c515                	beqz	a0,603c <find_entry+0x158>
    6012:	00154e83          	lbu	t4,1(a0)
    6016:	00054e03          	lbu	t3,0(a0)
    601a:	0ea2                	slli	t4,t4,0x8
    601c:	01ceeeb3          	or	t4,t4,t3
    6020:	00254e03          	lbu	t3,2(a0)
    6024:	0e42                	slli	t3,t3,0x10
    6026:	01de6eb3          	or	t4,t3,t4
    602a:	00354e03          	lbu	t3,3(a0)
    602e:	0e62                	slli	t3,t3,0x18
    6030:	01de6e33          	or	t3,t3,t4
    6034:	0008ae83          	lw	t4,0(a7)
    6038:	fbde0ee3          	beq	t3,t4,5ff4 <find_entry+0x110>
    603c:	0108c883          	lbu	a7,16(a7)
    6040:	f3f8e1e3          	bltu	a7,t6,5f62 <find_entry+0x7e>
    6044:	01879313          	slli	t1,a5,0x18
    6048:	41835313          	srai	t1,t1,0x18
    604c:	8fc6                	mv	t6,a7
    604e:	bf11                	j	5f62 <find_entry+0x7e>
    6050:	883a                	mv	a6,a4
    6052:	833a                	mv	t1,a4
    6054:	4f81                	li	t6,0
    6056:	4f01                	li	t5,0
    6058:	4781                	li	a5,0
    605a:	42e1                	li	t0,24
    605c:	4385                	li	t2,1
    605e:	4409                	li	s0,2
    6060:	b721                	j	5f68 <find_entry+0x84>

00006062 <update_arp_entry>:
    6062:	c9afa2ef          	jal	t0,4fc <__riscv_save_4>
    6066:	3198                	lbu	a4,1(a1)
    6068:	219c                	lbu	a5,0(a1)
    606a:	8a36                	mv	s4,a3
    606c:	0722                	slli	a4,a4,0x8
    606e:	8f5d                	or	a4,a4,a5
    6070:	21bc                	lbu	a5,2(a1)
    6072:	4154                	lw	a3,4(a0)
    6074:	07c2                	slli	a5,a5,0x10
    6076:	8f5d                	or	a4,a4,a5
    6078:	31bc                	lbu	a5,3(a1)
    607a:	07e2                	slli	a5,a5,0x18
    607c:	8fd9                	or	a5,a5,a4
    607e:	00f69b63          	bne	a3,a5,6094 <update_arp_entry+0x32>
    6082:	e689                	bnez	a3,608c <update_arp_entry+0x2a>
    6084:	57d9                	li	a5,-10
    6086:	853e                	mv	a0,a5
    6088:	ca8fa06f          	j	530 <__riscv_restore_4>
    608c:	4505                	li	a0,1
    608e:	e27fe0ef          	jal	ra,4eb4 <IPConflictHandle>
    6092:	bfcd                	j	6084 <update_arp_entry+0x22>
    6094:	dbe5                	beqz	a5,6084 <update_arp_entry+0x22>
    6096:	842e                	mv	s0,a1
    6098:	892a                	mv	s2,a0
    609a:	85aa                	mv	a1,a0
    609c:	8522                	mv	a0,s0
    609e:	89b2                	mv	s3,a2
    60a0:	44d000ef          	jal	ra,6cec <ip_addr_isbroadcast>
    60a4:	f165                	bnez	a0,6084 <update_arp_entry+0x22>
    60a6:	301c                	lbu	a5,1(s0)
    60a8:	2004                	lbu	s1,0(s0)
    60aa:	f0000537          	lui	a0,0xf0000
    60ae:	07a2                	slli	a5,a5,0x8
    60b0:	8fc5                	or	a5,a5,s1
    60b2:	2024                	lbu	s1,2(s0)
    60b4:	04c2                	slli	s1,s1,0x10
    60b6:	8fc5                	or	a5,a5,s1
    60b8:	3024                	lbu	s1,3(s0)
    60ba:	04e2                	slli	s1,s1,0x18
    60bc:	8cdd                	or	s1,s1,a5
    60be:	7ac000ef          	jal	ra,686a <ntohl>
    60c2:	8ce9                	and	s1,s1,a0
    60c4:	e0000537          	lui	a0,0xe0000
    60c8:	7a2000ef          	jal	ra,686a <ntohl>
    60cc:	faa48ce3          	beq	s1,a0,6084 <update_arp_entry+0x22>
    60d0:	85d2                	mv	a1,s4
    60d2:	8522                	mv	a0,s0
    60d4:	e11ff0ef          	jal	ra,5ee4 <find_entry>
    60d8:	87aa                	mv	a5,a0
    60da:	fa0546e3          	bltz	a0,6086 <update_arp_entry+0x24>
    60de:	47e1                	li	a5,24
    60e0:	02f507b3          	mul	a5,a0,a5
    60e4:	8301a503          	lw	a0,-2000(gp) # 20000130 <arp_table>
    60e8:	953e                	add	a0,a0,a5
    60ea:	4789                	li	a5,2
    60ec:	c55c                	sw	a5,12(a0)
    60ee:	01252a23          	sw	s2,20(a0) # e0000014 <__freertos_irq_stack_top+0xbfff0014>
    60f2:	00598793          	addi	a5,s3,5
    60f6:	00950713          	addi	a4,a0,9
    60fa:	2394                	lbu	a3,0(a5)
    60fc:	177d                	addi	a4,a4,-1
    60fe:	b314                	sb	a3,1(a4)
    6100:	fff78693          	addi	a3,a5,-1
    6104:	00f99663          	bne	s3,a5,6110 <update_arp_entry+0xae>
    6108:	00050823          	sb	zero,16(a0)
    610c:	4781                	li	a5,0
    610e:	bfa5                	j	6086 <update_arp_entry+0x24>
    6110:	87b6                	mv	a5,a3
    6112:	b7e5                	j	60fa <update_arp_entry+0x98>

00006114 <etharp_tmr>:
    6114:	2000a7b7          	lui	a5,0x2000a
    6118:	3687a503          	lw	a0,872(a5) # 2000a368 <WCHCfg+0xc>
    611c:	8301a803          	lw	a6,-2000(gp) # 20000130 <arp_table>
    6120:	4701                	li	a4,0
    6122:	48e1                	li	a7,24
    6124:	4309                	li	t1,2
    6126:	4605                	li	a2,1
    6128:	0ef00e13          	li	t3,239
    612c:	00a76363          	bltu	a4,a0,6132 <etharp_tmr+0x1e>
    6130:	8082                	ret
    6132:	031706b3          	mul	a3,a4,a7
    6136:	96c2                	add	a3,a3,a6
    6138:	2a9c                	lbu	a5,16(a3)
    613a:	46cc                	lw	a1,12(a3)
    613c:	0785                	addi	a5,a5,1
    613e:	0ff7f793          	andi	a5,a5,255
    6142:	aa9c                	sb	a5,16(a3)
    6144:	00659863          	bne	a1,t1,6154 <etharp_tmr+0x40>
    6148:	00fe6a63          	bltu	t3,a5,615c <etharp_tmr+0x48>
    614c:	0705                	addi	a4,a4,1
    614e:	0ff77713          	andi	a4,a4,255
    6152:	bfe9                	j	612c <etharp_tmr+0x18>
    6154:	fec59ce3          	bne	a1,a2,614c <etharp_tmr+0x38>
    6158:	fef67ae3          	bgeu	a2,a5,614c <etharp_tmr+0x38>
    615c:	0006a623          	sw	zero,12(a3)
    6160:	b7f5                	j	614c <etharp_tmr+0x38>

00006162 <etharp_ip_input>:
    6162:	cd21                	beqz	a0,61ba <etharp_ip_input+0x58>
    6164:	bb2fa2ef          	jal	t0,516 <__riscv_save_0>
    6168:	41c4                	lw	s1,4(a1)
    616a:	842a                	mv	s0,a0
    616c:	34dc                	lbu	a5,13(s1)
    616e:	24c8                	lbu	a0,12(s1)
    6170:	07a2                	slli	a5,a5,0x8
    6172:	8d5d                	or	a0,a0,a5
    6174:	6b6000ef          	jal	ra,682a <htons>
    6178:	67a1                	lui	a5,0x8
    617a:	10078793          	addi	a5,a5,256 # 8100 <tcp_bind+0x34>
    617e:	01248593          	addi	a1,s1,18
    6182:	00f50463          	beq	a0,a5,618a <etharp_ip_input+0x28>
    6186:	00e48593          	addi	a1,s1,14
    618a:	35d8                	lbu	a4,13(a1)
    618c:	25dc                	lbu	a5,12(a1)
    618e:	0722                	slli	a4,a4,0x8
    6190:	8f5d                	or	a4,a4,a5
    6192:	25fc                	lbu	a5,14(a1)
    6194:	07c2                	slli	a5,a5,0x10
    6196:	8f5d                	or	a4,a4,a5
    6198:	35fc                	lbu	a5,15(a1)
    619a:	07e2                	slli	a5,a5,0x18
    619c:	8fd9                	or	a5,a5,a4
    619e:	4058                	lw	a4,4(s0)
    61a0:	8fb9                	xor	a5,a5,a4
    61a2:	4418                	lw	a4,8(s0)
    61a4:	8ff9                	and	a5,a5,a4
    61a6:	eb81                	bnez	a5,61b6 <etharp_ip_input+0x54>
    61a8:	4681                	li	a3,0
    61aa:	00648613          	addi	a2,s1,6
    61ae:	05b1                	addi	a1,a1,12
    61b0:	8522                	mv	a0,s0
    61b2:	eb1ff0ef          	jal	ra,6062 <update_arp_entry>
    61b6:	b84fa06f          	j	53a <__riscv_restore_0>
    61ba:	8082                	ret

000061bc <etharp_arp_input>:
    61bc:	16050363          	beqz	a0,6322 <etharp_arp_input+0x166>
    61c0:	b3cfa2ef          	jal	t0,4fc <__riscv_save_4>
    61c4:	263a                	lhu	a4,10(a2)
    61c6:	02900793          	li	a5,41
    61ca:	1141                	addi	sp,sp,-16
    61cc:	89b2                	mv	s3,a2
    61ce:	8a2e                	mv	s4,a1
    61d0:	84aa                	mv	s1,a0
    61d2:	00e7e863          	bltu	a5,a4,61e2 <etharp_arp_input+0x26>
    61d6:	854e                	mv	a0,s3
    61d8:	22f010ef          	jal	ra,7c06 <pbuf_free>
    61dc:	0141                	addi	sp,sp,16
    61de:	b52fa06f          	j	530 <__riscv_restore_4>
    61e2:	00462903          	lw	s2,4(a2)
    61e6:	00d94783          	lbu	a5,13(s2)
    61ea:	00c94503          	lbu	a0,12(s2)
    61ee:	01290413          	addi	s0,s2,18
    61f2:	07a2                	slli	a5,a5,0x8
    61f4:	8d5d                	or	a0,a0,a5
    61f6:	2d15                	jal	682a <htons>
    61f8:	67a1                	lui	a5,0x8
    61fa:	10078793          	addi	a5,a5,256 # 8100 <tcp_bind+0x34>
    61fe:	00f50463          	beq	a0,a5,6206 <etharp_arp_input+0x4a>
    6202:	00e90413          	addi	s0,s2,14
    6206:	00144a83          	lbu	s5,1(s0)
    620a:	201c                	lbu	a5,0(s0)
    620c:	4505                	li	a0,1
    620e:	0aa2                	slli	s5,s5,0x8
    6210:	00faeab3          	or	s5,s5,a5
    6214:	2d19                	jal	682a <htons>
    6216:	fcaa90e3          	bne	s5,a0,61d6 <etharp_arp_input+0x1a>
    621a:	00544a83          	lbu	s5,5(s0)
    621e:	205c                	lbu	a5,4(s0)
    6220:	60400513          	li	a0,1540
    6224:	0aa2                	slli	s5,s5,0x8
    6226:	00faeab3          	or	s5,s5,a5
    622a:	2501                	jal	682a <htons>
    622c:	faaa95e3          	bne	s5,a0,61d6 <etharp_arp_input+0x1a>
    6230:	00344a83          	lbu	s5,3(s0)
    6234:	203c                	lbu	a5,2(s0)
    6236:	6505                	lui	a0,0x1
    6238:	0aa2                	slli	s5,s5,0x8
    623a:	80050513          	addi	a0,a0,-2048 # 800 <__stack_size>
    623e:	00faeab3          	or	s5,s5,a5
    6242:	23e5                	jal	682a <htons>
    6244:	f8aa99e3          	bne	s5,a0,61d6 <etharp_arp_input+0x1a>
    6248:	00e40a93          	addi	s5,s0,14
    624c:	4611                	li	a2,4
    624e:	85d6                	mv	a1,s5
    6250:	0068                	addi	a0,sp,12
    6252:	384050ef          	jal	ra,b5d6 <memcpy>
    6256:	40d4                	lw	a3,4(s1)
    6258:	00840613          	addi	a2,s0,8
    625c:	c2ad                	beqz	a3,62be <etharp_arp_input+0x102>
    625e:	3c18                	lbu	a4,25(s0)
    6260:	2c1c                	lbu	a5,24(s0)
    6262:	0722                	slli	a4,a4,0x8
    6264:	8f5d                	or	a4,a4,a5
    6266:	2c3c                	lbu	a5,26(s0)
    6268:	07c2                	slli	a5,a5,0x10
    626a:	8f5d                	or	a4,a4,a5
    626c:	3c3c                	lbu	a5,27(s0)
    626e:	07e2                	slli	a5,a5,0x18
    6270:	8fd9                	or	a5,a5,a4
    6272:	04f69663          	bne	a3,a5,62be <etharp_arp_input+0x102>
    6276:	4685                	li	a3,1
    6278:	006c                	addi	a1,sp,12
    627a:	8526                	mv	a0,s1
    627c:	de7ff0ef          	jal	ra,6062 <update_arp_entry>
    6280:	4b05                	li	s6,1
    6282:	307c                	lbu	a5,7(s0)
    6284:	2068                	lbu	a0,6(s0)
    6286:	07a2                	slli	a5,a5,0x8
    6288:	8d5d                	or	a0,a0,a5
    628a:	2345                	jal	682a <htons>
    628c:	4785                	li	a5,1
    628e:	02f50f63          	beq	a0,a5,62cc <etharp_arp_input+0x110>
    6292:	4789                	li	a5,2
    6294:	f4f511e3          	bne	a0,a5,61d6 <etharp_arp_input+0x1a>
    6298:	006c                	addi	a1,sp,12
    629a:	8526                	mv	a0,s1
    629c:	332010ef          	jal	ra,75ce <dhcp_arp_reply>
    62a0:	2000a7b7          	lui	a5,0x2000a
    62a4:	2a07a703          	lw	a4,672(a5) # 2000a2a0 <DHCPCtrl>
    62a8:	f20707e3          	beqz	a4,61d6 <etharp_arp_input+0x1a>
    62ac:	2a078793          	addi	a5,a5,672
    62b0:	47dc                	lw	a5,12(a5)
    62b2:	f20782e3          	beqz	a5,61d6 <etharp_arp_input+0x1a>
    62b6:	006c                	addi	a1,sp,12
    62b8:	8526                	mv	a0,s1
    62ba:	9782                	jalr	a5
    62bc:	bf29                	j	61d6 <etharp_arp_input+0x1a>
    62be:	4681                	li	a3,0
    62c0:	006c                	addi	a1,sp,12
    62c2:	8526                	mv	a0,s1
    62c4:	d9fff0ef          	jal	ra,6062 <update_arp_entry>
    62c8:	4b01                	li	s6,0
    62ca:	bf65                	j	6282 <etharp_arp_input+0xc6>
    62cc:	f00b05e3          	beqz	s6,61d6 <etharp_arp_input+0x1a>
    62d0:	4509                	li	a0,2
    62d2:	2ba1                	jal	682a <htons>
    62d4:	a068                	sb	a0,6(s0)
    62d6:	8121                	srli	a0,a0,0x8
    62d8:	b068                	sb	a0,7(s0)
    62da:	4611                	li	a2,4
    62dc:	85d6                	mv	a1,s5
    62de:	01840513          	addi	a0,s0,24
    62e2:	2f4050ef          	jal	ra,b5d6 <memcpy>
    62e6:	4611                	li	a2,4
    62e8:	00448593          	addi	a1,s1,4
    62ec:	8556                	mv	a0,s5
    62ee:	2e8050ef          	jal	ra,b5d6 <memcpy>
    62f2:	0435                	addi	s0,s0,13
    62f4:	0915                	addi	s2,s2,5
    62f6:	4795                	li	a5,5
    62f8:	56fd                	li	a3,-1
    62fa:	2018                	lbu	a4,0(s0)
    62fc:	197d                	addi	s2,s2,-1
    62fe:	147d                	addi	s0,s0,-1
    6300:	b438                	sb	a4,11(s0)
    6302:	00e900a3          	sb	a4,1(s2)
    6306:	00fa0733          	add	a4,s4,a5
    630a:	2318                	lbu	a4,0(a4)
    630c:	17fd                	addi	a5,a5,-1
    630e:	b018                	sb	a4,1(s0)
    6310:	00e903a3          	sb	a4,7(s2)
    6314:	fed793e3          	bne	a5,a3,62fa <etharp_arp_input+0x13e>
    6318:	4c9c                	lw	a5,24(s1)
    631a:	85ce                	mv	a1,s3
    631c:	8526                	mv	a0,s1
    631e:	9782                	jalr	a5
    6320:	bd5d                	j	61d6 <etharp_arp_input+0x1a>
    6322:	8082                	ret

00006324 <etharp_request>:
    6324:	9d8fa2ef          	jal	t0,4fc <__riscv_save_4>
    6328:	892a                	mv	s2,a0
    632a:	89ae                	mv	s3,a1
    632c:	4601                	li	a2,0
    632e:	02a00593          	li	a1,42
    6332:	450d                	li	a0,3
    6334:	121010ef          	jal	ra,7c54 <pbuf_alloc>
    6338:	547d                	li	s0,-1
    633a:	c94d                	beqz	a0,63ec <etharp_request+0xc8>
    633c:	4140                	lw	s0,4(a0)
    633e:	84aa                	mv	s1,a0
    6340:	4505                	li	a0,1
    6342:	21e5                	jal	682a <htons>
    6344:	a848                	sb	a0,20(s0)
    6346:	8121                	srli	a0,a0,0x8
    6348:	b848                	sb	a0,21(s0)
    634a:	02e90693          	addi	a3,s2,46
    634e:	00540793          	addi	a5,s0,5
    6352:	4715                	li	a4,5
    6354:	86018593          	addi	a1,gp,-1952 # 20000160 <ethzero>
    6358:	85818613          	addi	a2,gp,-1960 # 20000158 <ethbroadcast>
    635c:	557d                	li	a0,-1
    635e:	0006c803          	lbu	a6,0(a3)
    6362:	17fd                	addi	a5,a5,-1
    6364:	16fd                	addi	a3,a3,-1
    6366:	01078ba3          	sb	a6,23(a5)
    636a:	00e58833          	add	a6,a1,a4
    636e:	00084803          	lbu	a6,0(a6)
    6372:	030780a3          	sb	a6,33(a5)
    6376:	00e60833          	add	a6,a2,a4
    637a:	00084803          	lbu	a6,0(a6)
    637e:	177d                	addi	a4,a4,-1
    6380:	010780a3          	sb	a6,1(a5)
    6384:	0016c803          	lbu	a6,1(a3)
    6388:	010783a3          	sb	a6,7(a5)
    638c:	fca719e3          	bne	a4,a0,635e <etharp_request+0x3a>
    6390:	4611                	li	a2,4
    6392:	00490593          	addi	a1,s2,4
    6396:	01c40513          	addi	a0,s0,28
    639a:	23c050ef          	jal	ra,b5d6 <memcpy>
    639e:	85ce                	mv	a1,s3
    63a0:	4611                	li	a2,4
    63a2:	02640513          	addi	a0,s0,38
    63a6:	230050ef          	jal	ra,b5d6 <memcpy>
    63aa:	4505                	li	a0,1
    63ac:	29bd                	jal	682a <htons>
    63ae:	a468                	sb	a0,14(s0)
    63b0:	6985                	lui	s3,0x1
    63b2:	8121                	srli	a0,a0,0x8
    63b4:	b468                	sb	a0,15(s0)
    63b6:	80098513          	addi	a0,s3,-2048 # 800 <__stack_size>
    63ba:	2985                	jal	682a <htons>
    63bc:	a808                	sb	a0,16(s0)
    63be:	8121                	srli	a0,a0,0x8
    63c0:	b808                	sb	a0,17(s0)
    63c2:	60400513          	li	a0,1540
    63c6:	2195                	jal	682a <htons>
    63c8:	a828                	sb	a0,18(s0)
    63ca:	8121                	srli	a0,a0,0x8
    63cc:	b828                	sb	a0,19(s0)
    63ce:	80698513          	addi	a0,s3,-2042
    63d2:	29a1                	jal	682a <htons>
    63d4:	01892783          	lw	a5,24(s2)
    63d8:	a448                	sb	a0,12(s0)
    63da:	8121                	srli	a0,a0,0x8
    63dc:	b448                	sb	a0,13(s0)
    63de:	85a6                	mv	a1,s1
    63e0:	854a                	mv	a0,s2
    63e2:	9782                	jalr	a5
    63e4:	842a                	mv	s0,a0
    63e6:	8526                	mv	a0,s1
    63e8:	01f010ef          	jal	ra,7c06 <pbuf_free>
    63ec:	8522                	mv	a0,s0
    63ee:	942fa06f          	j	530 <__riscv_restore_4>

000063f2 <etharp_query>:
    63f2:	90afa2ef          	jal	t0,4fc <__riscv_save_4>
    63f6:	842e                	mv	s0,a1
    63f8:	892a                	mv	s2,a0
    63fa:	85aa                	mv	a1,a0
    63fc:	8522                	mv	a0,s0
    63fe:	89b2                	mv	s3,a2
    6400:	0ed000ef          	jal	ra,6cec <ip_addr_isbroadcast>
    6404:	c501                	beqz	a0,640c <etharp_query+0x1a>
    6406:	5559                	li	a0,-10
    6408:	928fa06f          	j	530 <__riscv_restore_4>
    640c:	301c                	lbu	a5,1(s0)
    640e:	2004                	lbu	s1,0(s0)
    6410:	f0000537          	lui	a0,0xf0000
    6414:	07a2                	slli	a5,a5,0x8
    6416:	8fc5                	or	a5,a5,s1
    6418:	2024                	lbu	s1,2(s0)
    641a:	04c2                	slli	s1,s1,0x10
    641c:	8fc5                	or	a5,a5,s1
    641e:	3024                	lbu	s1,3(s0)
    6420:	04e2                	slli	s1,s1,0x18
    6422:	8cdd                	or	s1,s1,a5
    6424:	2199                	jal	686a <ntohl>
    6426:	8ce9                	and	s1,s1,a0
    6428:	e0000537          	lui	a0,0xe0000
    642c:	293d                	jal	686a <ntohl>
    642e:	fca48ce3          	beq	s1,a0,6406 <etharp_query+0x14>
    6432:	3018                	lbu	a4,1(s0)
    6434:	201c                	lbu	a5,0(s0)
    6436:	0722                	slli	a4,a4,0x8
    6438:	8f5d                	or	a4,a4,a5
    643a:	203c                	lbu	a5,2(s0)
    643c:	07c2                	slli	a5,a5,0x10
    643e:	8f5d                	or	a4,a4,a5
    6440:	303c                	lbu	a5,3(s0)
    6442:	07e2                	slli	a5,a5,0x18
    6444:	8fd9                	or	a5,a5,a4
    6446:	d3e1                	beqz	a5,6406 <etharp_query+0x14>
    6448:	4585                	li	a1,1
    644a:	8522                	mv	a0,s0
    644c:	a99ff0ef          	jal	ra,5ee4 <find_entry>
    6450:	fa054ce3          	bltz	a0,6408 <etharp_query+0x16>
    6454:	47e1                	li	a5,24
    6456:	02f504b3          	mul	s1,a0,a5
    645a:	8301a703          	lw	a4,-2000(gp) # 20000130 <arp_table>
    645e:	83018a13          	addi	s4,gp,-2000 # 20000130 <arp_table>
    6462:	4785                	li	a5,1
    6464:	9726                	add	a4,a4,s1
    6466:	4754                	lw	a3,12(a4)
    6468:	ea99                	bnez	a3,647e <etharp_query+0x8c>
    646a:	c75c                	sw	a5,12(a4)
    646c:	a6dff0ef          	jal	ra,5ed8 <LwipArpCheck>
    6470:	85a2                	mv	a1,s0
    6472:	854a                	mv	a0,s2
    6474:	eb1ff0ef          	jal	ra,6324 <etharp_request>
    6478:	f80988e3          	beqz	s3,6408 <etharp_query+0x16>
    647c:	a031                	j	6488 <etharp_query+0x96>
    647e:	fef687e3          	beq	a3,a5,646c <etharp_query+0x7a>
    6482:	557d                	li	a0,-1
    6484:	fe0984e3          	beqz	s3,646c <etharp_query+0x7a>
    6488:	000a2783          	lw	a5,0(s4)
    648c:	4709                	li	a4,2
    648e:	97a6                	add	a5,a5,s1
    6490:	47d4                	lw	a3,12(a5)
    6492:	f6e69be3          	bne	a3,a4,6408 <etharp_query+0x16>
    6496:	0049a403          	lw	s0,4(s3)
    649a:	00978713          	addi	a4,a5,9
    649e:	02e90613          	addi	a2,s2,46
    64a2:	00540693          	addi	a3,s0,5
    64a6:	078d                	addi	a5,a5,3
    64a8:	230c                	lbu	a1,0(a4)
    64aa:	177d                	addi	a4,a4,-1
    64ac:	16fd                	addi	a3,a3,-1
    64ae:	b28c                	sb	a1,1(a3)
    64b0:	220c                	lbu	a1,0(a2)
    64b2:	167d                	addi	a2,a2,-1
    64b4:	b2ec                	sb	a1,7(a3)
    64b6:	fef719e3          	bne	a4,a5,64a8 <etharp_query+0xb6>
    64ba:	6505                	lui	a0,0x1
    64bc:	80050513          	addi	a0,a0,-2048 # 800 <__stack_size>
    64c0:	26ad                	jal	682a <htons>
    64c2:	01892783          	lw	a5,24(s2)
    64c6:	a448                	sb	a0,12(s0)
    64c8:	8121                	srli	a0,a0,0x8
    64ca:	b448                	sb	a0,13(s0)
    64cc:	85ce                	mv	a1,s3
    64ce:	854a                	mv	a0,s2
    64d0:	9782                	jalr	a5
    64d2:	bf1d                	j	6408 <etharp_query+0x16>

000064d4 <etharp_output>:
    64d4:	828fa2ef          	jal	t0,4fc <__riscv_save_4>
    64d8:	84ae                	mv	s1,a1
    64da:	1141                	addi	sp,sp,-16
    64dc:	892a                	mv	s2,a0
    64de:	45b9                	li	a1,14
    64e0:	8526                	mv	a0,s1
    64e2:	8432                	mv	s0,a2
    64e4:	6b4010ef          	jal	ra,7b98 <pbuf_header>
    64e8:	10051e63          	bnez	a0,6604 <etharp_output+0x130>
    64ec:	85ca                	mv	a1,s2
    64ee:	8522                	mv	a0,s0
    64f0:	7fc000ef          	jal	ra,6cec <ip_addr_isbroadcast>
    64f4:	10051563          	bnez	a0,65fe <etharp_output+0x12a>
    64f8:	301c                	lbu	a5,1(s0)
    64fa:	00044983          	lbu	s3,0(s0)
    64fe:	f0000537          	lui	a0,0xf0000
    6502:	07a2                	slli	a5,a5,0x8
    6504:	0137e7b3          	or	a5,a5,s3
    6508:	00244983          	lbu	s3,2(s0)
    650c:	09c2                	slli	s3,s3,0x10
    650e:	00f9e7b3          	or	a5,s3,a5
    6512:	00344983          	lbu	s3,3(s0)
    6516:	09e2                	slli	s3,s3,0x18
    6518:	00f9e9b3          	or	s3,s3,a5
    651c:	26b9                	jal	686a <ntohl>
    651e:	00a9f9b3          	and	s3,s3,a0
    6522:	e0000537          	lui	a0,0xe0000
    6526:	2691                	jal	686a <ntohl>
    6528:	2010                	lbu	a2,0(s0)
    652a:	3014                	lbu	a3,1(s0)
    652c:	2038                	lbu	a4,2(s0)
    652e:	303c                	lbu	a5,3(s0)
    6530:	08a99c63          	bne	s3,a0,65c8 <etharp_output+0xf4>
    6534:	00869513          	slli	a0,a3,0x8
    6538:	8d51                	or	a0,a0,a2
    653a:	0742                	slli	a4,a4,0x10
    653c:	8d59                	or	a0,a0,a4
    653e:	07e2                	slli	a5,a5,0x18
    6540:	4585                	li	a1,1
    6542:	846c                	sh	a1,8(sp)
    6544:	8d5d                	or	a0,a0,a5
    6546:	05e00593          	li	a1,94
    654a:	854c                	sb	a1,10(sp)
    654c:	2e39                	jal	686a <ntohl>
    654e:	8141                	srli	a0,a0,0x10
    6550:	07f57513          	andi	a0,a0,127
    6554:	85c8                	sb	a0,11(sp)
    6556:	3008                	lbu	a0,1(s0)
    6558:	201c                	lbu	a5,0(s0)
    655a:	0522                	slli	a0,a0,0x8
    655c:	8d5d                	or	a0,a0,a5
    655e:	203c                	lbu	a5,2(s0)
    6560:	07c2                	slli	a5,a5,0x10
    6562:	8fc9                	or	a5,a5,a0
    6564:	3028                	lbu	a0,3(s0)
    6566:	0562                	slli	a0,a0,0x18
    6568:	8d5d                	or	a0,a0,a5
    656a:	2601                	jal	686a <ntohl>
    656c:	8121                	srli	a0,a0,0x8
    656e:	8648                	sb	a0,12(sp)
    6570:	3008                	lbu	a0,1(s0)
    6572:	201c                	lbu	a5,0(s0)
    6574:	0522                	slli	a0,a0,0x8
    6576:	8d5d                	or	a0,a0,a5
    6578:	203c                	lbu	a5,2(s0)
    657a:	07c2                	slli	a5,a5,0x10
    657c:	8fc9                	or	a5,a5,a0
    657e:	3028                	lbu	a0,3(s0)
    6580:	0562                	slli	a0,a0,0x18
    6582:	8d5d                	or	a0,a0,a5
    6584:	24dd                	jal	686a <ntohl>
    6586:	86c8                	sb	a0,13(sp)
    6588:	0034                	addi	a3,sp,8
    658a:	40c0                	lw	s0,4(s1)
    658c:	4795                	li	a5,5
    658e:	567d                	li	a2,-1
    6590:	00540713          	addi	a4,s0,5
    6594:	00f685b3          	add	a1,a3,a5
    6598:	218c                	lbu	a1,0(a1)
    659a:	177d                	addi	a4,a4,-1
    659c:	b30c                	sb	a1,1(a4)
    659e:	00f905b3          	add	a1,s2,a5
    65a2:	0295c583          	lbu	a1,41(a1)
    65a6:	17fd                	addi	a5,a5,-1
    65a8:	b36c                	sb	a1,7(a4)
    65aa:	fec795e3          	bne	a5,a2,6594 <etharp_output+0xc0>
    65ae:	6505                	lui	a0,0x1
    65b0:	80050513          	addi	a0,a0,-2048 # 800 <__stack_size>
    65b4:	2c9d                	jal	682a <htons>
    65b6:	01892783          	lw	a5,24(s2)
    65ba:	a448                	sb	a0,12(s0)
    65bc:	8121                	srli	a0,a0,0x8
    65be:	b448                	sb	a0,13(s0)
    65c0:	85a6                	mv	a1,s1
    65c2:	854a                	mv	a0,s2
    65c4:	9782                	jalr	a5
    65c6:	a80d                	j	65f8 <etharp_output+0x124>
    65c8:	06a2                	slli	a3,a3,0x8
    65ca:	8ed1                	or	a3,a3,a2
    65cc:	0742                	slli	a4,a4,0x10
    65ce:	8f55                	or	a4,a4,a3
    65d0:	07e2                	slli	a5,a5,0x18
    65d2:	8fd9                	or	a5,a5,a4
    65d4:	00492703          	lw	a4,4(s2)
    65d8:	8fb9                	xor	a5,a5,a4
    65da:	00892703          	lw	a4,8(s2)
    65de:	8ff9                	and	a5,a5,a4
    65e0:	c799                	beqz	a5,65ee <etharp_output+0x11a>
    65e2:	00c92783          	lw	a5,12(s2)
    65e6:	5571                	li	a0,-4
    65e8:	cb81                	beqz	a5,65f8 <etharp_output+0x124>
    65ea:	00c90413          	addi	s0,s2,12
    65ee:	8626                	mv	a2,s1
    65f0:	85a2                	mv	a1,s0
    65f2:	854a                	mv	a0,s2
    65f4:	dffff0ef          	jal	ra,63f2 <etharp_query>
    65f8:	0141                	addi	sp,sp,16
    65fa:	f37f906f          	j	530 <__riscv_restore_4>
    65fe:	85818693          	addi	a3,gp,-1960 # 20000158 <ethbroadcast>
    6602:	b761                	j	658a <etharp_output+0xb6>
    6604:	5579                	li	a0,-2
    6606:	bfcd                	j	65f8 <etharp_output+0x124>

00006608 <ethernet_input>:
    6608:	f0ff92ef          	jal	t0,516 <__riscv_save_0>
    660c:	4144                	lw	s1,4(a0)
    660e:	842a                	mv	s0,a0
    6610:	892e                	mv	s2,a1
    6612:	34dc                	lbu	a5,13(s1)
    6614:	24c8                	lbu	a0,12(s1)
    6616:	07a2                	slli	a5,a5,0x8
    6618:	8d5d                	or	a0,a0,a5
    661a:	2c01                	jal	682a <htons>
    661c:	67a1                	lui	a5,0x8
    661e:	10078793          	addi	a5,a5,256 # 8100 <tcp_bind+0x34>
    6622:	00f51763          	bne	a0,a5,6630 <ethernet_input+0x28>
    6626:	389c                	lbu	a5,17(s1)
    6628:	2888                	lbu	a0,16(s1)
    662a:	07a2                	slli	a5,a5,0x8
    662c:	8d5d                	or	a0,a0,a5
    662e:	2af5                	jal	682a <htons>
    6630:	80050793          	addi	a5,a0,-2048
    6634:	cb91                	beqz	a5,6648 <ethernet_input+0x40>
    6636:	6785                	lui	a5,0x1
    6638:	80678793          	addi	a5,a5,-2042 # 806 <__stack_size+0x6>
    663c:	04f50263          	beq	a0,a5,6680 <ethernet_input+0x78>
    6640:	8522                	mv	a0,s0
    6642:	5c4010ef          	jal	ra,7c06 <pbuf_free>
    6646:	a815                	j	667a <ethernet_input+0x72>
    6648:	85a2                	mv	a1,s0
    664a:	854a                	mv	a0,s2
    664c:	b17ff0ef          	jal	ra,6162 <etharp_ip_input>
    6650:	34dc                	lbu	a5,13(s1)
    6652:	24c8                	lbu	a0,12(s1)
    6654:	07a2                	slli	a5,a5,0x8
    6656:	8d5d                	or	a0,a0,a5
    6658:	2ac9                	jal	682a <htons>
    665a:	67a1                	lui	a5,0x8
    665c:	10078793          	addi	a5,a5,256 # 8100 <tcp_bind+0x34>
    6660:	45b9                	li	a1,14
    6662:	00f51363          	bne	a0,a5,6668 <ethernet_input+0x60>
    6666:	45c9                	li	a1,18
    6668:	40b005b3          	neg	a1,a1
    666c:	8522                	mv	a0,s0
    666e:	52a010ef          	jal	ra,7b98 <pbuf_header>
    6672:	f579                	bnez	a0,6640 <ethernet_input+0x38>
    6674:	85ca                	mv	a1,s2
    6676:	8522                	mv	a0,s0
    6678:	24a9                	jal	68c2 <ip_input>
    667a:	4501                	li	a0,0
    667c:	ebff906f          	j	53a <__riscv_restore_0>
    6680:	8622                	mv	a2,s0
    6682:	02990593          	addi	a1,s2,41
    6686:	854a                	mv	a0,s2
    6688:	b35ff0ef          	jal	ra,61bc <etharp_arp_input>
    668c:	b7fd                	j	667a <ethernet_input+0x72>

0000668e <ethernetif_init>:
    668e:	e89f92ef          	jal	t0,516 <__riscv_save_0>
    6692:	2000a7b7          	lui	a5,0x2000a
    6696:	2b878793          	addi	a5,a5,696 # 2000a2b8 <dhcp_host_name>
    669a:	d15c                	sw	a5,36(a0)
    669c:	06500793          	li	a5,101
    66a0:	02f509a3          	sb	a5,51(a0)
    66a4:	06e00793          	li	a5,110
    66a8:	02f50a23          	sb	a5,52(a0)
    66ac:	000067b7          	lui	a5,0x6
    66b0:	4d478793          	addi	a5,a5,1236 # 64d4 <etharp_output>
    66b4:	c95c                	sw	a5,20(a0)
    66b6:	000067b7          	lui	a5,0x6
    66ba:	6f278793          	addi	a5,a5,1778 # 66f2 <low_level_output>
    66be:	cd1c                	sw	a5,24(a0)
    66c0:	2000a5b7          	lui	a1,0x2000a
    66c4:	4799                	li	a5,6
    66c6:	842a                	mv	s0,a0
    66c8:	02f50423          	sb	a5,40(a0)
    66cc:	00052e23          	sw	zero,28(a0)
    66d0:	4619                	li	a2,6
    66d2:	3b158593          	addi	a1,a1,945 # 2000a3b1 <WCHNetIf+0x29>
    66d6:	02950513          	addi	a0,a0,41
    66da:	6fd040ef          	jal	ra,b5d6 <memcpy>
    66de:	5dc00793          	li	a5,1500
    66e2:	b81e                	sh	a5,48(s0)
    66e4:	03300793          	li	a5,51
    66e8:	02f40923          	sb	a5,50(s0)
    66ec:	4501                	li	a0,0
    66ee:	e4df906f          	j	53a <__riscv_restore_0>

000066f2 <low_level_output>:
    66f2:	e25f92ef          	jal	t0,516 <__riscv_save_0>
    66f6:	64b1                	lui	s1,0xc
    66f8:	842e                	mv	s0,a1
    66fa:	35148493          	addi	s1,s1,849 # c351 <__sfp+0x69>
    66fe:	d98ff0ef          	jal	ra,5c96 <WCHNET_GetPHYStatus>
    6702:	8911                	andi	a0,a0,4
    6704:	cd15                	beqz	a0,6740 <low_level_output+0x4e>
    6706:	14fd                	addi	s1,s1,-1
    6708:	cc85                	beqz	s1,6740 <low_level_output+0x4e>
    670a:	ebafe0ef          	jal	ra,4dc4 <getTxBuffAddr>
    670e:	892a                	mv	s2,a0
    6710:	d57d                	beqz	a0,66fe <low_level_output+0xc>
    6712:	87aa                	mv	a5,a0
    6714:	4481                	li	s1,0
    6716:	e801                	bnez	s0,6726 <low_level_output+0x34>
    6718:	85ca                	mv	a1,s2
    671a:	8526                	mv	a0,s1
    671c:	e72fe0ef          	jal	ra,4d8e <WCHNET_Tx>
    6720:	4501                	li	a0,0
    6722:	e19f906f          	j	53a <__riscv_restore_0>
    6726:	2432                	lhu	a2,10(s0)
    6728:	404c                	lw	a1,4(s0)
    672a:	853e                	mv	a0,a5
    672c:	6ab040ef          	jal	ra,b5d6 <memcpy>
    6730:	243a                	lhu	a4,10(s0)
    6732:	4000                	lw	s0,0(s0)
    6734:	94ba                	add	s1,s1,a4
    6736:	04c2                	slli	s1,s1,0x10
    6738:	00e507b3          	add	a5,a0,a4
    673c:	80c1                	srli	s1,s1,0x10
    673e:	bfe1                	j	6716 <low_level_output+0x24>
    6740:	5551                	li	a0,-12
    6742:	b7c5                	j	6722 <low_level_output+0x30>

00006744 <ethernetif_input>:
    6744:	db9f92ef          	jal	t0,4fc <__riscv_save_4>
    6748:	2000a7b7          	lui	a5,0x2000a
    674c:	3807a783          	lw	a5,896(a5) # 2000a380 <WCHCfg+0x24>
    6750:	89aa                	mv	s3,a0
    6752:	9b018513          	addi	a0,gp,-1616 # 200002b0 <frame>
    6756:	9b018493          	addi	s1,gp,-1616 # 200002b0 <frame>
    675a:	9782                	jalr	a5
    675c:	408c                	lw	a1,0(s1)
    675e:	c9a9                	beqz	a1,67b0 <ethernetif_input+0x6c>
    6760:	9a51c783          	lbu	a5,-1627(gp) # 200002a5 <phydata>
    6764:	9b018413          	addi	s0,gp,-1616 # 200002b0 <frame>
    6768:	0ff7f793          	andi	a5,a5,255
    676c:	e781                	bnez	a5,6774 <ethernetif_input+0x30>
    676e:	4785                	li	a5,1
    6770:	9af182a3          	sb	a5,-1627(gp) # 200002a5 <phydata>
    6774:	05c2                	slli	a1,a1,0x10
    6776:	460d                	li	a2,3
    6778:	81c1                	srli	a1,a1,0x10
    677a:	450d                	li	a0,3
    677c:	4044                	lw	s1,4(s0)
    677e:	4d6010ef          	jal	ra,7c54 <pbuf_alloc>
    6782:	892a                	mv	s2,a0
    6784:	c515                	beqz	a0,67b0 <ethernetif_input+0x6c>
    6786:	842a                	mv	s0,a0
    6788:	2432                	lhu	a2,10(s0)
    678a:	4048                	lw	a0,4(s0)
    678c:	85a6                	mv	a1,s1
    678e:	649040ef          	jal	ra,b5d6 <memcpy>
    6792:	243e                	lhu	a5,10(s0)
    6794:	4000                	lw	s0,0(s0)
    6796:	94be                	add	s1,s1,a5
    6798:	f865                	bnez	s0,6788 <ethernetif_input+0x44>
    679a:	ddefe0ef          	jal	ra,4d78 <setRxBuffAddr>
    679e:	0109a783          	lw	a5,16(s3)
    67a2:	85ce                	mv	a1,s3
    67a4:	854a                	mv	a0,s2
    67a6:	9782                	jalr	a5
    67a8:	c501                	beqz	a0,67b0 <ethernetif_input+0x6c>
    67aa:	854a                	mv	a0,s2
    67ac:	45a010ef          	jal	ra,7c06 <pbuf_free>
    67b0:	d81f906f          	j	530 <__riscv_restore_4>

000067b4 <wch_ethernetif_init>:
    67b4:	d63f92ef          	jal	t0,516 <__riscv_save_0>
    67b8:	1141                	addi	sp,sp,-16
    67ba:	2000a437          	lui	s0,0x2000a
    67be:	c202                	sw	zero,4(sp)
    67c0:	c402                	sw	zero,8(sp)
    67c2:	c602                	sw	zero,12(sp)
    67c4:	78d000ef          	jal	ra,7750 <lwip_init>
    67c8:	38840513          	addi	a0,s0,904 # 2000a388 <WCHNetIf>
    67cc:	2000a5b7          	lui	a1,0x2000a
    67d0:	4619                	li	a2,6
    67d2:	32458593          	addi	a1,a1,804 # 2000a324 <NetInf+0xc>
    67d6:	02950513          	addi	a0,a0,41
    67da:	5fd040ef          	jal	ra,b5d6 <memcpy>
    67de:	2000a7b7          	lui	a5,0x2000a
    67e2:	3187a703          	lw	a4,792(a5) # 2000a318 <NetInf>
    67e6:	31878793          	addi	a5,a5,792
    67ea:	38840513          	addi	a0,s0,904
    67ee:	c23a                	sw	a4,4(sp)
    67f0:	4798                	lw	a4,8(a5)
    67f2:	43dc                	lw	a5,4(a5)
    67f4:	c43a                	sw	a4,8(sp)
    67f6:	c63e                	sw	a5,12(sp)
    67f8:	9c01a823          	sw	zero,-1584(gp) # 200002d0 <netif_list>
    67fc:	9c01a623          	sw	zero,-1588(gp) # 200002cc <netif_default>
    6800:	38a010ef          	jal	ra,7b8a <netif_set_default>
    6804:	00006837          	lui	a6,0x6
    6808:	000067b7          	lui	a5,0x6
    680c:	0074                	addi	a3,sp,12
    680e:	0030                	addi	a2,sp,8
    6810:	004c                	addi	a1,sp,4
    6812:	60880813          	addi	a6,a6,1544 # 6608 <ethernet_input>
    6816:	68e78793          	addi	a5,a5,1678 # 668e <ethernetif_init>
    681a:	4701                	li	a4,0
    681c:	38840513          	addi	a0,s0,904
    6820:	310010ef          	jal	ra,7b30 <netif_add>
    6824:	0141                	addi	sp,sp,16
    6826:	d15f906f          	j	53a <__riscv_restore_0>

0000682a <htons>:
    682a:	00851793          	slli	a5,a0,0x8
    682e:	8121                	srli	a0,a0,0x8
    6830:	8d5d                	or	a0,a0,a5
    6832:	0542                	slli	a0,a0,0x10
    6834:	8141                	srli	a0,a0,0x10
    6836:	8082                	ret

00006838 <ntohs>:
    6838:	00851793          	slli	a5,a0,0x8
    683c:	8121                	srli	a0,a0,0x8
    683e:	8d5d                	or	a0,a0,a5
    6840:	0542                	slli	a0,a0,0x10
    6842:	8141                	srli	a0,a0,0x10
    6844:	8082                	ret

00006846 <htonl>:
    6846:	01855713          	srli	a4,a0,0x18
    684a:	01851793          	slli	a5,a0,0x18
    684e:	8fd9                	or	a5,a5,a4
    6850:	00ff06b7          	lui	a3,0xff0
    6854:	00851713          	slli	a4,a0,0x8
    6858:	8f75                	and	a4,a4,a3
    685a:	8fd9                	or	a5,a5,a4
    685c:	6741                	lui	a4,0x10
    685e:	f0070713          	addi	a4,a4,-256 # ff00 <_data_lma+0x31e0>
    6862:	8121                	srli	a0,a0,0x8
    6864:	8d79                	and	a0,a0,a4
    6866:	8d5d                	or	a0,a0,a5
    6868:	8082                	ret

0000686a <ntohl>:
    686a:	cadf92ef          	jal	t0,516 <__riscv_save_0>
    686e:	fd9ff0ef          	jal	ra,6846 <htonl>
    6872:	cc9f906f          	j	53a <__riscv_restore_0>

00006876 <ip_route>:
    6876:	ca1f92ef          	jal	t0,516 <__riscv_save_0>
    687a:	9d01a403          	lw	s0,-1584(gp) # 200002d0 <netif_list>
    687e:	84aa                	mv	s1,a0
    6880:	ec01                	bnez	s0,6898 <ip_route+0x22>
    6882:	9cc1a503          	lw	a0,-1588(gp) # 200002cc <netif_default>
    6886:	c511                	beqz	a0,6892 <ip_route+0x1c>
    6888:	308010ef          	jal	ra,7b90 <netif_is_up>
    688c:	c119                	beqz	a0,6892 <ip_route+0x1c>
    688e:	9cc1a403          	lw	s0,-1588(gp) # 200002cc <netif_default>
    6892:	8522                	mv	a0,s0
    6894:	ca7f906f          	j	53a <__riscv_restore_0>
    6898:	8522                	mv	a0,s0
    689a:	2f6010ef          	jal	ra,7b90 <netif_is_up>
    689e:	c105                	beqz	a0,68be <ip_route+0x48>
    68a0:	3098                	lbu	a4,1(s1)
    68a2:	209c                	lbu	a5,0(s1)
    68a4:	0722                	slli	a4,a4,0x8
    68a6:	8f5d                	or	a4,a4,a5
    68a8:	20bc                	lbu	a5,2(s1)
    68aa:	07c2                	slli	a5,a5,0x10
    68ac:	8f5d                	or	a4,a4,a5
    68ae:	30bc                	lbu	a5,3(s1)
    68b0:	07e2                	slli	a5,a5,0x18
    68b2:	8fd9                	or	a5,a5,a4
    68b4:	4058                	lw	a4,4(s0)
    68b6:	8fb9                	xor	a5,a5,a4
    68b8:	4418                	lw	a4,8(s0)
    68ba:	8ff9                	and	a5,a5,a4
    68bc:	dbf9                	beqz	a5,6892 <ip_route+0x1c>
    68be:	4000                	lw	s0,0(s0)
    68c0:	b7c1                	j	6880 <ip_route+0xa>

000068c2 <ip_input>:
    68c2:	c2df92ef          	jal	t0,4ee <__riscv_save_10>
    68c6:	4140                	lw	s0,4(a0)
    68c8:	84aa                	mv	s1,a0
    68ca:	89ae                	mv	s3,a1
    68cc:	301c                	lbu	a5,1(s0)
    68ce:	2008                	lbu	a0,0(s0)
    68d0:	07a2                	slli	a5,a5,0x8
    68d2:	8d5d                	or	a0,a0,a5
    68d4:	f65ff0ef          	jal	ra,6838 <ntohs>
    68d8:	8131                	srli	a0,a0,0xc
    68da:	0542                	slli	a0,a0,0x10
    68dc:	8141                	srli	a0,a0,0x10
    68de:	4791                	li	a5,4
    68e0:	00f50663          	beq	a0,a5,68ec <ip_input+0x2a>
    68e4:	8526                	mv	a0,s1
    68e6:	320010ef          	jal	ra,7c06 <pbuf_free>
    68ea:	a431                	j	6af6 <ip_input+0x234>
    68ec:	301c                	lbu	a5,1(s0)
    68ee:	2008                	lbu	a0,0(s0)
    68f0:	07a2                	slli	a5,a5,0x8
    68f2:	8d5d                	or	a0,a0,a5
    68f4:	f45ff0ef          	jal	ra,6838 <ntohs>
    68f8:	8119                	srli	a0,a0,0x6
    68fa:	303c                	lbu	a5,3(s0)
    68fc:	03c57a13          	andi	s4,a0,60
    6900:	2028                	lbu	a0,2(s0)
    6902:	07a2                	slli	a5,a5,0x8
    6904:	8d5d                	or	a0,a0,a5
    6906:	f33ff0ef          	jal	ra,6838 <ntohs>
    690a:	24be                	lhu	a5,10(s1)
    690c:	892a                	mv	s2,a0
    690e:	fd47ebe3          	bltu	a5,s4,68e4 <ip_input+0x22>
    6912:	249e                	lhu	a5,8(s1)
    6914:	fca7e8e3          	bltu	a5,a0,68e4 <ip_input+0x22>
    6918:	85d2                	mv	a1,s4
    691a:	8522                	mv	a0,s0
    691c:	417040ef          	jal	ra,b532 <inet_chksum>
    6920:	f171                	bnez	a0,68e4 <ip_input+0x22>
    6922:	85ca                	mv	a1,s2
    6924:	8526                	mv	a0,s1
    6926:	46e010ef          	jal	ra,7d94 <pbuf_realloc>
    692a:	f0000537          	lui	a0,0xf0000
    692e:	f3dff0ef          	jal	ra,686a <ntohl>
    6932:	e0000537          	lui	a0,0xe0000
    6936:	f35ff0ef          	jal	ra,686a <ntohl>
    693a:	894e                	mv	s2,s3
    693c:	4b05                	li	s6,1
    693e:	01040b93          	addi	s7,s0,16
    6942:	854a                	mv	a0,s2
    6944:	24c010ef          	jal	ra,7b90 <netif_is_up>
    6948:	e511                	bnez	a0,6954 <ip_input+0x92>
    694a:	120b1363          	bnez	s6,6a70 <ip_input+0x1ae>
    694e:	00092903          	lw	s2,0(s2)
    6952:	a20d                	j	6a74 <ip_input+0x1b2>
    6954:	00490793          	addi	a5,s2,4
    6958:	dbed                	beqz	a5,694a <ip_input+0x88>
    695a:	00492683          	lw	a3,4(s2)
    695e:	d6f5                	beqz	a3,694a <ip_input+0x88>
    6960:	3818                	lbu	a4,17(s0)
    6962:	281c                	lbu	a5,16(s0)
    6964:	0722                	slli	a4,a4,0x8
    6966:	8f5d                	or	a4,a4,a5
    6968:	283c                	lbu	a5,18(s0)
    696a:	07c2                	slli	a5,a5,0x10
    696c:	8f5d                	or	a4,a4,a5
    696e:	383c                	lbu	a5,19(s0)
    6970:	07e2                	slli	a5,a5,0x18
    6972:	8fd9                	or	a5,a5,a4
    6974:	04f68263          	beq	a3,a5,69b8 <ip_input+0xf6>
    6978:	85ca                	mv	a1,s2
    697a:	855e                	mv	a0,s7
    697c:	2e85                	jal	6cec <ip_addr_isbroadcast>
    697e:	ed0d                	bnez	a0,69b8 <ip_input+0xf6>
    6980:	381c                	lbu	a5,17(s0)
    6982:	01044a83          	lbu	s5,16(s0)
    6986:	f0000537          	lui	a0,0xf0000
    698a:	07a2                	slli	a5,a5,0x8
    698c:	0157e7b3          	or	a5,a5,s5
    6990:	01244a83          	lbu	s5,18(s0)
    6994:	0ac2                	slli	s5,s5,0x10
    6996:	00fae7b3          	or	a5,s5,a5
    699a:	01344a83          	lbu	s5,19(s0)
    699e:	0ae2                	slli	s5,s5,0x18
    69a0:	00faeab3          	or	s5,s5,a5
    69a4:	ec7ff0ef          	jal	ra,686a <ntohl>
    69a8:	00aafab3          	and	s5,s5,a0
    69ac:	e0000537          	lui	a0,0xe0000
    69b0:	ebbff0ef          	jal	ra,686a <ntohl>
    69b4:	f8aa9be3          	bne	s5,a0,694a <ip_input+0x88>
    69b8:	3458                	lbu	a4,13(s0)
    69ba:	245c                	lbu	a5,12(s0)
    69bc:	0722                	slli	a4,a4,0x8
    69be:	8f5d                	or	a4,a4,a5
    69c0:	247c                	lbu	a5,14(s0)
    69c2:	07c2                	slli	a5,a5,0x10
    69c4:	8f5d                	or	a4,a4,a5
    69c6:	347c                	lbu	a5,15(s0)
    69c8:	07e2                	slli	a5,a5,0x18
    69ca:	8fd9                	or	a5,a5,a4
    69cc:	c3b9                	beqz	a5,6a12 <ip_input+0x150>
    69ce:	85ce                	mv	a1,s3
    69d0:	00c40513          	addi	a0,s0,12
    69d4:	2e21                	jal	6cec <ip_addr_isbroadcast>
    69d6:	f00517e3          	bnez	a0,68e4 <ip_input+0x22>
    69da:	345c                	lbu	a5,13(s0)
    69dc:	00c44a03          	lbu	s4,12(s0)
    69e0:	f0000537          	lui	a0,0xf0000
    69e4:	07a2                	slli	a5,a5,0x8
    69e6:	0147e7b3          	or	a5,a5,s4
    69ea:	00e44a03          	lbu	s4,14(s0)
    69ee:	0a42                	slli	s4,s4,0x10
    69f0:	00fa67b3          	or	a5,s4,a5
    69f4:	00f44a03          	lbu	s4,15(s0)
    69f8:	0a62                	slli	s4,s4,0x18
    69fa:	00fa6a33          	or	s4,s4,a5
    69fe:	e6dff0ef          	jal	ra,686a <ntohl>
    6a02:	00aa7a33          	and	s4,s4,a0
    6a06:	e0000537          	lui	a0,0xe0000
    6a0a:	e61ff0ef          	jal	ra,686a <ntohl>
    6a0e:	ecaa0be3          	beq	s4,a0,68e4 <ip_input+0x22>
    6a12:	ec0909e3          	beqz	s2,68e4 <ip_input+0x22>
    6a16:	00744903          	lbu	s2,7(s0)
    6a1a:	2068                	lbu	a0,6(s0)
    6a1c:	0922                	slli	s2,s2,0x8
    6a1e:	00a96933          	or	s2,s2,a0
    6a22:	6511                	lui	a0,0x4
    6a24:	157d                	addi	a0,a0,-1
    6a26:	e05ff0ef          	jal	ra,682a <htons>
    6a2a:	00a97533          	and	a0,s2,a0
    6a2e:	c511                	beqz	a0,6a3a <ip_input+0x178>
    6a30:	8526                	mv	a0,s1
    6a32:	26ed                	jal	6e1c <ip_reass>
    6a34:	84aa                	mv	s1,a0
    6a36:	c161                	beqz	a0,6af6 <ip_input+0x234>
    6a38:	4140                	lw	s0,4(a0)
    6a3a:	85ce                	mv	a1,s3
    6a3c:	8526                	mv	a0,s1
    6a3e:	496010ef          	jal	ra,7ed4 <raw_input>
    6a42:	e955                	bnez	a0,6af6 <ip_input+0x234>
    6a44:	341c                	lbu	a5,9(s0)
    6a46:	2408                	lbu	a0,8(s0)
    6a48:	07a2                	slli	a5,a5,0x8
    6a4a:	8d5d                	or	a0,a0,a5
    6a4c:	dedff0ef          	jal	ra,6838 <ntohs>
    6a50:	0ff57513          	andi	a0,a0,255
    6a54:	4799                	li	a5,6
    6a56:	0af50363          	beq	a0,a5,6afc <ip_input+0x23a>
    6a5a:	47c5                	li	a5,17
    6a5c:	08f50963          	beq	a0,a5,6aee <ip_input+0x22c>
    6a60:	4785                	li	a5,1
    6a62:	0af51263          	bne	a0,a5,6b06 <ip_input+0x244>
    6a66:	85ce                	mv	a1,s3
    6a68:	8526                	mv	a0,s1
    6a6a:	6c8040ef          	jal	ra,b132 <icmp_input>
    6a6e:	a061                	j	6af6 <ip_input+0x234>
    6a70:	9d01a903          	lw	s2,-1584(gp) # 200002d0 <netif_list>
    6a74:	01391463          	bne	s2,s3,6a7c <ip_input+0x1ba>
    6a78:	00092903          	lw	s2,0(s2)
    6a7c:	4b01                	li	s6,0
    6a7e:	ec0912e3          	bnez	s2,6942 <ip_input+0x80>
    6a82:	341c                	lbu	a5,9(s0)
    6a84:	2408                	lbu	a0,8(s0)
    6a86:	07a2                	slli	a5,a5,0x8
    6a88:	8d5d                	or	a0,a0,a5
    6a8a:	dafff0ef          	jal	ra,6838 <ntohs>
    6a8e:	0ff57513          	andi	a0,a0,255
    6a92:	47c5                	li	a5,17
    6a94:	00f51e63          	bne	a0,a5,6ab0 <ip_input+0x1ee>
    6a98:	014407b3          	add	a5,s0,s4
    6a9c:	23a8                	lbu	a0,2(a5)
    6a9e:	33bc                	lbu	a5,3(a5)
    6aa0:	07a2                	slli	a5,a5,0x8
    6aa2:	8d5d                	or	a0,a0,a5
    6aa4:	d95ff0ef          	jal	ra,6838 <ntohs>
    6aa8:	04400793          	li	a5,68
    6aac:	02f50d63          	beq	a0,a5,6ae6 <ip_input+0x224>
    6ab0:	4a85                	li	s5,1
    6ab2:	341c                	lbu	a5,9(s0)
    6ab4:	2408                	lbu	a0,8(s0)
    6ab6:	07a2                	slli	a5,a5,0x8
    6ab8:	8d5d                	or	a0,a0,a5
    6aba:	d7fff0ef          	jal	ra,6838 <ntohs>
    6abe:	0ff57513          	andi	a0,a0,255
    6ac2:	47c5                	li	a5,17
    6ac4:	08f51963          	bne	a0,a5,6b56 <ip_input+0x294>
    6ac8:	9a22                	add	s4,s4,s0
    6aca:	003a4783          	lbu	a5,3(s4)
    6ace:	002a4503          	lbu	a0,2(s4)
    6ad2:	07a2                	slli	a5,a5,0x8
    6ad4:	8d5d                	or	a0,a0,a5
    6ad6:	d63ff0ef          	jal	ra,6838 <ntohs>
    6ada:	76c00793          	li	a5,1900
    6ade:	06f51c63          	bne	a0,a5,6b56 <ip_input+0x294>
    6ae2:	894e                	mv	s2,s3
    6ae4:	b73d                	j	6a12 <ip_input+0x150>
    6ae6:	f20998e3          	bnez	s3,6a16 <ip_input+0x154>
    6aea:	4a81                	li	s5,0
    6aec:	b7d9                	j	6ab2 <ip_input+0x1f0>
    6aee:	85ce                	mv	a1,s3
    6af0:	8526                	mv	a0,s1
    6af2:	10c040ef          	jal	ra,abfe <udp_input>
    6af6:	4501                	li	a0,0
    6af8:	a2ff906f          	j	526 <__riscv_restore_10>
    6afc:	85ce                	mv	a1,s3
    6afe:	8526                	mv	a0,s1
    6b00:	2a3020ef          	jal	ra,95a2 <tcp_input>
    6b04:	bfcd                	j	6af6 <ip_input+0x234>
    6b06:	85ce                	mv	a1,s3
    6b08:	01040513          	addi	a0,s0,16
    6b0c:	22c5                	jal	6cec <ip_addr_isbroadcast>
    6b0e:	dc051be3          	bnez	a0,68e4 <ip_input+0x22>
    6b12:	381c                	lbu	a5,17(s0)
    6b14:	01044903          	lbu	s2,16(s0)
    6b18:	f0000537          	lui	a0,0xf0000
    6b1c:	07a2                	slli	a5,a5,0x8
    6b1e:	0127e7b3          	or	a5,a5,s2
    6b22:	01244903          	lbu	s2,18(s0)
    6b26:	0942                	slli	s2,s2,0x10
    6b28:	00f967b3          	or	a5,s2,a5
    6b2c:	01344903          	lbu	s2,19(s0)
    6b30:	0962                	slli	s2,s2,0x18
    6b32:	00f96933          	or	s2,s2,a5
    6b36:	d35ff0ef          	jal	ra,686a <ntohl>
    6b3a:	00a97933          	and	s2,s2,a0
    6b3e:	e0000537          	lui	a0,0xe0000
    6b42:	d29ff0ef          	jal	ra,686a <ntohl>
    6b46:	d8a90fe3          	beq	s2,a0,68e4 <ip_input+0x22>
    6b4a:	c0c0                	sw	s0,4(s1)
    6b4c:	4589                	li	a1,2
    6b4e:	8526                	mv	a0,s1
    6b50:	033040ef          	jal	ra,b382 <icmp_dest_unreach>
    6b54:	bb41                	j	68e4 <ip_input+0x22>
    6b56:	e60a91e3          	bnez	s5,69b8 <ip_input+0xf6>
    6b5a:	b369                	j	68e4 <ip_input+0x22>

00006b5c <ip_output_if>:
    6b5c:	993f92ef          	jal	t0,4ee <__riscv_save_10>
    6b60:	89aa                	mv	s3,a0
    6b62:	8942                	mv	s2,a6
    6b64:	12060f63          	beqz	a2,6ca2 <ip_output_if+0x146>
    6b68:	8aae                	mv	s5,a1
    6b6a:	45d1                	li	a1,20
    6b6c:	8a3a                	mv	s4,a4
    6b6e:	84b2                	mv	s1,a2
    6b70:	8bb6                	mv	s7,a3
    6b72:	8b3e                	mv	s6,a5
    6b74:	024010ef          	jal	ra,7b98 <pbuf_header>
    6b78:	5779                	li	a4,-2
    6b7a:	12051163          	bnez	a0,6c9c <ip_output_if+0x140>
    6b7e:	0049a403          	lw	s0,4(s3)
    6b82:	0ba2                	slli	s7,s7,0x8
    6b84:	341c                	lbu	a5,9(s0)
    6b86:	2408                	lbu	a0,8(s0)
    6b88:	07a2                	slli	a5,a5,0x8
    6b8a:	8d5d                	or	a0,a0,a5
    6b8c:	cadff0ef          	jal	ra,6838 <ntohs>
    6b90:	0ff57513          	andi	a0,a0,255
    6b94:	01756533          	or	a0,a0,s7
    6b98:	c93ff0ef          	jal	ra,682a <htons>
    6b9c:	00855713          	srli	a4,a0,0x8
    6ba0:	b418                	sb	a4,9(s0)
    6ba2:	a408                	sb	a0,8(s0)
    6ba4:	c95ff0ef          	jal	ra,6838 <ntohs>
    6ba8:	8121                	srli	a0,a0,0x8
    6baa:	0542                	slli	a0,a0,0x10
    6bac:	8141                	srli	a0,a0,0x10
    6bae:	0522                	slli	a0,a0,0x8
    6bb0:	01656533          	or	a0,a0,s6
    6bb4:	0542                	slli	a0,a0,0x10
    6bb6:	8141                	srli	a0,a0,0x10
    6bb8:	c73ff0ef          	jal	ra,682a <htons>
    6bbc:	3098                	lbu	a4,1(s1)
    6bbe:	209c                	lbu	a5,0(s1)
    6bc0:	a408                	sb	a0,8(s0)
    6bc2:	0722                	slli	a4,a4,0x8
    6bc4:	8f5d                	or	a4,a4,a5
    6bc6:	20bc                	lbu	a5,2(s1)
    6bc8:	8121                	srli	a0,a0,0x8
    6bca:	b408                	sb	a0,9(s0)
    6bcc:	07c2                	slli	a5,a5,0x10
    6bce:	8f5d                	or	a4,a4,a5
    6bd0:	30bc                	lbu	a5,3(s1)
    6bd2:	6511                	lui	a0,0x4
    6bd4:	50050513          	addi	a0,a0,1280 # 4500 <vTaskRemoveFromUnorderedEventList+0xc0>
    6bd8:	07e2                	slli	a5,a5,0x18
    6bda:	8fd9                	or	a5,a5,a4
    6bdc:	0087d713          	srli	a4,a5,0x8
    6be0:	a81c                	sb	a5,16(s0)
    6be2:	b818                	sb	a4,17(s0)
    6be4:	0107d713          	srli	a4,a5,0x10
    6be8:	83e1                	srli	a5,a5,0x18
    6bea:	b83c                	sb	a5,19(s0)
    6bec:	a838                	sb	a4,18(s0)
    6bee:	00aa6533          	or	a0,s4,a0
    6bf2:	c39ff0ef          	jal	ra,682a <htons>
    6bf6:	a008                	sb	a0,0(s0)
    6bf8:	8121                	srli	a0,a0,0x8
    6bfa:	b008                	sb	a0,1(s0)
    6bfc:	0089d503          	lhu	a0,8(s3)
    6c00:	9b818a13          	addi	s4,gp,-1608 # 200002b8 <ip_id.2936>
    6c04:	c27ff0ef          	jal	ra,682a <htons>
    6c08:	a028                	sb	a0,2(s0)
    6c0a:	8121                	srli	a0,a0,0x8
    6c0c:	b028                	sb	a0,3(s0)
    6c0e:	000a5503          	lhu	a0,0(s4)
    6c12:	00040323          	sb	zero,6(s0)
    6c16:	000403a3          	sb	zero,7(s0)
    6c1a:	c11ff0ef          	jal	ra,682a <htons>
    6c1e:	000a5783          	lhu	a5,0(s4)
    6c22:	a048                	sb	a0,4(s0)
    6c24:	8121                	srli	a0,a0,0x8
    6c26:	0785                	addi	a5,a5,1
    6c28:	b048                	sb	a0,5(s0)
    6c2a:	00fa1023          	sh	a5,0(s4)
    6c2e:	020a8163          	beqz	s5,6c50 <ip_output_if+0xf4>
    6c32:	001ac703          	lbu	a4,1(s5)
    6c36:	000ac783          	lbu	a5,0(s5)
    6c3a:	0722                	slli	a4,a4,0x8
    6c3c:	8f5d                	or	a4,a4,a5
    6c3e:	002ac783          	lbu	a5,2(s5)
    6c42:	07c2                	slli	a5,a5,0x10
    6c44:	8f5d                	or	a4,a4,a5
    6c46:	003ac783          	lbu	a5,3(s5)
    6c4a:	07e2                	slli	a5,a5,0x18
    6c4c:	8fd9                	or	a5,a5,a4
    6c4e:	e799                	bnez	a5,6c5c <ip_output_if+0x100>
    6c50:	00490713          	addi	a4,s2,4
    6c54:	4781                	li	a5,0
    6c56:	c319                	beqz	a4,6c5c <ip_output_if+0x100>
    6c58:	00492783          	lw	a5,4(s2)
    6c5c:	0087d713          	srli	a4,a5,0x8
    6c60:	a45c                	sb	a5,12(s0)
    6c62:	b458                	sb	a4,13(s0)
    6c64:	0107d713          	srli	a4,a5,0x10
    6c68:	83e1                	srli	a5,a5,0x18
    6c6a:	a478                	sb	a4,14(s0)
    6c6c:	b47c                	sb	a5,15(s0)
    6c6e:	00040523          	sb	zero,10(s0)
    6c72:	000405a3          	sb	zero,11(s0)
    6c76:	45d1                	li	a1,20
    6c78:	8522                	mv	a0,s0
    6c7a:	0b9040ef          	jal	ra,b532 <inet_chksum>
    6c7e:	a428                	sb	a0,10(s0)
    6c80:	8121                	srli	a0,a0,0x8
    6c82:	b428                	sb	a0,11(s0)
    6c84:	03095783          	lhu	a5,48(s2)
    6c88:	c385                	beqz	a5,6ca8 <ip_output_if+0x14c>
    6c8a:	0089d703          	lhu	a4,8(s3)
    6c8e:	00e7fd63          	bgeu	a5,a4,6ca8 <ip_output_if+0x14c>
    6c92:	8626                	mv	a2,s1
    6c94:	85ca                	mv	a1,s2
    6c96:	854e                	mv	a0,s3
    6c98:	2385                	jal	71f8 <ip_frag>
    6c9a:	872a                	mv	a4,a0
    6c9c:	853a                	mv	a0,a4
    6c9e:	889f906f          	j	526 <__riscv_restore_10>
    6ca2:	4144                	lw	s1,4(a0)
    6ca4:	04c1                	addi	s1,s1,16
    6ca6:	bff9                	j	6c84 <ip_output_if+0x128>
    6ca8:	01492783          	lw	a5,20(s2)
    6cac:	8626                	mv	a2,s1
    6cae:	85ce                	mv	a1,s3
    6cb0:	854a                	mv	a0,s2
    6cb2:	9782                	jalr	a5
    6cb4:	b7dd                	j	6c9a <ip_output_if+0x13e>

00006cb6 <ip_output>:
    6cb6:	861f92ef          	jal	t0,516 <__riscv_save_0>
    6cba:	1101                	addi	sp,sp,-32
    6cbc:	842a                	mv	s0,a0
    6cbe:	8532                	mv	a0,a2
    6cc0:	ce2e                	sw	a1,28(sp)
    6cc2:	cc36                	sw	a3,24(sp)
    6cc4:	ca3a                	sw	a4,20(sp)
    6cc6:	c83e                	sw	a5,16(sp)
    6cc8:	c632                	sw	a2,12(sp)
    6cca:	badff0ef          	jal	ra,6876 <ip_route>
    6cce:	cd09                	beqz	a0,6ce8 <ip_output+0x32>
    6cd0:	47c2                	lw	a5,16(sp)
    6cd2:	4752                	lw	a4,20(sp)
    6cd4:	46e2                	lw	a3,24(sp)
    6cd6:	4632                	lw	a2,12(sp)
    6cd8:	45f2                	lw	a1,28(sp)
    6cda:	882a                	mv	a6,a0
    6cdc:	8522                	mv	a0,s0
    6cde:	e7fff0ef          	jal	ra,6b5c <ip_output_if>
    6ce2:	6105                	addi	sp,sp,32
    6ce4:	857f906f          	j	53a <__riscv_restore_0>
    6ce8:	5571                	li	a0,-4
    6cea:	bfe5                	j	6ce2 <ip_output+0x2c>

00006cec <ip_addr_isbroadcast>:
    6cec:	3118                	lbu	a4,1(a0)
    6cee:	211c                	lbu	a5,0(a0)
    6cf0:	0722                	slli	a4,a4,0x8
    6cf2:	8f5d                	or	a4,a4,a5
    6cf4:	213c                	lbu	a5,2(a0)
    6cf6:	07c2                	slli	a5,a5,0x10
    6cf8:	8f5d                	or	a4,a4,a5
    6cfa:	313c                	lbu	a5,3(a0)
    6cfc:	07e2                	slli	a5,a5,0x18
    6cfe:	8fd9                	or	a5,a5,a4
    6d00:	fff78693          	addi	a3,a5,-1
    6d04:	5775                	li	a4,-3
    6d06:	02d76663          	bltu	a4,a3,6d32 <ip_addr_isbroadcast+0x46>
    6d0a:	0325c703          	lbu	a4,50(a1)
    6d0e:	4501                	li	a0,0
    6d10:	8b09                	andi	a4,a4,2
    6d12:	c30d                	beqz	a4,6d34 <ip_addr_isbroadcast+0x48>
    6d14:	41d8                	lw	a4,4(a1)
    6d16:	00f70f63          	beq	a4,a5,6d34 <ip_addr_isbroadcast+0x48>
    6d1a:	4594                	lw	a3,8(a1)
    6d1c:	8f3d                	xor	a4,a4,a5
    6d1e:	8f75                	and	a4,a4,a3
    6d20:	eb11                	bnez	a4,6d34 <ip_addr_isbroadcast+0x48>
    6d22:	fff6c513          	not	a0,a3
    6d26:	8fe9                	and	a5,a5,a0
    6d28:	40a78533          	sub	a0,a5,a0
    6d2c:	00153513          	seqz	a0,a0
    6d30:	8082                	ret
    6d32:	4505                	li	a0,1
    6d34:	8082                	ret

00006d36 <ip_reass_tmr>:
    6d36:	fb8f92ef          	jal	t0,4ee <__riscv_save_10>
    6d3a:	9bc1a403          	lw	s0,-1604(gp) # 200002bc <reassdatagrams>
    6d3e:	44c5                	li	s1,17
    6d40:	4b01                	li	s6,0
    6d42:	9bc18913          	addi	s2,gp,-1604 # 200002bc <reassdatagrams>
    6d46:	e019                	bnez	s0,6d4c <ip_reass_tmr+0x16>
    6d48:	fdef906f          	j	526 <__riscv_restore_10>
    6d4c:	14fd                	addi	s1,s1,-1
    6d4e:	0ff4f493          	andi	s1,s1,255
    6d52:	d8fd                	beqz	s1,6d48 <ip_reass_tmr+0x12>
    6d54:	3c7c                	lbu	a5,31(s0)
    6d56:	00042c03          	lw	s8,0(s0)
    6d5a:	c791                	beqz	a5,6d66 <ip_reass_tmr+0x30>
    6d5c:	17fd                	addi	a5,a5,-1
    6d5e:	bc7c                	sb	a5,31(s0)
    6d60:	8b22                	mv	s6,s0
    6d62:	8462                	mv	s0,s8
    6d64:	b7cd                	j	6d46 <ip_reass_tmr+0x10>
    6d66:	00442983          	lw	s3,4(s0)
    6d6a:	4a81                	li	s5,0
    6d6c:	0049a503          	lw	a0,4(s3)
    6d70:	315c                	lbu	a5,5(a0)
    6d72:	2158                	lbu	a4,4(a0)
    6d74:	07a2                	slli	a5,a5,0x8
    6d76:	8fd9                	or	a5,a5,a4
    6d78:	ef85                	bnez	a5,6db0 <ip_reass_tmr+0x7a>
    6d7a:	3118                	lbu	a4,1(a0)
    6d7c:	211c                	lbu	a5,0(a0)
    6d7e:	4651                	li	a2,20
    6d80:	0722                	slli	a4,a4,0x8
    6d82:	8f5d                	or	a4,a4,a5
    6d84:	213c                	lbu	a5,2(a0)
    6d86:	00840593          	addi	a1,s0,8
    6d8a:	07c2                	slli	a5,a5,0x10
    6d8c:	8f5d                	or	a4,a4,a5
    6d8e:	313c                	lbu	a5,3(a0)
    6d90:	07e2                	slli	a5,a5,0x18
    6d92:	8fd9                	or	a5,a5,a4
    6d94:	c05c                	sw	a5,4(s0)
    6d96:	041040ef          	jal	ra,b5d6 <memcpy>
    6d9a:	4585                	li	a1,1
    6d9c:	854e                	mv	a0,s3
    6d9e:	5f8040ef          	jal	ra,b396 <icmp_time_exceeded>
    6da2:	854e                	mv	a0,s3
    6da4:	048010ef          	jal	ra,7dec <pbuf_clen>
    6da8:	8aaa                	mv	s5,a0
    6daa:	854e                	mv	a0,s3
    6dac:	65b000ef          	jal	ra,7c06 <pbuf_free>
    6db0:	00442983          	lw	s3,4(s0)
    6db4:	02099663          	bnez	s3,6de0 <ip_reass_tmr+0xaa>
    6db8:	00092703          	lw	a4,0(s2)
    6dbc:	401c                	lw	a5,0(s0)
    6dbe:	04e41c63          	bne	s0,a4,6e16 <ip_reass_tmr+0xe0>
    6dc2:	00f92023          	sw	a5,0(s2)
    6dc6:	85a2                	mv	a1,s0
    6dc8:	4515                	li	a0,5
    6dca:	46b000ef          	jal	ra,7a34 <memp_free>
    6dce:	9ba18713          	addi	a4,gp,-1606 # 200002ba <ip_reass_pbufcount>
    6dd2:	231e                	lhu	a5,0(a4)
    6dd4:	845a                	mv	s0,s6
    6dd6:	41578ab3          	sub	s5,a5,s5
    6dda:	01571023          	sh	s5,0(a4)
    6dde:	b749                	j	6d60 <ip_reass_tmr+0x2a>
    6de0:	0049a703          	lw	a4,4(s3)
    6de4:	854e                	mv	a0,s3
    6de6:	331c                	lbu	a5,1(a4)
    6de8:	00074a03          	lbu	s4,0(a4)
    6dec:	07a2                	slli	a5,a5,0x8
    6dee:	0147e7b3          	or	a5,a5,s4
    6df2:	00274a03          	lbu	s4,2(a4)
    6df6:	0a42                	slli	s4,s4,0x10
    6df8:	00fa67b3          	or	a5,s4,a5
    6dfc:	00374a03          	lbu	s4,3(a4)
    6e00:	0a62                	slli	s4,s4,0x18
    6e02:	00fa6a33          	or	s4,s4,a5
    6e06:	7e7000ef          	jal	ra,7dec <pbuf_clen>
    6e0a:	9aaa                	add	s5,s5,a0
    6e0c:	854e                	mv	a0,s3
    6e0e:	5f9000ef          	jal	ra,7c06 <pbuf_free>
    6e12:	89d2                	mv	s3,s4
    6e14:	b745                	j	6db4 <ip_reass_tmr+0x7e>
    6e16:	00fb2023          	sw	a5,0(s6)
    6e1a:	b775                	j	6dc6 <ip_reass_tmr+0x90>

00006e1c <ip_reass>:
    6e1c:	ed2f92ef          	jal	t0,4ee <__riscv_save_10>
    6e20:	4144                	lw	s1,4(a0)
    6e22:	892a                	mv	s2,a0
    6e24:	309c                	lbu	a5,1(s1)
    6e26:	2088                	lbu	a0,0(s1)
    6e28:	07a2                	slli	a5,a5,0x8
    6e2a:	8d5d                	or	a0,a0,a5
    6e2c:	a0dff0ef          	jal	ra,6838 <ntohs>
    6e30:	8119                	srli	a0,a0,0x6
    6e32:	03c57513          	andi	a0,a0,60
    6e36:	47d1                	li	a5,20
    6e38:	26f51263          	bne	a0,a5,709c <ip_reass+0x280>
    6e3c:	30fc                	lbu	a5,7(s1)
    6e3e:	20e8                	lbu	a0,6(s1)
    6e40:	07a2                	slli	a5,a5,0x8
    6e42:	8d5d                	or	a0,a0,a5
    6e44:	9f5ff0ef          	jal	ra,6838 <ntohs>
    6e48:	30bc                	lbu	a5,3(s1)
    6e4a:	8b2a                	mv	s6,a0
    6e4c:	20a8                	lbu	a0,2(s1)
    6e4e:	07a2                	slli	a5,a5,0x8
    6e50:	8d5d                	or	a0,a0,a5
    6e52:	9e7ff0ef          	jal	ra,6838 <ntohs>
    6e56:	309c                	lbu	a5,1(s1)
    6e58:	8caa                	mv	s9,a0
    6e5a:	2088                	lbu	a0,0(s1)
    6e5c:	07a2                	slli	a5,a5,0x8
    6e5e:	8d5d                	or	a0,a0,a5
    6e60:	9d9ff0ef          	jal	ra,6838 <ntohs>
    6e64:	8c2a                	mv	s8,a0
    6e66:	854a                	mv	a0,s2
    6e68:	785000ef          	jal	ra,7dec <pbuf_clen>
    6e6c:	2000a7b7          	lui	a5,0x2000a
    6e70:	36c7a783          	lw	a5,876(a5) # 2000a36c <WCHCfg+0x10>
    6e74:	9ba1d703          	lhu	a4,-1606(gp) # 200002ba <ip_reass_pbufcount>
    6e78:	8d2a                	mv	s10,a0
    6e7a:	838d                	srli	a5,a5,0x3
    6e7c:	972a                	add	a4,a4,a0
    6e7e:	8bfd                	andi	a5,a5,31
    6e80:	9ba18993          	addi	s3,gp,-1606 # 200002ba <ip_reass_pbufcount>
    6e84:	20e7ec63          	bltu	a5,a4,709c <ip_reass+0x280>
    6e88:	9bc1a403          	lw	s0,-1604(gp) # 200002bc <reassdatagrams>
    6e8c:	4a81                	li	s5,0
    6e8e:	9bc18a13          	addi	s4,gp,-1604 # 200002bc <reassdatagrams>
    6e92:	e81d                	bnez	s0,6ec8 <ip_reass+0xac>
    6e94:	4515                	li	a0,5
    6e96:	37f000ef          	jal	ra,7a14 <memp_malloc>
    6e9a:	842a                	mv	s0,a0
    6e9c:	20050063          	beqz	a0,709c <ip_reass+0x280>
    6ea0:	4671                	li	a2,28
    6ea2:	4581                	li	a1,0
    6ea4:	00440513          	addi	a0,s0,4
    6ea8:	e9ef90ef          	jal	ra,546 <memset>
    6eac:	478d                	li	a5,3
    6eae:	bc7c                	sb	a5,31(s0)
    6eb0:	000a2783          	lw	a5,0(s4)
    6eb4:	008a2023          	sw	s0,0(s4)
    6eb8:	c01c                	sw	a5,0(s0)
    6eba:	4651                	li	a2,20
    6ebc:	85a6                	mv	a1,s1
    6ebe:	00840513          	addi	a0,s0,8
    6ec2:	714040ef          	jal	ra,b5d6 <memcpy>
    6ec6:	ac95                	j	713a <ip_reass+0x31e>
    6ec8:	34d8                	lbu	a4,13(s1)
    6eca:	24dc                	lbu	a5,12(s1)
    6ecc:	0722                	slli	a4,a4,0x8
    6ece:	8f5d                	or	a4,a4,a5
    6ed0:	24fc                	lbu	a5,14(s1)
    6ed2:	07c2                	slli	a5,a5,0x10
    6ed4:	8f5d                	or	a4,a4,a5
    6ed6:	34fc                	lbu	a5,15(s1)
    6ed8:	07e2                	slli	a5,a5,0x18
    6eda:	8fd9                	or	a5,a5,a4
    6edc:	4858                	lw	a4,20(s0)
    6ede:	02f71663          	bne	a4,a5,6f0a <ip_reass+0xee>
    6ee2:	3898                	lbu	a4,17(s1)
    6ee4:	289c                	lbu	a5,16(s1)
    6ee6:	0722                	slli	a4,a4,0x8
    6ee8:	8f5d                	or	a4,a4,a5
    6eea:	28bc                	lbu	a5,18(s1)
    6eec:	07c2                	slli	a5,a5,0x10
    6eee:	8f5d                	or	a4,a4,a5
    6ef0:	38bc                	lbu	a5,19(s1)
    6ef2:	07e2                	slli	a5,a5,0x18
    6ef4:	8fd9                	or	a5,a5,a4
    6ef6:	4c18                	lw	a4,24(s0)
    6ef8:	00f71963          	bne	a4,a5,6f0a <ip_reass+0xee>
    6efc:	30dc                	lbu	a5,5(s1)
    6efe:	20d4                	lbu	a3,4(s1)
    6f00:	245a                	lhu	a4,12(s0)
    6f02:	07a2                	slli	a5,a5,0x8
    6f04:	8fd5                	or	a5,a5,a3
    6f06:	20f70663          	beq	a4,a5,7112 <ip_reass+0x2f6>
    6f0a:	8aa2                	mv	s5,s0
    6f0c:	4000                	lw	s0,0(s0)
    6f0e:	b751                	j	6e92 <ip_reass+0x76>
    6f10:	42cc                	lw	a1,4(a3)
    6f12:	0055c803          	lbu	a6,5(a1)
    6f16:	0045c303          	lbu	t1,4(a1)
    6f1a:	0822                	slli	a6,a6,0x8
    6f1c:	00686833          	or	a6,a6,t1
    6f20:	0d067c63          	bgeu	a2,a6,6ff8 <ip_reass+0x1dc>
    6f24:	0086d593          	srli	a1,a3,0x8
    6f28:	a394                	sb	a3,0(a5)
    6f2a:	b38c                	sb	a1,1(a5)
    6f2c:	0106d593          	srli	a1,a3,0x10
    6f30:	82e1                	srli	a3,a3,0x18
    6f32:	a3ac                	sb	a1,2(a5)
    6f34:	b3b4                	sb	a3,3(a5)
    6f36:	2a070e63          	beqz	a4,71f2 <ip_reass+0x3d6>
    6f3a:	3374                	lbu	a3,7(a4)
    6f3c:	236c                	lbu	a1,6(a4)
    6f3e:	06a2                	slli	a3,a3,0x8
    6f40:	8ecd                	or	a3,a3,a1
    6f42:	14d66463          	bltu	a2,a3,708a <ip_reass+0x26e>
    6f46:	14a86263          	bltu	a6,a0,708a <ip_reass+0x26e>
    6f4a:	00895693          	srli	a3,s2,0x8
    6f4e:	01270023          	sb	s2,0(a4)
    6f52:	b314                	sb	a3,1(a4)
    6f54:	01095693          	srli	a3,s2,0x10
    6f58:	01895913          	srli	s2,s2,0x18
    6f5c:	a334                	sb	a3,2(a4)
    6f5e:	012701a3          	sb	s2,3(a4)
    6f62:	2c78                	lbu	a4,30(s0)
    6f64:	4b01                	li	s6,0
    6f66:	8b05                	andi	a4,a4,1
    6f68:	18070f63          	beqz	a4,7106 <ip_reass+0x2ea>
    6f6c:	18088d63          	beqz	a7,7106 <ip_reass+0x2ea>
    6f70:	4058                	lw	a4,4(s0)
    6f72:	4344                	lw	s1,4(a4)
    6f74:	30d8                	lbu	a4,5(s1)
    6f76:	20d4                	lbu	a3,4(s1)
    6f78:	0722                	slli	a4,a4,0x8
    6f7a:	8f55                	or	a4,a4,a3
    6f7c:	18071563          	bnez	a4,7106 <ip_reass+0x2ea>
    6f80:	3394                	lbu	a3,1(a5)
    6f82:	2398                	lbu	a4,0(a5)
    6f84:	06a2                	slli	a3,a3,0x8
    6f86:	8ed9                	or	a3,a3,a4
    6f88:	23b8                	lbu	a4,2(a5)
    6f8a:	0742                	slli	a4,a4,0x10
    6f8c:	8ed9                	or	a3,a3,a4
    6f8e:	33b8                	lbu	a4,3(a5)
    6f90:	0762                	slli	a4,a4,0x18
    6f92:	8f55                	or	a4,a4,a3
    6f94:	e761                	bnez	a4,705c <ip_reass+0x240>
    6f96:	2c5e                	lhu	a5,28(s0)
    6f98:	0004c903          	lbu	s2,0(s1)
    6f9c:	4651                	li	a2,20
    6f9e:	07d1                	addi	a5,a5,20
    6fa0:	ac5e                	sh	a5,28(s0)
    6fa2:	309c                	lbu	a5,1(s1)
    6fa4:	00840593          	addi	a1,s0,8
    6fa8:	8526                	mv	a0,s1
    6faa:	07a2                	slli	a5,a5,0x8
    6fac:	0127e7b3          	or	a5,a5,s2
    6fb0:	0024c903          	lbu	s2,2(s1)
    6fb4:	0942                	slli	s2,s2,0x10
    6fb6:	00f967b3          	or	a5,s2,a5
    6fba:	0034c903          	lbu	s2,3(s1)
    6fbe:	0962                	slli	s2,s2,0x18
    6fc0:	00f96933          	or	s2,s2,a5
    6fc4:	612040ef          	jal	ra,b5d6 <memcpy>
    6fc8:	2c4a                	lhu	a0,28(s0)
    6fca:	861ff0ef          	jal	ra,682a <htons>
    6fce:	a0a8                	sb	a0,2(s1)
    6fd0:	8121                	srli	a0,a0,0x8
    6fd2:	b0a8                	sb	a0,3(s1)
    6fd4:	00048323          	sb	zero,6(s1)
    6fd8:	000483a3          	sb	zero,7(s1)
    6fdc:	00048523          	sb	zero,10(s1)
    6fe0:	000485a3          	sb	zero,11(s1)
    6fe4:	45d1                	li	a1,20
    6fe6:	8526                	mv	a0,s1
    6fe8:	54a040ef          	jal	ra,b532 <inet_chksum>
    6fec:	a4a8                	sb	a0,10(s1)
    6fee:	8121                	srli	a0,a0,0x8
    6ff0:	b4a8                	sb	a0,11(s1)
    6ff2:	00442b03          	lw	s6,4(s0)
    6ff6:	a0d5                	j	70da <ip_reass+0x2be>
    6ff8:	09060963          	beq	a2,a6,708a <ip_reass+0x26e>
    6ffc:	31f4                	lbu	a3,7(a1)
    6ffe:	0065c303          	lbu	t1,6(a1)
    7002:	06a2                	slli	a3,a3,0x8
    7004:	0066e6b3          	or	a3,a3,t1
    7008:	08d66163          	bltu	a2,a3,708a <ip_reass+0x26e>
    700c:	cb01                	beqz	a4,701c <ip_reass+0x200>
    700e:	2374                	lbu	a3,6(a4)
    7010:	3378                	lbu	a4,7(a4)
    7012:	0722                	slli	a4,a4,0x8
    7014:	8f55                	or	a4,a4,a3
    7016:	00e80363          	beq	a6,a4,701c <ip_reass+0x200>
    701a:	4881                	li	a7,0
    701c:	3198                	lbu	a4,1(a1)
    701e:	2194                	lbu	a3,0(a1)
    7020:	0722                	slli	a4,a4,0x8
    7022:	8f55                	or	a4,a4,a3
    7024:	21b4                	lbu	a3,2(a1)
    7026:	06c2                	slli	a3,a3,0x10
    7028:	8f55                	or	a4,a4,a3
    702a:	31b4                	lbu	a3,3(a1)
    702c:	06e2                	slli	a3,a3,0x18
    702e:	8ed9                	or	a3,a3,a4
    7030:	872e                	mv	a4,a1
    7032:	aa65                	j	71ea <ip_reass+0x3ce>
    7034:	00895693          	srli	a3,s2,0x8
    7038:	01270023          	sb	s2,0(a4)
    703c:	b314                	sb	a3,1(a4)
    703e:	01095693          	srli	a3,s2,0x10
    7042:	01895913          	srli	s2,s2,0x18
    7046:	a334                	sb	a3,2(a4)
    7048:	012701a3          	sb	s2,3(a4)
    704c:	2374                	lbu	a3,6(a4)
    704e:	3378                	lbu	a4,7(a4)
    7050:	0722                	slli	a4,a4,0x8
    7052:	8f55                	or	a4,a4,a3
    7054:	f0e607e3          	beq	a2,a4,6f62 <ip_reass+0x146>
    7058:	4881                	li	a7,0
    705a:	b721                	j	6f62 <ip_reass+0x146>
    705c:	4354                	lw	a3,4(a4)
    705e:	23ec                	lbu	a1,6(a5)
    7060:	33f8                	lbu	a4,7(a5)
    7062:	32dc                	lbu	a5,5(a3)
    7064:	22d0                	lbu	a2,4(a3)
    7066:	0722                	slli	a4,a4,0x8
    7068:	07a2                	slli	a5,a5,0x8
    706a:	8f4d                	or	a4,a4,a1
    706c:	8fd1                	or	a5,a5,a2
    706e:	02f71a63          	bne	a4,a5,70a2 <ip_reass+0x286>
    7072:	329c                	lbu	a5,1(a3)
    7074:	2298                	lbu	a4,0(a3)
    7076:	07a2                	slli	a5,a5,0x8
    7078:	8fd9                	or	a5,a5,a4
    707a:	22b8                	lbu	a4,2(a3)
    707c:	0742                	slli	a4,a4,0x10
    707e:	8fd9                	or	a5,a5,a4
    7080:	32b8                	lbu	a4,3(a3)
    7082:	0762                	slli	a4,a4,0x18
    7084:	8f5d                	or	a4,a4,a5
    7086:	87b6                	mv	a5,a3
    7088:	b731                	j	6f94 <ip_reass+0x178>
    708a:	854a                	mv	a0,s2
    708c:	561000ef          	jal	ra,7dec <pbuf_clen>
    7090:	0009d783          	lhu	a5,0(s3)
    7094:	40a78533          	sub	a0,a5,a0
    7098:	00a99023          	sh	a0,0(s3)
    709c:	854a                	mv	a0,s2
    709e:	369000ef          	jal	ra,7c06 <pbuf_free>
    70a2:	4b01                	li	s6,0
    70a4:	a08d                	j	7106 <ip_reass+0x2ea>
    70a6:	55b1                	li	a1,-20
    70a8:	854a                	mv	a0,s2
    70aa:	00492483          	lw	s1,4(s2)
    70ae:	2eb000ef          	jal	ra,7b98 <pbuf_header>
    70b2:	85ca                	mv	a1,s2
    70b4:	855a                	mv	a0,s6
    70b6:	553000ef          	jal	ra,7e08 <pbuf_cat>
    70ba:	309c                	lbu	a5,1(s1)
    70bc:	0004c903          	lbu	s2,0(s1)
    70c0:	07a2                	slli	a5,a5,0x8
    70c2:	0127e7b3          	or	a5,a5,s2
    70c6:	0024c903          	lbu	s2,2(s1)
    70ca:	0942                	slli	s2,s2,0x10
    70cc:	00f967b3          	or	a5,s2,a5
    70d0:	0034c903          	lbu	s2,3(s1)
    70d4:	0962                	slli	s2,s2,0x18
    70d6:	00f96933          	or	s2,s2,a5
    70da:	fc0916e3          	bnez	s2,70a6 <ip_reass+0x28a>
    70de:	000a2703          	lw	a4,0(s4)
    70e2:	401c                	lw	a5,0(s0)
    70e4:	02e41463          	bne	s0,a4,710c <ip_reass+0x2f0>
    70e8:	00fa2023          	sw	a5,0(s4)
    70ec:	85a2                	mv	a1,s0
    70ee:	4515                	li	a0,5
    70f0:	145000ef          	jal	ra,7a34 <memp_free>
    70f4:	855a                	mv	a0,s6
    70f6:	4f7000ef          	jal	ra,7dec <pbuf_clen>
    70fa:	0009d783          	lhu	a5,0(s3)
    70fe:	40a78533          	sub	a0,a5,a0
    7102:	00a99023          	sh	a0,0(s3)
    7106:	855a                	mv	a0,s6
    7108:	c1ef906f          	j	526 <__riscv_restore_10>
    710c:	00faa023          	sw	a5,0(s5)
    7110:	bff1                	j	70ec <ip_reass+0x2d0>
    7112:	30fc                	lbu	a5,7(s1)
    7114:	20e8                	lbu	a0,6(s1)
    7116:	6b89                	lui	s7,0x2
    7118:	07a2                	slli	a5,a5,0x8
    711a:	8d5d                	or	a0,a0,a5
    711c:	f1cff0ef          	jal	ra,6838 <ntohs>
    7120:	1bfd                	addi	s7,s7,-1
    7122:	01757533          	and	a0,a0,s7
    7126:	0542                	slli	a0,a0,0x10
    7128:	8141                	srli	a0,a0,0x10
    712a:	e901                	bnez	a0,713a <ip_reass+0x31e>
    712c:	246a                	lhu	a0,14(s0)
    712e:	f0aff0ef          	jal	ra,6838 <ntohs>
    7132:	01757533          	and	a0,a0,s7
    7136:	d80512e3          	bnez	a0,6eba <ip_reass+0x9e>
    713a:	0009d783          	lhu	a5,0(s3)
    713e:	9d3e                	add	s10,s10,a5
    7140:	01a99023          	sh	s10,0(s3)
    7144:	30fc                	lbu	a5,7(s1)
    7146:	20e8                	lbu	a0,6(s1)
    7148:	07a2                	slli	a5,a5,0x8
    714a:	8d5d                	or	a0,a0,a5
    714c:	eecff0ef          	jal	ra,6838 <ntohs>
    7150:	01251793          	slli	a5,a0,0x12
    7154:	0207c263          	bltz	a5,7178 <ip_reass+0x35c>
    7158:	013b1513          	slli	a0,s6,0x13
    715c:	2c7c                	lbu	a5,30(s0)
    715e:	814d                	srli	a0,a0,0x13
    7160:	050e                	slli	a0,a0,0x3
    7162:	006c5c13          	srli	s8,s8,0x6
    7166:	9566                	add	a0,a0,s9
    7168:	03cc7c13          	andi	s8,s8,60
    716c:	0017e793          	ori	a5,a5,1
    7170:	41850533          	sub	a0,a0,s8
    7174:	ac7c                	sb	a5,30(s0)
    7176:	ac4a                	sh	a0,28(s0)
    7178:	00492483          	lw	s1,4(s2)
    717c:	30bc                	lbu	a5,3(s1)
    717e:	20a8                	lbu	a0,2(s1)
    7180:	07a2                	slli	a5,a5,0x8
    7182:	8d5d                	or	a0,a0,a5
    7184:	eb4ff0ef          	jal	ra,6838 <ntohs>
    7188:	309c                	lbu	a5,1(s1)
    718a:	8b2a                	mv	s6,a0
    718c:	2088                	lbu	a0,0(s1)
    718e:	07a2                	slli	a5,a5,0x8
    7190:	8d5d                	or	a0,a0,a5
    7192:	ea6ff0ef          	jal	ra,6838 <ntohs>
    7196:	30fc                	lbu	a5,7(s1)
    7198:	8baa                	mv	s7,a0
    719a:	20e8                	lbu	a0,6(s1)
    719c:	07a2                	slli	a5,a5,0x8
    719e:	006bdb93          	srli	s7,s7,0x6
    71a2:	8d5d                	or	a0,a0,a5
    71a4:	e94ff0ef          	jal	ra,6838 <ntohs>
    71a8:	054e                	slli	a0,a0,0x13
    71aa:	814d                	srli	a0,a0,0x13
    71ac:	00351613          	slli	a2,a0,0x3
    71b0:	00cb0533          	add	a0,s6,a2
    71b4:	03cbfb13          	andi	s6,s7,60
    71b8:	00492783          	lw	a5,4(s2)
    71bc:	41650533          	sub	a0,a0,s6
    71c0:	0542                	slli	a0,a0,0x10
    71c2:	00865713          	srli	a4,a2,0x8
    71c6:	8141                	srli	a0,a0,0x10
    71c8:	4054                	lw	a3,4(s0)
    71ca:	b3d8                	sb	a4,5(a5)
    71cc:	00855713          	srli	a4,a0,0x8
    71d0:	b3f8                	sb	a4,7(a5)
    71d2:	00078023          	sb	zero,0(a5)
    71d6:	000780a3          	sb	zero,1(a5)
    71da:	00078123          	sb	zero,2(a5)
    71de:	000781a3          	sb	zero,3(a5)
    71e2:	a3d0                	sb	a2,4(a5)
    71e4:	a3e8                	sb	a0,6(a5)
    71e6:	4885                	li	a7,1
    71e8:	4701                	li	a4,0
    71ea:	d20693e3          	bnez	a3,6f10 <ip_reass+0xf4>
    71ee:	e40713e3          	bnez	a4,7034 <ip_reass+0x218>
    71f2:	01242223          	sw	s2,4(s0)
    71f6:	b3b5                	j	6f62 <ip_reass+0x146>

000071f8 <ip_frag>:
    71f8:	aeef92ef          	jal	t0,4e6 <__riscv_save_12>
    71fc:	00452c03          	lw	s8,4(a0)
    7200:	1101                	addi	sp,sp,-32
    7202:	ca32                	sw	a2,20(sp)
    7204:	007c4703          	lbu	a4,7(s8)
    7208:	8daa                	mv	s11,a0
    720a:	006c4503          	lbu	a0,6(s8)
    720e:	0722                	slli	a4,a4,0x8
    7210:	0305db83          	lhu	s7,48(a1)
    7214:	8d59                	or	a0,a0,a4
    7216:	8cae                	mv	s9,a1
    7218:	e20ff0ef          	jal	ra,6838 <ntohs>
    721c:	6689                	lui	a3,0x2
    721e:	00d577b3          	and	a5,a0,a3
    7222:	fecb8a13          	addi	s4,s7,-20 # 1fec <USART_Init+0x8a>
    7226:	46a1                	li	a3,8
    7228:	02da4a33          	div	s4,s4,a3
    722c:	008dd483          	lhu	s1,8(s11)
    7230:	6709                	lui	a4,0x2
    7232:	177d                	addi	a4,a4,-1
    7234:	c63e                	sw	a5,12(sp)
    7236:	00e57933          	and	s2,a0,a4
    723a:	14b1                	addi	s1,s1,-20
    723c:	0942                	slli	s2,s2,0x10
    723e:	04c2                	slli	s1,s1,0x10
    7240:	01095913          	srli	s2,s2,0x10
    7244:	80c1                	srli	s1,s1,0x10
    7246:	4401                	li	s0,0
    7248:	4d51                	li	s10,20
    724a:	cc3a                	sw	a4,24(sp)
    724c:	0a42                	slli	s4,s4,0x10
    724e:	010a5a13          	srli	s4,s4,0x10
    7252:	003a1693          	slli	a3,s4,0x3
    7256:	01069793          	slli	a5,a3,0x10
    725a:	83c1                	srli	a5,a5,0x10
    725c:	c83e                	sw	a5,16(sp)
    725e:	fedb8793          	addi	a5,s7,-19
    7262:	ce3e                	sw	a5,28(sp)
    7264:	e489                	bnez	s1,726e <ip_frag+0x76>
    7266:	4501                	li	a0,0
    7268:	6105                	addi	sp,sp,32
    726a:	ab8f906f          	j	522 <__riscv_restore_12>
    726e:	47e2                	lw	a5,24(sp)
    7270:	8aa6                	mv	s5,s1
    7272:	00f97b33          	and	s6,s2,a5
    7276:	47b2                	lw	a5,12(sp)
    7278:	0167eb33          	or	s6,a5,s6
    727c:	47f2                	lw	a5,28(sp)
    727e:	00f4c663          	blt	s1,a5,728a <ip_frag+0x92>
    7282:	4ac2                	lw	s5,16(sp)
    7284:	6789                	lui	a5,0x2
    7286:	00fb6b33          	or	s6,s6,a5
    728a:	4601                	li	a2,0
    728c:	45d1                	li	a1,20
    728e:	4509                	li	a0,2
    7290:	1c5000ef          	jal	ra,7c54 <pbuf_alloc>
    7294:	89aa                	mv	s3,a0
    7296:	c939                	beqz	a0,72ec <ip_frag+0xf4>
    7298:	4148                	lw	a0,4(a0)
    729a:	4651                	li	a2,20
    729c:	85e2                	mv	a1,s8
    729e:	338040ef          	jal	ra,b5d6 <memcpy>
    72a2:	004da603          	lw	a2,4(s11)
    72a6:	0049ab83          	lw	s7,4(s3)
    72aa:	966a                	add	a2,a2,s10
    72ac:	00cda223          	sw	a2,4(s11)
    72b0:	00add603          	lhu	a2,10(s11)
    72b4:	41a606b3          	sub	a3,a2,s10
    72b8:	00dd9523          	sh	a3,10(s11)
    72bc:	8d56                	mv	s10,s5
    72be:	040d0963          	beqz	s10,7310 <ip_frag+0x118>
    72c2:	00add403          	lhu	s0,10(s11)
    72c6:	008d7363          	bgeu	s10,s0,72cc <ip_frag+0xd4>
    72ca:	846a                	mv	s0,s10
    72cc:	0442                	slli	s0,s0,0x10
    72ce:	8041                	srli	s0,s0,0x10
    72d0:	e401                	bnez	s0,72d8 <ip_frag+0xe0>
    72d2:	000dad83          	lw	s11,0(s11)
    72d6:	b7e5                	j	72be <ip_frag+0xc6>
    72d8:	4581                	li	a1,0
    72da:	4609                	li	a2,2
    72dc:	450d                	li	a0,3
    72de:	177000ef          	jal	ra,7c54 <pbuf_alloc>
    72e2:	85aa                	mv	a1,a0
    72e4:	e511                	bnez	a0,72f0 <ip_frag+0xf8>
    72e6:	854e                	mv	a0,s3
    72e8:	11f000ef          	jal	ra,7c06 <pbuf_free>
    72ec:	557d                	li	a0,-1
    72ee:	bfad                	j	7268 <ip_frag+0x70>
    72f0:	004da603          	lw	a2,4(s11)
    72f4:	a502                	sh	s0,8(a0)
    72f6:	a522                	sh	s0,10(a0)
    72f8:	c150                	sw	a2,4(a0)
    72fa:	854e                	mv	a0,s3
    72fc:	30d000ef          	jal	ra,7e08 <pbuf_cat>
    7300:	408d06b3          	sub	a3,s10,s0
    7304:	01069d13          	slli	s10,a3,0x10
    7308:	010d5d13          	srli	s10,s10,0x10
    730c:	fc0d13e3          	bnez	s10,72d2 <ip_frag+0xda>
    7310:	855a                	mv	a0,s6
    7312:	d18ff0ef          	jal	ra,682a <htons>
    7316:	00ab8323          	sb	a0,6(s7)
    731a:	8121                	srli	a0,a0,0x8
    731c:	00ab83a3          	sb	a0,7(s7)
    7320:	014a8513          	addi	a0,s5,20
    7324:	0542                	slli	a0,a0,0x10
    7326:	8141                	srli	a0,a0,0x10
    7328:	d02ff0ef          	jal	ra,682a <htons>
    732c:	00ab8123          	sb	a0,2(s7)
    7330:	8121                	srli	a0,a0,0x8
    7332:	00ab81a3          	sb	a0,3(s7)
    7336:	45d1                	li	a1,20
    7338:	000b8523          	sb	zero,10(s7)
    733c:	000b85a3          	sb	zero,11(s7)
    7340:	855e                	mv	a0,s7
    7342:	1f0040ef          	jal	ra,b532 <inet_chksum>
    7346:	014ca703          	lw	a4,20(s9)
    734a:	4652                	lw	a2,20(sp)
    734c:	00ab8523          	sb	a0,10(s7)
    7350:	8121                	srli	a0,a0,0x8
    7352:	00ab85a3          	sb	a0,11(s7)
    7356:	85ce                	mv	a1,s3
    7358:	8566                	mv	a0,s9
    735a:	9702                	jalr	a4
    735c:	415484b3          	sub	s1,s1,s5
    7360:	9952                	add	s2,s2,s4
    7362:	854e                	mv	a0,s3
    7364:	04c2                	slli	s1,s1,0x10
    7366:	0942                	slli	s2,s2,0x10
    7368:	09f000ef          	jal	ra,7c06 <pbuf_free>
    736c:	80c1                	srli	s1,s1,0x10
    736e:	01095913          	srli	s2,s2,0x10
    7372:	8d22                	mv	s10,s0
    7374:	bdc5                	j	7264 <ip_frag+0x6c>

00007376 <dhcp_set_state>:
    7376:	293c                	lbu	a5,18(a0)
    7378:	00b78563          	beq	a5,a1,7382 <dhcp_set_state+0xc>
    737c:	a92c                	sb	a1,18(a0)
    737e:	000509a3          	sb	zero,19(a0)
    7382:	8082                	ret

00007384 <dhcp_option>:
    7384:	2d5e                	lhu	a5,28(a0)
    7386:	4d18                	lw	a4,24(a0)
    7388:	00f706b3          	add	a3,a4,a5
    738c:	0eb68823          	sb	a1,240(a3) # 20f0 <WCHNET_GetMacAddr+0x1e>
    7390:	00278693          	addi	a3,a5,2 # 2002 <USART_Init+0xa0>
    7394:	0785                	addi	a5,a5,1
    7396:	07c2                	slli	a5,a5,0x10
    7398:	83c1                	srli	a5,a5,0x10
    739a:	ad56                	sh	a3,28(a0)
    739c:	97ba                	add	a5,a5,a4
    739e:	0ec78823          	sb	a2,240(a5)
    73a2:	8082                	ret

000073a4 <dhcp_option_byte>:
    73a4:	2d5a                	lhu	a4,28(a0)
    73a6:	4d1c                	lw	a5,24(a0)
    73a8:	00170693          	addi	a3,a4,1 # 2001 <USART_Init+0x9f>
    73ac:	ad56                	sh	a3,28(a0)
    73ae:	97ba                	add	a5,a5,a4
    73b0:	0eb78823          	sb	a1,240(a5)
    73b4:	8082                	ret

000073b6 <dhcp_option_long>:
    73b6:	2d5e                	lhu	a5,28(a0)
    73b8:	4d18                	lw	a4,24(a0)
    73ba:	0185d613          	srli	a2,a1,0x18
    73be:	00f706b3          	add	a3,a4,a5
    73c2:	0ec68823          	sb	a2,240(a3)
    73c6:	00178693          	addi	a3,a5,1
    73ca:	06c2                	slli	a3,a3,0x10
    73cc:	82c1                	srli	a3,a3,0x10
    73ce:	96ba                	add	a3,a3,a4
    73d0:	0105d613          	srli	a2,a1,0x10
    73d4:	0ec68823          	sb	a2,240(a3)
    73d8:	00278693          	addi	a3,a5,2
    73dc:	06c2                	slli	a3,a3,0x10
    73de:	82c1                	srli	a3,a3,0x10
    73e0:	96ba                	add	a3,a3,a4
    73e2:	0085d613          	srli	a2,a1,0x8
    73e6:	0ec68823          	sb	a2,240(a3)
    73ea:	00478693          	addi	a3,a5,4
    73ee:	078d                	addi	a5,a5,3
    73f0:	07c2                	slli	a5,a5,0x10
    73f2:	83c1                	srli	a5,a5,0x10
    73f4:	ad56                	sh	a3,28(a0)
    73f6:	97ba                	add	a5,a5,a4
    73f8:	0eb78823          	sb	a1,240(a5)
    73fc:	8082                	ret

000073fe <dhcp_option_trailer>:
    73fe:	c115                	beqz	a0,7422 <dhcp_option_trailer+0x24>
    7400:	2d5e                	lhu	a5,28(a0)
    7402:	4d18                	lw	a4,24(a0)
    7404:	04300613          	li	a2,67
    7408:	00178693          	addi	a3,a5,1
    740c:	ad56                	sh	a3,28(a0)
    740e:	97ba                	add	a5,a5,a4
    7410:	56fd                	li	a3,-1
    7412:	0ed78823          	sb	a3,240(a5)
    7416:	2d5e                	lhu	a5,28(a0)
    7418:	00f67663          	bgeu	a2,a5,7424 <dhcp_option_trailer+0x26>
    741c:	0037f693          	andi	a3,a5,3
    7420:	e291                	bnez	a3,7424 <dhcp_option_trailer+0x26>
    7422:	8082                	ret
    7424:	00178693          	addi	a3,a5,1
    7428:	ad56                	sh	a3,28(a0)
    742a:	97ba                	add	a5,a5,a4
    742c:	0e078823          	sb	zero,240(a5)
    7430:	b7dd                	j	7416 <dhcp_option_trailer+0x18>

00007432 <dhcp_create_request>:
    7432:	16050c63          	beqz	a0,75aa <dhcp_create_request+0x178>
    7436:	8e0f92ef          	jal	t0,516 <__riscv_save_0>
    743a:	02052903          	lw	s2,32(a0)
    743e:	57dd                	li	a5,-9
    7440:	16090263          	beqz	s2,75a4 <dhcp_create_request+0x172>
    7444:	84aa                	mv	s1,a0
    7446:	4601                	li	a2,0
    7448:	13400593          	li	a1,308
    744c:	4501                	li	a0,0
    744e:	007000ef          	jal	ra,7c54 <pbuf_alloc>
    7452:	00a92a23          	sw	a0,20(s2)
    7456:	872a                	mv	a4,a0
    7458:	57fd                	li	a5,-1
    745a:	14050563          	beqz	a0,75a4 <dhcp_create_request+0x172>
    745e:	01394683          	lbu	a3,19(s2)
    7462:	83418793          	addi	a5,gp,-1996 # 20000134 <xid.3256>
    7466:	e681                	bnez	a3,746e <dhcp_create_request+0x3c>
    7468:	4394                	lw	a3,0(a5)
    746a:	0685                	addi	a3,a3,1
    746c:	c394                	sw	a3,0(a5)
    746e:	4340                	lw	s0,4(a4)
    7470:	4388                	lw	a0,0(a5)
    7472:	4785                	li	a5,1
    7474:	00892c23          	sw	s0,24(s2)
    7478:	00a92023          	sw	a0,0(s2)
    747c:	a01c                	sb	a5,0(s0)
    747e:	b01c                	sb	a5,1(s0)
    7480:	4799                	li	a5,6
    7482:	a03c                	sb	a5,2(s0)
    7484:	000401a3          	sb	zero,3(s0)
    7488:	bbeff0ef          	jal	ra,6846 <htonl>
    748c:	00855793          	srli	a5,a0,0x8
    7490:	a048                	sb	a0,4(s0)
    7492:	b05c                	sb	a5,5(s0)
    7494:	01055793          	srli	a5,a0,0x10
    7498:	8161                	srli	a0,a0,0x18
    749a:	a07c                	sb	a5,6(s0)
    749c:	b068                	sb	a0,7(s0)
    749e:	01892403          	lw	s0,24(s2)
    74a2:	4729                	li	a4,10
    74a4:	00040423          	sb	zero,8(s0)
    74a8:	000404a3          	sb	zero,9(s0)
    74ac:	00040523          	sb	zero,10(s0)
    74b0:	000405a3          	sb	zero,11(s0)
    74b4:	00040623          	sb	zero,12(s0)
    74b8:	000406a3          	sb	zero,13(s0)
    74bc:	00040723          	sb	zero,14(s0)
    74c0:	000407a3          	sb	zero,15(s0)
    74c4:	01294783          	lbu	a5,18(s2)
    74c8:	00e78863          	beq	a5,a4,74d8 <dhcp_create_request+0xa6>
    74cc:	17f1                	addi	a5,a5,-4
    74ce:	0ff7f793          	andi	a5,a5,255
    74d2:	4705                	li	a4,1
    74d4:	00f76a63          	bltu	a4,a5,74e8 <dhcp_create_request+0xb6>
    74d8:	20dc                	lbu	a5,4(s1)
    74da:	a45c                	sb	a5,12(s0)
    74dc:	30dc                	lbu	a5,5(s1)
    74de:	b45c                	sb	a5,13(s0)
    74e0:	20fc                	lbu	a5,6(s1)
    74e2:	a47c                	sb	a5,14(s0)
    74e4:	30fc                	lbu	a5,7(s1)
    74e6:	b47c                	sb	a5,15(s0)
    74e8:	00040823          	sb	zero,16(s0)
    74ec:	000408a3          	sb	zero,17(s0)
    74f0:	00040923          	sb	zero,18(s0)
    74f4:	000409a3          	sb	zero,19(s0)
    74f8:	00040a23          	sb	zero,20(s0)
    74fc:	00040aa3          	sb	zero,21(s0)
    7500:	00040b23          	sb	zero,22(s0)
    7504:	00040ba3          	sb	zero,23(s0)
    7508:	00040c23          	sb	zero,24(s0)
    750c:	00040ca3          	sb	zero,25(s0)
    7510:	00040d23          	sb	zero,26(s0)
    7514:	00040da3          	sb	zero,27(s0)
    7518:	0284c583          	lbu	a1,40(s1)
    751c:	4781                	li	a5,0
    751e:	4641                	li	a2,16
    7520:	01079713          	slli	a4,a5,0x10
    7524:	8341                	srli	a4,a4,0x10
    7526:	4681                	li	a3,0
    7528:	00b77663          	bgeu	a4,a1,7534 <dhcp_create_request+0x102>
    752c:	00f48733          	add	a4,s1,a5
    7530:	02974683          	lbu	a3,41(a4)
    7534:	00f40733          	add	a4,s0,a5
    7538:	af54                	sb	a3,28(a4)
    753a:	0785                	addi	a5,a5,1
    753c:	fec792e3          	bne	a5,a2,7520 <dhcp_create_request+0xee>
    7540:	02c40713          	addi	a4,s0,44
    7544:	06c40793          	addi	a5,s0,108
    7548:	00070023          	sb	zero,0(a4)
    754c:	0705                	addi	a4,a4,1
    754e:	fee79de3          	bne	a5,a4,7548 <dhcp_create_request+0x116>
    7552:	0ec40713          	addi	a4,s0,236
    7556:	00078023          	sb	zero,0(a5)
    755a:	0785                	addi	a5,a5,1
    755c:	fee79de3          	bne	a5,a4,7556 <dhcp_create_request+0x124>
    7560:	63825537          	lui	a0,0x63825
    7564:	36350513          	addi	a0,a0,867 # 63825363 <__freertos_irq_stack_top+0x43815363>
    7568:	adeff0ef          	jal	ra,6846 <htonl>
    756c:	00855793          	srli	a5,a0,0x8
    7570:	0ea40623          	sb	a0,236(s0)
    7574:	0ef406a3          	sb	a5,237(s0)
    7578:	01892603          	lw	a2,24(s2)
    757c:	01055793          	srli	a5,a0,0x10
    7580:	8161                	srli	a0,a0,0x18
    7582:	0ef40723          	sb	a5,238(s0)
    7586:	0ea407a3          	sb	a0,239(s0)
    758a:	00091e23          	sh	zero,28(s2)
    758e:	4781                	li	a5,0
    7590:	04400713          	li	a4,68
    7594:	00f606b3          	add	a3,a2,a5
    7598:	0ef68823          	sb	a5,240(a3)
    759c:	0785                	addi	a5,a5,1
    759e:	fee79be3          	bne	a5,a4,7594 <dhcp_create_request+0x162>
    75a2:	4781                	li	a5,0
    75a4:	853e                	mv	a0,a5
    75a6:	f95f806f          	j	53a <__riscv_restore_0>
    75aa:	57d9                	li	a5,-10
    75ac:	853e                	mv	a0,a5
    75ae:	8082                	ret

000075b0 <dhcp_delete_request>:
    75b0:	cd11                	beqz	a0,75cc <dhcp_delete_request+0x1c>
    75b2:	f65f82ef          	jal	t0,516 <__riscv_save_0>
    75b6:	5100                	lw	s0,32(a0)
    75b8:	c801                	beqz	s0,75c8 <dhcp_delete_request+0x18>
    75ba:	4848                	lw	a0,20(s0)
    75bc:	c111                	beqz	a0,75c0 <dhcp_delete_request+0x10>
    75be:	25a1                	jal	7c06 <pbuf_free>
    75c0:	00042a23          	sw	zero,20(s0)
    75c4:	00042c23          	sw	zero,24(s0)
    75c8:	f73f806f          	j	53a <__riscv_restore_0>
    75cc:	8082                	ret

000075ce <dhcp_arp_reply>:
    75ce:	18050063          	beqz	a0,774e <dhcp_arp_reply+0x180>
    75d2:	f45f82ef          	jal	t0,516 <__riscv_save_0>
    75d6:	5100                	lw	s0,32(a0)
    75d8:	16040963          	beqz	s0,774a <dhcp_arp_reply+0x17c>
    75dc:	2838                	lbu	a4,18(s0)
    75de:	47a1                	li	a5,8
    75e0:	16f71563          	bne	a4,a5,774a <dhcp_arp_reply+0x17c>
    75e4:	3198                	lbu	a4,1(a1)
    75e6:	219c                	lbu	a5,0(a1)
    75e8:	0722                	slli	a4,a4,0x8
    75ea:	8f5d                	or	a4,a4,a5
    75ec:	21bc                	lbu	a5,2(a1)
    75ee:	07c2                	slli	a5,a5,0x10
    75f0:	8f5d                	or	a4,a4,a5
    75f2:	31bc                	lbu	a5,3(a1)
    75f4:	07e2                	slli	a5,a5,0x18
    75f6:	8fd9                	or	a5,a5,a4
    75f8:	5418                	lw	a4,40(s0)
    75fa:	14e79863          	bne	a5,a4,774a <dhcp_arp_reply+0x17c>
    75fe:	84aa                	mv	s1,a0
    7600:	45b1                	li	a1,12
    7602:	8522                	mv	a0,s0
    7604:	d73ff0ef          	jal	ra,7376 <dhcp_set_state>
    7608:	8526                	mv	a0,s1
    760a:	e29ff0ef          	jal	ra,7432 <dhcp_create_request>
    760e:	12051963          	bnez	a0,7740 <dhcp_arp_reply+0x172>
    7612:	4605                	li	a2,1
    7614:	03500593          	li	a1,53
    7618:	8522                	mv	a0,s0
    761a:	d6bff0ef          	jal	ra,7384 <dhcp_option>
    761e:	4591                	li	a1,4
    7620:	8522                	mv	a0,s0
    7622:	d83ff0ef          	jal	ra,73a4 <dhcp_option_byte>
    7626:	4611                	li	a2,4
    7628:	03200593          	li	a1,50
    762c:	8522                	mv	a0,s0
    762e:	d57ff0ef          	jal	ra,7384 <dhcp_option>
    7632:	5408                	lw	a0,40(s0)
    7634:	a36ff0ef          	jal	ra,686a <ntohl>
    7638:	85aa                	mv	a1,a0
    763a:	8522                	mv	a0,s0
    763c:	d7bff0ef          	jal	ra,73b6 <dhcp_option_long>
    7640:	4611                	li	a2,4
    7642:	03600593          	li	a1,54
    7646:	8522                	mv	a0,s0
    7648:	d3dff0ef          	jal	ra,7384 <dhcp_option>
    764c:	5048                	lw	a0,36(s0)
    764e:	a1cff0ef          	jal	ra,686a <ntohl>
    7652:	85aa                	mv	a1,a0
    7654:	8522                	mv	a0,s0
    7656:	d61ff0ef          	jal	ra,73b6 <dhcp_option_long>
    765a:	461d                	li	a2,7
    765c:	03d00593          	li	a1,61
    7660:	8522                	mv	a0,s0
    7662:	d23ff0ef          	jal	ra,7384 <dhcp_option>
    7666:	2c5e                	lhu	a5,28(s0)
    7668:	4c18                	lw	a4,24(s0)
    766a:	4605                	li	a2,1
    766c:	8522                	mv	a0,s0
    766e:	00f706b3          	add	a3,a4,a5
    7672:	0ec68823          	sb	a2,240(a3)
    7676:	00278613          	addi	a2,a5,2
    767a:	0642                	slli	a2,a2,0x10
    767c:	8241                	srli	a2,a2,0x10
    767e:	ac52                	sh	a2,28(s0)
    7680:	00178693          	addi	a3,a5,1
    7684:	0294c583          	lbu	a1,41(s1)
    7688:	06c2                	slli	a3,a3,0x10
    768a:	82c1                	srli	a3,a3,0x10
    768c:	96ba                	add	a3,a3,a4
    768e:	0eb68823          	sb	a1,240(a3)
    7692:	00378693          	addi	a3,a5,3
    7696:	06c2                	slli	a3,a3,0x10
    7698:	82c1                	srli	a3,a3,0x10
    769a:	ac56                	sh	a3,28(s0)
    769c:	02a4c583          	lbu	a1,42(s1)
    76a0:	963a                	add	a2,a2,a4
    76a2:	96ba                	add	a3,a3,a4
    76a4:	0eb60823          	sb	a1,240(a2)
    76a8:	00478613          	addi	a2,a5,4
    76ac:	0642                	slli	a2,a2,0x10
    76ae:	8241                	srli	a2,a2,0x10
    76b0:	ac52                	sh	a2,28(s0)
    76b2:	02b4c583          	lbu	a1,43(s1)
    76b6:	963a                	add	a2,a2,a4
    76b8:	0eb68823          	sb	a1,240(a3)
    76bc:	00578693          	addi	a3,a5,5
    76c0:	06c2                	slli	a3,a3,0x10
    76c2:	82c1                	srli	a3,a3,0x10
    76c4:	ac56                	sh	a3,28(s0)
    76c6:	02c4c583          	lbu	a1,44(s1)
    76ca:	96ba                	add	a3,a3,a4
    76cc:	0eb60823          	sb	a1,240(a2)
    76d0:	00678613          	addi	a2,a5,6
    76d4:	0642                	slli	a2,a2,0x10
    76d6:	8241                	srli	a2,a2,0x10
    76d8:	ac52                	sh	a2,28(s0)
    76da:	02d4c583          	lbu	a1,45(s1)
    76de:	079d                	addi	a5,a5,7
    76e0:	9732                	add	a4,a4,a2
    76e2:	0eb68823          	sb	a1,240(a3)
    76e6:	ac5e                	sh	a5,28(s0)
    76e8:	02e4c783          	lbu	a5,46(s1)
    76ec:	0ef70823          	sb	a5,240(a4)
    76f0:	d0fff0ef          	jal	ra,73fe <dhcp_option_trailer>
    76f4:	2c4e                	lhu	a1,28(s0)
    76f6:	4848                	lw	a0,20(s0)
    76f8:	0f058593          	addi	a1,a1,240
    76fc:	05c2                	slli	a1,a1,0x10
    76fe:	81c1                	srli	a1,a1,0x10
    7700:	2d51                	jal	7d94 <pbuf_realloc>
    7702:	02844703          	lbu	a4,40(s0)
    7706:	4c1c                	lw	a5,24(s0)
    7708:	484c                	lw	a1,20(s0)
    770a:	4048                	lw	a0,4(s0)
    770c:	a7d8                	sb	a4,12(a5)
    770e:	02944703          	lbu	a4,41(s0)
    7712:	0044a903          	lw	s2,4(s1)
    7716:	b7d8                	sb	a4,13(a5)
    7718:	02a44703          	lbu	a4,42(s0)
    771c:	04300693          	li	a3,67
    7720:	86c18613          	addi	a2,gp,-1940 # 2000016c <ip_addr_broadcast>
    7724:	a7f8                	sb	a4,14(a5)
    7726:	02b44703          	lbu	a4,43(s0)
    772a:	b7f8                	sb	a4,15(a5)
    772c:	0004a223          	sw	zero,4(s1)
    7730:	8726                	mv	a4,s1
    7732:	79e030ef          	jal	ra,aed0 <udp_sendto_if>
    7736:	8526                	mv	a0,s1
    7738:	0124a223          	sw	s2,4(s1)
    773c:	e75ff0ef          	jal	ra,75b0 <dhcp_delete_request>
    7740:	383c                	lbu	a5,19(s0)
    7742:	0785                	addi	a5,a5,1
    7744:	b83c                	sb	a5,19(s0)
    7746:	4785                	li	a5,1
    7748:	ac7e                	sh	a5,30(s0)
    774a:	df1f806f          	j	53a <__riscv_restore_0>
    774e:	8082                	ret

00007750 <lwip_init>:
    7750:	dc7f82ef          	jal	t0,516 <__riscv_save_0>
    7754:	2811                	jal	7768 <mem_init>
    7756:	24bd                	jal	79c4 <memp_init>
    7758:	2000a7b7          	lui	a5,0x2000a
    775c:	3007a783          	lw	a5,768(a5) # 2000a300 <DNSInf+0x8>
    7760:	c391                	beqz	a5,7764 <lwip_init+0x14>
    7762:	9782                	jalr	a5
    7764:	dd7f806f          	j	53a <__riscv_restore_0>

00007768 <mem_init>:
    7768:	20007737          	lui	a4,0x20007
    776c:	3a770713          	addi	a4,a4,935 # 200073a7 <Mem_Heap_Memory+0x3>
    7770:	9b71                	andi	a4,a4,-4
    7772:	9ce1a223          	sw	a4,-1596(gp) # 200002c4 <ram>
    7776:	2000a7b7          	lui	a5,0x2000a
    777a:	3647a783          	lw	a5,868(a5) # 2000a364 <WCHCfg+0x8>
    777e:	00071123          	sh	zero,2(a4)
    7782:	078d                	addi	a5,a5,3
    7784:	9bf1                	andi	a5,a5,-4
    7786:	01079693          	slli	a3,a5,0x10
    778a:	82c1                	srli	a3,a3,0x10
    778c:	97ba                	add	a5,a5,a4
    778e:	a316                	sh	a3,0(a4)
    7790:	00070223          	sb	zero,4(a4)
    7794:	9cf1a423          	sw	a5,-1592(gp) # 200002c8 <ram_end>
    7798:	4605                	li	a2,1
    779a:	a3d0                	sb	a2,4(a5)
    779c:	a396                	sh	a3,0(a5)
    779e:	a3b6                	sh	a3,2(a5)
    77a0:	9ce1a023          	sw	a4,-1600(gp) # 200002c0 <lfree>
    77a4:	8082                	ret

000077a6 <mem_free>:
    77a6:	c149                	beqz	a0,7828 <mem_free+0x82>
    77a8:	9c41a783          	lw	a5,-1596(gp) # 200002c4 <ram>
    77ac:	06f56e63          	bltu	a0,a5,7828 <mem_free+0x82>
    77b0:	9c81a583          	lw	a1,-1592(gp) # 200002c8 <ram_end>
    77b4:	06b57a63          	bgeu	a0,a1,7828 <mem_free+0x82>
    77b8:	9c01a683          	lw	a3,-1600(gp) # 200002c0 <lfree>
    77bc:	ff850613          	addi	a2,a0,-8
    77c0:	fe050e23          	sb	zero,-4(a0)
    77c4:	9c018713          	addi	a4,gp,-1600 # 200002c0 <lfree>
    77c8:	00d67363          	bgeu	a2,a3,77ce <mem_free+0x28>
    77cc:	c310                	sw	a2,0(a4)
    77ce:	ff855683          	lhu	a3,-8(a0)
    77d2:	96be                	add	a3,a3,a5
    77d4:	02d60463          	beq	a2,a3,77fc <mem_free+0x56>
    77d8:	0046c803          	lbu	a6,4(a3)
    77dc:	02081063          	bnez	a6,77fc <mem_free+0x56>
    77e0:	00d58e63          	beq	a1,a3,77fc <mem_free+0x56>
    77e4:	430c                	lw	a1,0(a4)
    77e6:	00b69363          	bne	a3,a1,77ec <mem_free+0x46>
    77ea:	c310                	sw	a2,0(a4)
    77ec:	228e                	lhu	a1,0(a3)
    77ee:	feb51c23          	sh	a1,-8(a0)
    77f2:	2296                	lhu	a3,0(a3)
    77f4:	40f605b3          	sub	a1,a2,a5
    77f8:	96be                	add	a3,a3,a5
    77fa:	a2ae                	sh	a1,2(a3)
    77fc:	ffa55583          	lhu	a1,-6(a0)
    7800:	00b786b3          	add	a3,a5,a1
    7804:	02d60263          	beq	a2,a3,7828 <mem_free+0x82>
    7808:	0046c803          	lbu	a6,4(a3)
    780c:	00081e63          	bnez	a6,7828 <mem_free+0x82>
    7810:	00072803          	lw	a6,0(a4)
    7814:	01061363          	bne	a2,a6,781a <mem_free+0x74>
    7818:	c314                	sw	a3,0(a4)
    781a:	ff855703          	lhu	a4,-8(a0)
    781e:	a29a                	sh	a4,0(a3)
    7820:	ff855703          	lhu	a4,-8(a0)
    7824:	97ba                	add	a5,a5,a4
    7826:	a3ae                	sh	a1,2(a5)
    7828:	8082                	ret

0000782a <mem_realloc>:
    782a:	058d                	addi	a1,a1,3
    782c:	05c2                	slli	a1,a1,0x10
    782e:	81c1                	srli	a1,a1,0x10
    7830:	99f1                	andi	a1,a1,-4
    7832:	05c2                	slli	a1,a1,0x10
    7834:	81c1                	srli	a1,a1,0x10
    7836:	4731                	li	a4,12
    7838:	87ae                	mv	a5,a1
    783a:	00e5f363          	bgeu	a1,a4,7840 <mem_realloc+0x16>
    783e:	47b1                	li	a5,12
    7840:	2000a737          	lui	a4,0x2000a
    7844:	36472603          	lw	a2,868(a4) # 2000a364 <WCHCfg+0x8>
    7848:	07c2                	slli	a5,a5,0x10
    784a:	83c1                	srli	a5,a5,0x10
    784c:	060d                	addi	a2,a2,3
    784e:	9a71                	andi	a2,a2,-4
    7850:	0af66063          	bltu	a2,a5,78f0 <mem_realloc+0xc6>
    7854:	9c41a703          	lw	a4,-1596(gp) # 200002c4 <ram>
    7858:	08e56d63          	bltu	a0,a4,78f2 <mem_realloc+0xc8>
    785c:	9c81a683          	lw	a3,-1592(gp) # 200002c8 <ram_end>
    7860:	08d57963          	bgeu	a0,a3,78f2 <mem_realloc+0xc8>
    7864:	ff850693          	addi	a3,a0,-8
    7868:	ff855883          	lhu	a7,-8(a0)
    786c:	8e99                	sub	a3,a3,a4
    786e:	06c2                	slli	a3,a3,0x10
    7870:	82c1                	srli	a3,a3,0x10
    7872:	ff888593          	addi	a1,a7,-8
    7876:	8d95                	sub	a1,a1,a3
    7878:	05c2                	slli	a1,a1,0x10
    787a:	81c1                	srli	a1,a1,0x10
    787c:	06f5ea63          	bltu	a1,a5,78f0 <mem_realloc+0xc6>
    7880:	06f58963          	beq	a1,a5,78f2 <mem_realloc+0xc8>
    7884:	01170333          	add	t1,a4,a7
    7888:	00434803          	lbu	a6,4(t1) # 80000004 <__freertos_irq_stack_top+0x5fff0004>
    788c:	02081463          	bnez	a6,78b4 <mem_realloc+0x8a>
    7890:	00868593          	addi	a1,a3,8
    7894:	9c018813          	addi	a6,gp,-1600 # 200002c0 <lfree>
    7898:	97ae                	add	a5,a5,a1
    789a:	00082e03          	lw	t3,0(a6)
    789e:	07c2                	slli	a5,a5,0x10
    78a0:	83c1                	srli	a5,a5,0x10
    78a2:	00035883          	lhu	a7,0(t1)
    78a6:	00f705b3          	add	a1,a4,a5
    78aa:	026e1663          	bne	t3,t1,78d6 <mem_realloc+0xac>
    78ae:	00b82023          	sw	a1,0(a6)
    78b2:	a015                	j	78d6 <mem_realloc+0xac>
    78b4:	01478813          	addi	a6,a5,20
    78b8:	0305ed63          	bltu	a1,a6,78f2 <mem_realloc+0xc8>
    78bc:	00868593          	addi	a1,a3,8
    78c0:	97ae                	add	a5,a5,a1
    78c2:	9c018813          	addi	a6,gp,-1600 # 200002c0 <lfree>
    78c6:	07c2                	slli	a5,a5,0x10
    78c8:	00082303          	lw	t1,0(a6)
    78cc:	83c1                	srli	a5,a5,0x10
    78ce:	00f705b3          	add	a1,a4,a5
    78d2:	fc65eee3          	bltu	a1,t1,78ae <mem_realloc+0x84>
    78d6:	01159023          	sh	a7,0(a1)
    78da:	a1b6                	sh	a3,2(a1)
    78dc:	00058223          	sb	zero,4(a1)
    78e0:	fef51c23          	sh	a5,-8(a0)
    78e4:	2196                	lhu	a3,0(a1)
    78e6:	00d60663          	beq	a2,a3,78f2 <mem_realloc+0xc8>
    78ea:	9736                	add	a4,a4,a3
    78ec:	a33e                	sh	a5,2(a4)
    78ee:	8082                	ret
    78f0:	4501                	li	a0,0
    78f2:	8082                	ret

000078f4 <mem_malloc>:
    78f4:	c539                	beqz	a0,7942 <mem_malloc+0x4e>
    78f6:	00350713          	addi	a4,a0,3
    78fa:	0742                	slli	a4,a4,0x10
    78fc:	8341                	srli	a4,a4,0x10
    78fe:	9b71                	andi	a4,a4,-4
    7900:	0742                	slli	a4,a4,0x10
    7902:	8341                	srli	a4,a4,0x10
    7904:	46b1                	li	a3,12
    7906:	87ba                	mv	a5,a4
    7908:	00d77363          	bgeu	a4,a3,790e <mem_malloc+0x1a>
    790c:	47b1                	li	a5,12
    790e:	2000a737          	lui	a4,0x2000a
    7912:	36472603          	lw	a2,868(a4) # 2000a364 <WCHCfg+0x8>
    7916:	07c2                	slli	a5,a5,0x10
    7918:	83c1                	srli	a5,a5,0x10
    791a:	060d                	addi	a2,a2,3
    791c:	9a71                	andi	a2,a2,-4
    791e:	4501                	li	a0,0
    7920:	02f66263          	bltu	a2,a5,7944 <mem_malloc+0x50>
    7924:	9c01a703          	lw	a4,-1600(gp) # 200002c0 <lfree>
    7928:	9c41ae83          	lw	t4,-1596(gp) # 200002c4 <ram>
    792c:	9c018593          	addi	a1,gp,-1600 # 200002c0 <lfree>
    7930:	40f60333          	sub	t1,a2,a5
    7934:	41d706b3          	sub	a3,a4,t4
    7938:	06c2                	slli	a3,a3,0x10
    793a:	82c1                	srli	a3,a3,0x10
    793c:	5e61                	li	t3,-8
    793e:	0066e463          	bltu	a3,t1,7946 <mem_malloc+0x52>
    7942:	4501                	li	a0,0
    7944:	8082                	ret
    7946:	00de8533          	add	a0,t4,a3
    794a:	00454803          	lbu	a6,4(a0)
    794e:	00055883          	lhu	a7,0(a0)
    7952:	06081763          	bnez	a6,79c0 <mem_malloc+0xcc>
    7956:	40de0833          	sub	a6,t3,a3
    795a:	9846                	add	a6,a6,a7
    795c:	06f86263          	bltu	a6,a5,79c0 <mem_malloc+0xcc>
    7960:	01478313          	addi	t1,a5,20
    7964:	04686263          	bltu	a6,t1,79a8 <mem_malloc+0xb4>
    7968:	07a1                	addi	a5,a5,8
    796a:	97b6                	add	a5,a5,a3
    796c:	07c2                	slli	a5,a5,0x10
    796e:	83c1                	srli	a5,a5,0x10
    7970:	00fe8833          	add	a6,t4,a5
    7974:	01181023          	sh	a7,0(a6)
    7978:	00d81123          	sh	a3,2(a6)
    797c:	00080223          	sb	zero,4(a6)
    7980:	4685                	li	a3,1
    7982:	a11e                	sh	a5,0(a0)
    7984:	a154                	sb	a3,4(a0)
    7986:	00085683          	lhu	a3,0(a6)
    798a:	00d60463          	beq	a2,a3,7992 <mem_malloc+0x9e>
    798e:	96f6                	add	a3,a3,t4
    7990:	a2be                	sh	a5,2(a3)
    7992:	00a71963          	bne	a4,a0,79a4 <mem_malloc+0xb0>
    7996:	9c81a683          	lw	a3,-1592(gp) # 200002c8 <ram_end>
    799a:	4781                	li	a5,0
    799c:	2350                	lbu	a2,4(a4)
    799e:	ee01                	bnez	a2,79b6 <mem_malloc+0xc2>
    79a0:	c391                	beqz	a5,79a4 <mem_malloc+0xb0>
    79a2:	c198                	sw	a4,0(a1)
    79a4:	0521                	addi	a0,a0,8
    79a6:	8082                	ret
    79a8:	4785                	li	a5,1
    79aa:	a15c                	sb	a5,4(a0)
    79ac:	b7dd                	j	7992 <mem_malloc+0x9e>
    79ae:	231a                	lhu	a4,0(a4)
    79b0:	4785                	li	a5,1
    79b2:	9776                	add	a4,a4,t4
    79b4:	b7e5                	j	799c <mem_malloc+0xa8>
    79b6:	fee69ce3          	bne	a3,a4,79ae <mem_malloc+0xba>
    79ba:	d7ed                	beqz	a5,79a4 <mem_malloc+0xb0>
    79bc:	c194                	sw	a3,0(a1)
    79be:	b7dd                	j	79a4 <mem_malloc+0xb0>
    79c0:	86c6                	mv	a3,a7
    79c2:	bfb5                	j	793e <mem_malloc+0x4a>

000079c4 <memp_init>:
    79c4:	8381a583          	lw	a1,-1992(gp) # 20000138 <memp_num>
    79c8:	83c1a683          	lw	a3,-1988(gp) # 2000013c <memp_sizes>
    79cc:	200087b7          	lui	a5,0x20008
    79d0:	62378793          	addi	a5,a5,1571 # 20008623 <Memp_Memory+0x3>
    79d4:	2000a737          	lui	a4,0x2000a
    79d8:	9bf1                	andi	a5,a5,-4
    79da:	3c070713          	addi	a4,a4,960 # 2000a3c0 <memp_tab>
    79de:	01068513          	addi	a0,a3,16
    79e2:	0005d803          	lhu	a6,0(a1)
    79e6:	00072023          	sw	zero,0(a4)
    79ea:	4601                	li	a2,0
    79ec:	00c81863          	bne	a6,a2,79fc <memp_init+0x38>
    79f0:	0689                	addi	a3,a3,2
    79f2:	0711                	addi	a4,a4,4
    79f4:	0589                	addi	a1,a1,2
    79f6:	fea696e3          	bne	a3,a0,79e2 <memp_init+0x1e>
    79fa:	8082                	ret
    79fc:	00072883          	lw	a7,0(a4)
    7a00:	0605                	addi	a2,a2,1
    7a02:	0642                	slli	a2,a2,0x10
    7a04:	0117a023          	sw	a7,0(a5)
    7a08:	0006d883          	lhu	a7,0(a3)
    7a0c:	c31c                	sw	a5,0(a4)
    7a0e:	8241                	srli	a2,a2,0x10
    7a10:	97c6                	add	a5,a5,a7
    7a12:	bfe9                	j	79ec <memp_init+0x28>

00007a14 <memp_malloc>:
    7a14:	479d                	li	a5,7
    7a16:	00a7ed63          	bltu	a5,a0,7a30 <memp_malloc+0x1c>
    7a1a:	2000a7b7          	lui	a5,0x2000a
    7a1e:	050a                	slli	a0,a0,0x2
    7a20:	3c078793          	addi	a5,a5,960 # 2000a3c0 <memp_tab>
    7a24:	97aa                	add	a5,a5,a0
    7a26:	4388                	lw	a0,0(a5)
    7a28:	c509                	beqz	a0,7a32 <memp_malloc+0x1e>
    7a2a:	4118                	lw	a4,0(a0)
    7a2c:	c398                	sw	a4,0(a5)
    7a2e:	8082                	ret
    7a30:	4501                	li	a0,0
    7a32:	8082                	ret

00007a34 <memp_free>:
    7a34:	c999                	beqz	a1,7a4a <memp_free+0x16>
    7a36:	00251793          	slli	a5,a0,0x2
    7a3a:	2000a537          	lui	a0,0x2000a
    7a3e:	3c050513          	addi	a0,a0,960 # 2000a3c0 <memp_tab>
    7a42:	953e                	add	a0,a0,a5
    7a44:	411c                	lw	a5,0(a0)
    7a46:	c19c                	sw	a5,0(a1)
    7a48:	c10c                	sw	a1,0(a0)
    7a4a:	8082                	ret

00007a4c <netif_set_ipaddr>:
    7a4c:	ab1f82ef          	jal	t0,4fc <__riscv_save_4>
    7a50:	3198                	lbu	a4,1(a1)
    7a52:	219c                	lbu	a5,0(a1)
    7a54:	84aa                	mv	s1,a0
    7a56:	0722                	slli	a4,a4,0x8
    7a58:	8f5d                	or	a4,a4,a5
    7a5a:	21bc                	lbu	a5,2(a1)
    7a5c:	842e                	mv	s0,a1
    7a5e:	07c2                	slli	a5,a5,0x10
    7a60:	8f5d                	or	a4,a4,a5
    7a62:	31bc                	lbu	a5,3(a1)
    7a64:	07e2                	slli	a5,a5,0x18
    7a66:	8fd9                	or	a5,a5,a4
    7a68:	4158                	lw	a4,4(a0)
    7a6a:	00e79f63          	bne	a5,a4,7a88 <netif_set_ipaddr+0x3c>
    7a6e:	3018                	lbu	a4,1(s0)
    7a70:	201c                	lbu	a5,0(s0)
    7a72:	0722                	slli	a4,a4,0x8
    7a74:	8f5d                	or	a4,a4,a5
    7a76:	203c                	lbu	a5,2(s0)
    7a78:	07c2                	slli	a5,a5,0x10
    7a7a:	8f5d                	or	a4,a4,a5
    7a7c:	303c                	lbu	a5,3(s0)
    7a7e:	07e2                	slli	a5,a5,0x18
    7a80:	8fd9                	or	a5,a5,a4
    7a82:	c0dc                	sw	a5,4(s1)
    7a84:	aadf806f          	j	530 <__riscv_restore_4>
    7a88:	9dc1a503          	lw	a0,-1572(gp) # 200002dc <tcp_active_pcbs>
    7a8c:	4901                	li	s2,0
    7a8e:	06400993          	li	s3,100
    7a92:	c105                	beqz	a0,7ab2 <netif_set_ipaddr+0x66>
    7a94:	4118                	lw	a4,0(a0)
    7a96:	40dc                	lw	a5,4(s1)
    7a98:	00c52a03          	lw	s4,12(a0)
    7a9c:	04f71163          	bne	a4,a5,7ade <netif_set_ipaddr+0x92>
    7aa0:	4585                	li	a1,1
    7aa2:	64f000ef          	jal	ra,88f0 <tcp_abandon>
    7aa6:	00190793          	addi	a5,s2,1
    7aaa:	0ff7f793          	andi	a5,a5,255
    7aae:	0329f763          	bgeu	s3,s2,7adc <netif_set_ipaddr+0x90>
    7ab2:	9e41a783          	lw	a5,-1564(gp) # 200002e4 <tcp_listen_pcbs>
    7ab6:	dfc5                	beqz	a5,7a6e <netif_set_ipaddr+0x22>
    7ab8:	4398                	lw	a4,0(a5)
    7aba:	cf19                	beqz	a4,7ad8 <netif_set_ipaddr+0x8c>
    7abc:	40d4                	lw	a3,4(s1)
    7abe:	00d71d63          	bne	a4,a3,7ad8 <netif_set_ipaddr+0x8c>
    7ac2:	3014                	lbu	a3,1(s0)
    7ac4:	2018                	lbu	a4,0(s0)
    7ac6:	06a2                	slli	a3,a3,0x8
    7ac8:	8ed9                	or	a3,a3,a4
    7aca:	2038                	lbu	a4,2(s0)
    7acc:	0742                	slli	a4,a4,0x10
    7ace:	8ed9                	or	a3,a3,a4
    7ad0:	3038                	lbu	a4,3(s0)
    7ad2:	0762                	slli	a4,a4,0x18
    7ad4:	8f55                	or	a4,a4,a3
    7ad6:	c398                	sw	a4,0(a5)
    7ad8:	47dc                	lw	a5,12(a5)
    7ada:	bff1                	j	7ab6 <netif_set_ipaddr+0x6a>
    7adc:	893e                	mv	s2,a5
    7ade:	8552                	mv	a0,s4
    7ae0:	bf4d                	j	7a92 <netif_set_ipaddr+0x46>

00007ae2 <netif_set_addr>:
    7ae2:	a35f82ef          	jal	t0,516 <__riscv_save_0>
    7ae6:	1141                	addi	sp,sp,-16
    7ae8:	c632                	sw	a2,12(sp)
    7aea:	c436                	sw	a3,8(sp)
    7aec:	842a                	mv	s0,a0
    7aee:	f5fff0ef          	jal	ra,7a4c <netif_set_ipaddr>
    7af2:	4632                	lw	a2,12(sp)
    7af4:	46a2                	lw	a3,8(sp)
    7af6:	4781                	li	a5,0
    7af8:	ca19                	beqz	a2,7b0e <netif_set_addr+0x2c>
    7afa:	3218                	lbu	a4,1(a2)
    7afc:	221c                	lbu	a5,0(a2)
    7afe:	0722                	slli	a4,a4,0x8
    7b00:	8f5d                	or	a4,a4,a5
    7b02:	223c                	lbu	a5,2(a2)
    7b04:	07c2                	slli	a5,a5,0x10
    7b06:	8f5d                	or	a4,a4,a5
    7b08:	323c                	lbu	a5,3(a2)
    7b0a:	07e2                	slli	a5,a5,0x18
    7b0c:	8fd9                	or	a5,a5,a4
    7b0e:	c41c                	sw	a5,8(s0)
    7b10:	4781                	li	a5,0
    7b12:	ca99                	beqz	a3,7b28 <netif_set_addr+0x46>
    7b14:	3298                	lbu	a4,1(a3)
    7b16:	229c                	lbu	a5,0(a3)
    7b18:	0722                	slli	a4,a4,0x8
    7b1a:	8f5d                	or	a4,a4,a5
    7b1c:	22bc                	lbu	a5,2(a3)
    7b1e:	07c2                	slli	a5,a5,0x10
    7b20:	8f5d                	or	a4,a4,a5
    7b22:	32bc                	lbu	a5,3(a3)
    7b24:	07e2                	slli	a5,a5,0x18
    7b26:	8fd9                	or	a5,a5,a4
    7b28:	c45c                	sw	a5,12(s0)
    7b2a:	0141                	addi	sp,sp,16
    7b2c:	a0ff806f          	j	53a <__riscv_restore_0>

00007b30 <netif_add>:
    7b30:	9e7f82ef          	jal	t0,516 <__riscv_save_0>
    7b34:	cd58                	sw	a4,28(a0)
    7b36:	9d418713          	addi	a4,gp,-1580 # 200002d4 <netifnum.2471>
    7b3a:	00074883          	lbu	a7,0(a4)
    7b3e:	1141                	addi	sp,sp,-16
    7b40:	00052223          	sw	zero,4(a0)
    7b44:	00052423          	sw	zero,8(a0)
    7b48:	00052623          	sw	zero,12(a0)
    7b4c:	02050923          	sb	zero,50(a0)
    7b50:	02052023          	sw	zero,32(a0)
    7b54:	00188313          	addi	t1,a7,1
    7b58:	03150aa3          	sb	a7,53(a0)
    7b5c:	01052823          	sw	a6,16(a0)
    7b60:	842a                	mv	s0,a0
    7b62:	c63e                	sw	a5,12(sp)
    7b64:	00670023          	sb	t1,0(a4)
    7b68:	f7bff0ef          	jal	ra,7ae2 <netif_set_addr>
    7b6c:	47b2                	lw	a5,12(sp)
    7b6e:	8522                	mv	a0,s0
    7b70:	9782                	jalr	a5
    7b72:	e911                	bnez	a0,7b86 <netif_add+0x56>
    7b74:	9d018793          	addi	a5,gp,-1584 # 200002d0 <netif_list>
    7b78:	4398                	lw	a4,0(a5)
    7b7a:	c018                	sw	a4,0(s0)
    7b7c:	c380                	sw	s0,0(a5)
    7b7e:	8522                	mv	a0,s0
    7b80:	0141                	addi	sp,sp,16
    7b82:	9b9f806f          	j	53a <__riscv_restore_0>
    7b86:	4401                	li	s0,0
    7b88:	bfdd                	j	7b7e <netif_add+0x4e>

00007b8a <netif_set_default>:
    7b8a:	9ca1a623          	sw	a0,-1588(gp) # 200002cc <netif_default>
    7b8e:	8082                	ret

00007b90 <netif_is_up>:
    7b90:	03254503          	lbu	a0,50(a0)
    7b94:	8905                	andi	a0,a0,1
    7b96:	8082                	ret

00007b98 <pbuf_header>:
    7b98:	87aa                	mv	a5,a0
    7b9a:	4501                	li	a0,0
    7b9c:	c5a5                	beqz	a1,7c04 <pbuf_header+0x6c>
    7b9e:	c3bd                	beqz	a5,7c04 <pbuf_header+0x6c>
    7ba0:	01059613          	slli	a2,a1,0x10
    7ba4:	8241                	srli	a2,a2,0x10
    7ba6:	8832                	mv	a6,a2
    7ba8:	0005db63          	bgez	a1,7bbe <pbuf_header+0x26>
    7bac:	40c00833          	neg	a6,a2
    7bb0:	27ba                	lhu	a4,10(a5)
    7bb2:	0842                	slli	a6,a6,0x10
    7bb4:	01085813          	srli	a6,a6,0x10
    7bb8:	4505                	li	a0,1
    7bba:	05076563          	bltu	a4,a6,7c04 <pbuf_header+0x6c>
    7bbe:	27d4                	lbu	a3,12(a5)
    7bc0:	43d8                	lw	a4,4(a5)
    7bc2:	c681                	beqz	a3,7bca <pbuf_header+0x32>
    7bc4:	450d                	li	a0,3
    7bc6:	02a69163          	bne	a3,a0,7be8 <pbuf_header+0x50>
    7bca:	8f0d                	sub	a4,a4,a1
    7bcc:	01078693          	addi	a3,a5,16
    7bd0:	4505                	li	a0,1
    7bd2:	02d76963          	bltu	a4,a3,7c04 <pbuf_header+0x6c>
    7bd6:	c3d8                	sw	a4,4(a5)
    7bd8:	27ba                	lhu	a4,10(a5)
    7bda:	4501                	li	a0,0
    7bdc:	9732                	add	a4,a4,a2
    7bde:	a7ba                	sh	a4,10(a5)
    7be0:	279a                	lhu	a4,8(a5)
    7be2:	963a                	add	a2,a2,a4
    7be4:	a792                	sh	a2,8(a5)
    7be6:	8082                	ret
    7be8:	16fd                	addi	a3,a3,-1
    7bea:	06c2                	slli	a3,a3,0x10
    7bec:	82c1                	srli	a3,a3,0x10
    7bee:	4885                	li	a7,1
    7bf0:	4505                	li	a0,1
    7bf2:	00d8e963          	bltu	a7,a3,7c04 <pbuf_header+0x6c>
    7bf6:	0005d763          	bgez	a1,7c04 <pbuf_header+0x6c>
    7bfa:	27b6                	lhu	a3,10(a5)
    7bfc:	0106e463          	bltu	a3,a6,7c04 <pbuf_header+0x6c>
    7c00:	8f0d                	sub	a4,a4,a1
    7c02:	bfd1                	j	7bd6 <pbuf_header+0x3e>
    7c04:	8082                	ret

00007c06 <pbuf_free>:
    7c06:	8f7f82ef          	jal	t0,4fc <__riscv_save_4>
    7c0a:	4401                	li	s0,0
    7c0c:	cd0d                	beqz	a0,7c46 <pbuf_free+0x40>
    7c0e:	85aa                	mv	a1,a0
    7c10:	4401                	li	s0,0
    7c12:	490d                	li	s2,3
    7c14:	4985                	li	s3,1
    7c16:	25fe                	lhu	a5,14(a1)
    7c18:	17fd                	addi	a5,a5,-1
    7c1a:	07c2                	slli	a5,a5,0x10
    7c1c:	83c1                	srli	a5,a5,0x10
    7c1e:	a5fe                	sh	a5,14(a1)
    7c20:	e39d                	bnez	a5,7c46 <pbuf_free+0x40>
    7c22:	25dc                	lbu	a5,12(a1)
    7c24:	4184                	lw	s1,0(a1)
    7c26:	451d                	li	a0,7
    7c28:	01278863          	beq	a5,s2,7c38 <pbuf_free+0x32>
    7c2c:	17fd                	addi	a5,a5,-1
    7c2e:	07c2                	slli	a5,a5,0x10
    7c30:	83c1                	srli	a5,a5,0x10
    7c32:	00f9ed63          	bltu	s3,a5,7c4c <pbuf_free+0x46>
    7c36:	4519                	li	a0,6
    7c38:	dfdff0ef          	jal	ra,7a34 <memp_free>
    7c3c:	0405                	addi	s0,s0,1
    7c3e:	0ff47413          	andi	s0,s0,255
    7c42:	85a6                	mv	a1,s1
    7c44:	f8e9                	bnez	s1,7c16 <pbuf_free+0x10>
    7c46:	8522                	mv	a0,s0
    7c48:	8e9f806f          	j	530 <__riscv_restore_4>
    7c4c:	852e                	mv	a0,a1
    7c4e:	b59ff0ef          	jal	ra,77a6 <mem_free>
    7c52:	b7ed                	j	7c3c <pbuf_free+0x36>

00007c54 <pbuf_alloc>:
    7c54:	8a9f82ef          	jal	t0,4fc <__riscv_save_4>
    7c58:	4785                	li	a5,1
    7c5a:	00f50d63          	beq	a0,a5,7c74 <pbuf_alloc+0x20>
    7c5e:	c531                	beqz	a0,7caa <pbuf_alloc+0x56>
    7c60:	4789                	li	a5,2
    7c62:	04f50663          	beq	a0,a5,7cae <pbuf_alloc+0x5a>
    7c66:	478d                	li	a5,3
    7c68:	04f50563          	beq	a0,a5,7cb2 <pbuf_alloc+0x5e>
    7c6c:	4401                	li	s0,0
    7c6e:	8522                	mv	a0,s0
    7c70:	8c1f806f          	j	530 <__riscv_restore_4>
    7c74:	4481                	li	s1,0
    7c76:	04d1                	addi	s1,s1,20
    7c78:	04b9                	addi	s1,s1,14
    7c7a:	04c2                	slli	s1,s1,0x10
    7c7c:	80c1                	srli	s1,s1,0x10
    7c7e:	4789                	li	a5,2
    7c80:	89b2                	mv	s3,a2
    7c82:	892e                	mv	s2,a1
    7c84:	02c7e963          	bltu	a5,a2,7cb6 <pbuf_alloc+0x62>
    7c88:	ca79                	beqz	a2,7d5e <pbuf_alloc+0x10a>
    7c8a:	4519                	li	a0,6
    7c8c:	d89ff0ef          	jal	ra,7a14 <memp_malloc>
    7c90:	842a                	mv	s0,a0
    7c92:	dd69                	beqz	a0,7c6c <pbuf_alloc+0x18>
    7c94:	00052223          	sw	zero,4(a0)
    7c98:	01251423          	sh	s2,8(a0)
    7c9c:	01251523          	sh	s2,10(a0)
    7ca0:	00052023          	sw	zero,0(a0)
    7ca4:	01350623          	sb	s3,12(a0)
    7ca8:	a0b5                	j	7d14 <pbuf_alloc+0xc0>
    7caa:	44d1                	li	s1,20
    7cac:	b7e9                	j	7c76 <pbuf_alloc+0x22>
    7cae:	4481                	li	s1,0
    7cb0:	b7e1                	j	7c78 <pbuf_alloc+0x24>
    7cb2:	4481                	li	s1,0
    7cb4:	b7e9                	j	7c7e <pbuf_alloc+0x2a>
    7cb6:	478d                	li	a5,3
    7cb8:	4401                	li	s0,0
    7cba:	faf61ae3          	bne	a2,a5,7c6e <pbuf_alloc+0x1a>
    7cbe:	451d                	li	a0,7
    7cc0:	d55ff0ef          	jal	ra,7a14 <memp_malloc>
    7cc4:	842a                	mv	s0,a0
    7cc6:	d15d                	beqz	a0,7c6c <pbuf_alloc+0x18>
    7cc8:	009507b3          	add	a5,a0,s1
    7ccc:	07cd                	addi	a5,a5,19
    7cce:	9bf1                	andi	a5,a5,-4
    7cd0:	2000a737          	lui	a4,0x2000a
    7cd4:	c15c                	sw	a5,4(a0)
    7cd6:	35c70793          	addi	a5,a4,860 # 2000a35c <WCHCfg>
    7cda:	43dc                	lw	a5,4(a5)
    7cdc:	048d                	addi	s1,s1,3
    7cde:	98f1                	andi	s1,s1,-4
    7ce0:	03978793          	addi	a5,a5,57
    7ce4:	9bf1                	andi	a5,a5,-4
    7ce6:	01350623          	sb	s3,12(a0)
    7cea:	00052023          	sw	zero,0(a0)
    7cee:	01251423          	sh	s2,8(a0)
    7cf2:	409784b3          	sub	s1,a5,s1
    7cf6:	35c70993          	addi	s3,a4,860
    7cfa:	00997363          	bgeu	s2,s1,7d00 <pbuf_alloc+0xac>
    7cfe:	84ca                	mv	s1,s2
    7d00:	4785                	li	a5,1
    7d02:	a426                	sh	s1,10(s0)
    7d04:	a47e                	sh	a5,14(s0)
    7d06:	409904b3          	sub	s1,s2,s1
    7d0a:	4a0d                	li	s4,3
    7d0c:	8922                	mv	s2,s0
    7d0e:	4a85                	li	s5,1
    7d10:	00904763          	bgtz	s1,7d1e <pbuf_alloc+0xca>
    7d14:	4785                	li	a5,1
    7d16:	a47e                	sh	a5,14(s0)
    7d18:	000406a3          	sb	zero,13(s0)
    7d1c:	bf89                	j	7c6e <pbuf_alloc+0x1a>
    7d1e:	451d                	li	a0,7
    7d20:	cf5ff0ef          	jal	ra,7a14 <memp_malloc>
    7d24:	e509                	bnez	a0,7d2e <pbuf_alloc+0xda>
    7d26:	8522                	mv	a0,s0
    7d28:	edfff0ef          	jal	ra,7c06 <pbuf_free>
    7d2c:	b781                	j	7c6c <pbuf_alloc+0x18>
    7d2e:	0049a783          	lw	a5,4(s3)
    7d32:	01451623          	sh	s4,12(a0)
    7d36:	00052023          	sw	zero,0(a0)
    7d3a:	00a92023          	sw	a0,0(s2)
    7d3e:	03978793          	addi	a5,a5,57
    7d42:	a506                	sh	s1,8(a0)
    7d44:	9bf1                	andi	a5,a5,-4
    7d46:	00f4f363          	bgeu	s1,a5,7d4c <pbuf_alloc+0xf8>
    7d4a:	87a6                	mv	a5,s1
    7d4c:	01050713          	addi	a4,a0,16
    7d50:	a53e                	sh	a5,10(a0)
    7d52:	c158                	sw	a4,4(a0)
    7d54:	01551723          	sh	s5,14(a0)
    7d58:	8c9d                	sub	s1,s1,a5
    7d5a:	892a                	mv	s2,a0
    7d5c:	bf55                	j	7d10 <pbuf_alloc+0xbc>
    7d5e:	00358793          	addi	a5,a1,3
    7d62:	01348513          	addi	a0,s1,19
    7d66:	9bf1                	andi	a5,a5,-4
    7d68:	9971                	andi	a0,a0,-4
    7d6a:	953e                	add	a0,a0,a5
    7d6c:	0542                	slli	a0,a0,0x10
    7d6e:	8141                	srli	a0,a0,0x10
    7d70:	b85ff0ef          	jal	ra,78f4 <mem_malloc>
    7d74:	842a                	mv	s0,a0
    7d76:	ee050be3          	beqz	a0,7c6c <pbuf_alloc+0x18>
    7d7a:	94aa                	add	s1,s1,a0
    7d7c:	04cd                	addi	s1,s1,19
    7d7e:	98f1                	andi	s1,s1,-4
    7d80:	c144                	sw	s1,4(a0)
    7d82:	01251423          	sh	s2,8(a0)
    7d86:	01251523          	sh	s2,10(a0)
    7d8a:	00052023          	sw	zero,0(a0)
    7d8e:	00050623          	sb	zero,12(a0)
    7d92:	b749                	j	7d14 <pbuf_alloc+0xc0>

00007d94 <pbuf_realloc>:
    7d94:	251e                	lhu	a5,8(a0)
    7d96:	04f5fa63          	bgeu	a1,a5,7dea <pbuf_realloc+0x56>
    7d9a:	f7cf82ef          	jal	t0,516 <__riscv_save_0>
    7d9e:	842a                	mv	s0,a0
    7da0:	84ae                	mv	s1,a1
    7da2:	40f587b3          	sub	a5,a1,a5
    7da6:	242e                	lhu	a1,10(s0)
    7da8:	0295e963          	bltu	a1,s1,7dda <pbuf_realloc+0x46>
    7dac:	245c                	lbu	a5,12(s0)
    7dae:	ef81                	bnez	a5,7dc6 <pbuf_realloc+0x32>
    7db0:	00958b63          	beq	a1,s1,7dc6 <pbuf_realloc+0x32>
    7db4:	404c                	lw	a1,4(s0)
    7db6:	8522                	mv	a0,s0
    7db8:	8d81                	sub	a1,a1,s0
    7dba:	95a6                	add	a1,a1,s1
    7dbc:	05c2                	slli	a1,a1,0x10
    7dbe:	81c1                	srli	a1,a1,0x10
    7dc0:	a6bff0ef          	jal	ra,782a <mem_realloc>
    7dc4:	842a                	mv	s0,a0
    7dc6:	4008                	lw	a0,0(s0)
    7dc8:	a426                	sh	s1,10(s0)
    7dca:	a406                	sh	s1,8(s0)
    7dcc:	c119                	beqz	a0,7dd2 <pbuf_realloc+0x3e>
    7dce:	e39ff0ef          	jal	ra,7c06 <pbuf_free>
    7dd2:	00042023          	sw	zero,0(s0)
    7dd6:	f64f806f          	j	53a <__riscv_restore_0>
    7dda:	241a                	lhu	a4,8(s0)
    7ddc:	8c8d                	sub	s1,s1,a1
    7dde:	04c2                	slli	s1,s1,0x10
    7de0:	973e                	add	a4,a4,a5
    7de2:	a41a                	sh	a4,8(s0)
    7de4:	80c1                	srli	s1,s1,0x10
    7de6:	4000                	lw	s0,0(s0)
    7de8:	bf7d                	j	7da6 <pbuf_realloc+0x12>
    7dea:	8082                	ret

00007dec <pbuf_clen>:
    7dec:	4781                	li	a5,0
    7dee:	e119                	bnez	a0,7df4 <pbuf_clen+0x8>
    7df0:	853e                	mv	a0,a5
    7df2:	8082                	ret
    7df4:	0785                	addi	a5,a5,1
    7df6:	0ff7f793          	andi	a5,a5,255
    7dfa:	4108                	lw	a0,0(a0)
    7dfc:	bfcd                	j	7dee <pbuf_clen+0x2>

00007dfe <pbuf_ref>:
    7dfe:	c501                	beqz	a0,7e06 <pbuf_ref+0x8>
    7e00:	257e                	lhu	a5,14(a0)
    7e02:	0785                	addi	a5,a5,1
    7e04:	a57e                	sh	a5,14(a0)
    7e06:	8082                	ret

00007e08 <pbuf_cat>:
    7e08:	cd09                	beqz	a0,7e22 <pbuf_cat+0x1a>
    7e0a:	e199                	bnez	a1,7e10 <pbuf_cat+0x8>
    7e0c:	8082                	ret
    7e0e:	853a                	mv	a0,a4
    7e10:	259e                	lhu	a5,8(a1)
    7e12:	2516                	lhu	a3,8(a0)
    7e14:	4118                	lw	a4,0(a0)
    7e16:	97b6                	add	a5,a5,a3
    7e18:	07c2                	slli	a5,a5,0x10
    7e1a:	83c1                	srli	a5,a5,0x10
    7e1c:	a51e                	sh	a5,8(a0)
    7e1e:	fb65                	bnez	a4,7e0e <pbuf_cat+0x6>
    7e20:	c10c                	sw	a1,0(a0)
    7e22:	8082                	ret

00007e24 <pbuf_chain>:
    7e24:	ef2f82ef          	jal	t0,516 <__riscv_save_0>
    7e28:	842e                	mv	s0,a1
    7e2a:	fdfff0ef          	jal	ra,7e08 <pbuf_cat>
    7e2e:	8522                	mv	a0,s0
    7e30:	fcfff0ef          	jal	ra,7dfe <pbuf_ref>
    7e34:	f06f806f          	j	53a <__riscv_restore_0>

00007e38 <pbuf_copy>:
    7e38:	cd3d                	beqz	a0,7eb6 <pbuf_copy+0x7e>
    7e3a:	ec2f82ef          	jal	t0,4fc <__riscv_save_4>
    7e3e:	842a                	mv	s0,a0
    7e40:	84ae                	mv	s1,a1
    7e42:	5559                	li	a0,-10
    7e44:	c5ad                	beqz	a1,7eae <pbuf_copy+0x76>
    7e46:	241a                	lhu	a4,8(s0)
    7e48:	259e                	lhu	a5,8(a1)
    7e4a:	06f76263          	bltu	a4,a5,7eae <pbuf_copy+0x76>
    7e4e:	4901                	li	s2,0
    7e50:	4a01                	li	s4,0
    7e52:	00a45983          	lhu	s3,10(s0)
    7e56:	24be                	lhu	a5,10(s1)
    7e58:	414989b3          	sub	s3,s3,s4
    7e5c:	412787b3          	sub	a5,a5,s2
    7e60:	04f9c963          	blt	s3,a5,7eb2 <pbuf_copy+0x7a>
    7e64:	01079993          	slli	s3,a5,0x10
    7e68:	4048                	lw	a0,4(s0)
    7e6a:	40cc                	lw	a1,4(s1)
    7e6c:	0109d993          	srli	s3,s3,0x10
    7e70:	9552                	add	a0,a0,s4
    7e72:	95ca                	add	a1,a1,s2
    7e74:	864e                	mv	a2,s3
    7e76:	760030ef          	jal	ra,b5d6 <memcpy>
    7e7a:	9a4e                	add	s4,s4,s3
    7e7c:	243e                	lhu	a5,10(s0)
    7e7e:	0a42                	slli	s4,s4,0x10
    7e80:	994e                	add	s2,s2,s3
    7e82:	0942                	slli	s2,s2,0x10
    7e84:	010a5a13          	srli	s4,s4,0x10
    7e88:	01095913          	srli	s2,s2,0x10
    7e8c:	01479463          	bne	a5,s4,7e94 <pbuf_copy+0x5c>
    7e90:	4000                	lw	s0,0(s0)
    7e92:	4a01                	li	s4,0
    7e94:	24be                	lhu	a5,10(s1)
    7e96:	00f96563          	bltu	s2,a5,7ea0 <pbuf_copy+0x68>
    7e9a:	4084                	lw	s1,0(s1)
    7e9c:	cc99                	beqz	s1,7eba <pbuf_copy+0x82>
    7e9e:	4901                	li	s2,0
    7ea0:	24ba                	lhu	a4,10(s1)
    7ea2:	249e                	lhu	a5,8(s1)
    7ea4:	02f71663          	bne	a4,a5,7ed0 <pbuf_copy+0x98>
    7ea8:	409c                	lw	a5,0(s1)
    7eaa:	c39d                	beqz	a5,7ed0 <pbuf_copy+0x98>
    7eac:	555d                	li	a0,-9
    7eae:	e82f806f          	j	530 <__riscv_restore_4>
    7eb2:	09c2                	slli	s3,s3,0x10
    7eb4:	bf55                	j	7e68 <pbuf_copy+0x30>
    7eb6:	5559                	li	a0,-10
    7eb8:	8082                	ret
    7eba:	c809                	beqz	s0,7ecc <pbuf_copy+0x94>
    7ebc:	4901                	li	s2,0
    7ebe:	243a                	lhu	a4,10(s0)
    7ec0:	241e                	lhu	a5,8(s0)
    7ec2:	00f71463          	bne	a4,a5,7eca <pbuf_copy+0x92>
    7ec6:	401c                	lw	a5,0(s0)
    7ec8:	f3f5                	bnez	a5,7eac <pbuf_copy+0x74>
    7eca:	f4c1                	bnez	s1,7e52 <pbuf_copy+0x1a>
    7ecc:	4501                	li	a0,0
    7ece:	b7c5                	j	7eae <pbuf_copy+0x76>
    7ed0:	f47d                	bnez	s0,7ebe <pbuf_copy+0x86>
    7ed2:	b741                	j	7e52 <pbuf_copy+0x1a>

00007ed4 <raw_input>:
    7ed4:	e28f82ef          	jal	t0,4fc <__riscv_save_4>
    7ed8:	00452903          	lw	s2,4(a0)
    7edc:	89aa                	mv	s3,a0
    7ede:	00994783          	lbu	a5,9(s2)
    7ee2:	00894503          	lbu	a0,8(s2)
    7ee6:	4a01                	li	s4,0
    7ee8:	07a2                	slli	a5,a5,0x8
    7eea:	8d5d                	or	a0,a0,a5
    7eec:	94dfe0ef          	jal	ra,6838 <ntohs>
    7ef0:	0ff57a93          	andi	s5,a0,255
    7ef4:	9d81a403          	lw	s0,-1576(gp) # 200002d8 <raw_pcbs>
    7ef8:	0931                	addi	s2,s2,12
    7efa:	9d818493          	addi	s1,gp,-1576 # 200002d8 <raw_pcbs>
    7efe:	e401                	bnez	s0,7f06 <raw_input+0x32>
    7f00:	4501                	li	a0,0
    7f02:	e2ef806f          	j	530 <__riscv_restore_4>
    7f06:	281c                	lbu	a5,16(s0)
    7f08:	4501                	li	a0,0
    7f0a:	03579463          	bne	a5,s5,7f32 <raw_input+0x5e>
    7f0e:	485c                	lw	a5,20(s0)
    7f10:	c38d                	beqz	a5,7f32 <raw_input+0x5e>
    7f12:	4c08                	lw	a0,24(s0)
    7f14:	86ca                	mv	a3,s2
    7f16:	864e                	mv	a2,s3
    7f18:	85a2                	mv	a1,s0
    7f1a:	9782                	jalr	a5
    7f1c:	c919                	beqz	a0,7f32 <raw_input+0x5e>
    7f1e:	000a0863          	beqz	s4,7f2e <raw_input+0x5a>
    7f22:	445c                	lw	a5,12(s0)
    7f24:	00fa2623          	sw	a5,12(s4)
    7f28:	409c                	lw	a5,0(s1)
    7f2a:	c080                	sw	s0,0(s1)
    7f2c:	c45c                	sw	a5,12(s0)
    7f2e:	4505                	li	a0,1
    7f30:	4981                	li	s3,0
    7f32:	445c                	lw	a5,12(s0)
    7f34:	8a22                	mv	s4,s0
    7f36:	f571                	bnez	a0,7f02 <raw_input+0x2e>
    7f38:	843e                	mv	s0,a5
    7f3a:	b7d1                	j	7efe <raw_input+0x2a>

00007f3c <raw_bind>:
    7f3c:	4781                	li	a5,0
    7f3e:	c999                	beqz	a1,7f54 <raw_bind+0x18>
    7f40:	3198                	lbu	a4,1(a1)
    7f42:	219c                	lbu	a5,0(a1)
    7f44:	0722                	slli	a4,a4,0x8
    7f46:	8f5d                	or	a4,a4,a5
    7f48:	21bc                	lbu	a5,2(a1)
    7f4a:	07c2                	slli	a5,a5,0x10
    7f4c:	8f5d                	or	a4,a4,a5
    7f4e:	31bc                	lbu	a5,3(a1)
    7f50:	07e2                	slli	a5,a5,0x18
    7f52:	8fd9                	or	a5,a5,a4
    7f54:	c11c                	sw	a5,0(a0)
    7f56:	4501                	li	a0,0
    7f58:	8082                	ret

00007f5a <raw_connect>:
    7f5a:	4781                	li	a5,0
    7f5c:	c999                	beqz	a1,7f72 <raw_connect+0x18>
    7f5e:	3198                	lbu	a4,1(a1)
    7f60:	219c                	lbu	a5,0(a1)
    7f62:	0722                	slli	a4,a4,0x8
    7f64:	8f5d                	or	a4,a4,a5
    7f66:	21bc                	lbu	a5,2(a1)
    7f68:	07c2                	slli	a5,a5,0x10
    7f6a:	8f5d                	or	a4,a4,a5
    7f6c:	31bc                	lbu	a5,3(a1)
    7f6e:	07e2                	slli	a5,a5,0x18
    7f70:	8fd9                	or	a5,a5,a4
    7f72:	c15c                	sw	a5,4(a0)
    7f74:	4501                	li	a0,0
    7f76:	8082                	ret

00007f78 <raw_recv>:
    7f78:	c94c                	sw	a1,20(a0)
    7f7a:	cd10                	sw	a2,24(a0)
    7f7c:	8082                	ret

00007f7e <raw_sendto>:
    7f7e:	d7ef82ef          	jal	t0,4fc <__riscv_save_4>
    7f82:	84ae                	mv	s1,a1
    7f84:	892a                	mv	s2,a0
    7f86:	45d1                	li	a1,20
    7f88:	8526                	mv	a0,s1
    7f8a:	89b2                	mv	s3,a2
    7f8c:	c0dff0ef          	jal	ra,7b98 <pbuf_header>
    7f90:	c915                	beqz	a0,7fc4 <raw_sendto+0x46>
    7f92:	4601                	li	a2,0
    7f94:	4581                	li	a1,0
    7f96:	4505                	li	a0,1
    7f98:	cbdff0ef          	jal	ra,7c54 <pbuf_alloc>
    7f9c:	842a                	mv	s0,a0
    7f9e:	e509                	bnez	a0,7fa8 <raw_sendto+0x2a>
    7fa0:	597d                	li	s2,-1
    7fa2:	854a                	mv	a0,s2
    7fa4:	d8cf806f          	j	530 <__riscv_restore_4>
    7fa8:	85a6                	mv	a1,s1
    7faa:	e7bff0ef          	jal	ra,7e24 <pbuf_chain>
    7fae:	854e                	mv	a0,s3
    7fb0:	8c7fe0ef          	jal	ra,6876 <ip_route>
    7fb4:	ed19                	bnez	a0,7fd2 <raw_sendto+0x54>
    7fb6:	5971                	li	s2,-4
    7fb8:	fe9405e3          	beq	s0,s1,7fa2 <raw_sendto+0x24>
    7fbc:	8522                	mv	a0,s0
    7fbe:	c49ff0ef          	jal	ra,7c06 <pbuf_free>
    7fc2:	b7c5                	j	7fa2 <raw_sendto+0x24>
    7fc4:	55b1                	li	a1,-20
    7fc6:	8526                	mv	a0,s1
    7fc8:	bd1ff0ef          	jal	ra,7b98 <pbuf_header>
    7fcc:	f971                	bnez	a0,7fa0 <raw_sendto+0x22>
    7fce:	8426                	mv	s0,s1
    7fd0:	bff9                	j	7fae <raw_sendto+0x30>
    7fd2:	85ca                	mv	a1,s2
    7fd4:	00090563          	beqz	s2,7fde <raw_sendto+0x60>
    7fd8:	00092783          	lw	a5,0(s2)
    7fdc:	e399                	bnez	a5,7fe2 <raw_sendto+0x64>
    7fde:	00450593          	addi	a1,a0,4
    7fe2:	01094783          	lbu	a5,16(s2)
    7fe6:	00a94703          	lbu	a4,10(s2)
    7fea:	00b94683          	lbu	a3,11(s2)
    7fee:	882a                	mv	a6,a0
    7ff0:	864e                	mv	a2,s3
    7ff2:	8522                	mv	a0,s0
    7ff4:	b69fe0ef          	jal	ra,6b5c <ip_output_if>
    7ff8:	892a                	mv	s2,a0
    7ffa:	bf7d                	j	7fb8 <raw_sendto+0x3a>

00007ffc <raw_send>:
    7ffc:	d1af82ef          	jal	t0,516 <__riscv_save_0>
    8000:	00450613          	addi	a2,a0,4
    8004:	f7bff0ef          	jal	ra,7f7e <raw_sendto>
    8008:	d32f806f          	j	53a <__riscv_restore_0>

0000800c <raw_remove>:
    800c:	d0af82ef          	jal	t0,516 <__riscv_save_0>
    8010:	9d818713          	addi	a4,gp,-1576 # 200002d8 <raw_pcbs>
    8014:	431c                	lw	a5,0(a4)
    8016:	85aa                	mv	a1,a0
    8018:	02a79063          	bne	a5,a0,8038 <raw_remove+0x2c>
    801c:	455c                	lw	a5,12(a0)
    801e:	c31c                	sw	a5,0(a4)
    8020:	4501                	li	a0,0
    8022:	a13ff0ef          	jal	ra,7a34 <memp_free>
    8026:	d14f806f          	j	53a <__riscv_restore_0>
    802a:	47d8                	lw	a4,12(a5)
    802c:	c709                	beqz	a4,8036 <raw_remove+0x2a>
    802e:	00b71463          	bne	a4,a1,8036 <raw_remove+0x2a>
    8032:	45d8                	lw	a4,12(a1)
    8034:	c7d8                	sw	a4,12(a5)
    8036:	47dc                	lw	a5,12(a5)
    8038:	fbed                	bnez	a5,802a <raw_remove+0x1e>
    803a:	b7dd                	j	8020 <raw_remove+0x14>

0000803c <raw_new>:
    803c:	cdaf82ef          	jal	t0,516 <__riscv_save_0>
    8040:	84aa                	mv	s1,a0
    8042:	4501                	li	a0,0
    8044:	9d1ff0ef          	jal	ra,7a14 <memp_malloc>
    8048:	842a                	mv	s0,a0
    804a:	cd11                	beqz	a0,8066 <raw_new+0x2a>
    804c:	4671                	li	a2,28
    804e:	4581                	li	a1,0
    8050:	cf6f80ef          	jal	ra,546 <memset>
    8054:	f8000793          	li	a5,-128
    8058:	b43c                	sb	a5,11(s0)
    805a:	9d818793          	addi	a5,gp,-1576 # 200002d8 <raw_pcbs>
    805e:	4398                	lw	a4,0(a5)
    8060:	a804                	sb	s1,16(s0)
    8062:	c380                	sw	s0,0(a5)
    8064:	c458                	sw	a4,12(s0)
    8066:	8522                	mv	a0,s0
    8068:	cd2f806f          	j	53a <__riscv_restore_0>

0000806c <tcp_accept_null>:
    806c:	556d                	li	a0,-5
    806e:	8082                	ret

00008070 <tcp_new_port>:
    8070:	9dc1a683          	lw	a3,-1572(gp) # 200002dc <tcp_active_pcbs>
    8074:	9f41a603          	lw	a2,-1548(gp) # 200002f4 <tcp_tw_pcbs>
    8078:	9e41a583          	lw	a1,-1564(gp) # 200002e4 <tcp_listen_pcbs>
    807c:	8441d503          	lhu	a0,-1980(gp) # 20000144 <port.3018>
    8080:	84418793          	addi	a5,gp,-1980 # 20000144 <port.3018>
    8084:	00150713          	addi	a4,a0,1
    8088:	01071513          	slli	a0,a4,0x10
    808c:	01071813          	slli	a6,a4,0x10
    8090:	8141                	srli	a0,a0,0x10
    8092:	00085363          	bgez	a6,8098 <tcp_new_port+0x28>
    8096:	6505                	lui	a0,0x1
    8098:	8736                	mv	a4,a3
    809a:	e719                	bnez	a4,80a8 <tcp_new_port+0x38>
    809c:	8732                	mv	a4,a2
    809e:	eb19                	bnez	a4,80b4 <tcp_new_port+0x44>
    80a0:	872e                	mv	a4,a1
    80a2:	ef19                	bnez	a4,80c0 <tcp_new_port+0x50>
    80a4:	a38a                	sh	a0,0(a5)
    80a6:	8082                	ret
    80a8:	01c75803          	lhu	a6,28(a4)
    80ac:	fca80ce3          	beq	a6,a0,8084 <tcp_new_port+0x14>
    80b0:	4758                	lw	a4,12(a4)
    80b2:	b7e5                	j	809a <tcp_new_port+0x2a>
    80b4:	01c75803          	lhu	a6,28(a4)
    80b8:	fca806e3          	beq	a6,a0,8084 <tcp_new_port+0x14>
    80bc:	4758                	lw	a4,12(a4)
    80be:	b7c5                	j	809e <tcp_new_port+0x2e>
    80c0:	01c75803          	lhu	a6,28(a4)
    80c4:	fca800e3          	beq	a6,a0,8084 <tcp_new_port+0x14>
    80c8:	4758                	lw	a4,12(a4)
    80ca:	bfe1                	j	80a2 <tcp_new_port+0x32>

000080cc <tcp_bind>:
    80cc:	491c                	lw	a5,16(a0)
    80ce:	10079663          	bnez	a5,81da <tcp_bind+0x10e>
    80d2:	c2af82ef          	jal	t0,4fc <__riscv_save_4>
    80d6:	1141                	addi	sp,sp,-16
    80d8:	84aa                	mv	s1,a0
    80da:	8432                	mv	s0,a2
    80dc:	e611                	bnez	a2,80e8 <tcp_bind+0x1c>
    80de:	c62e                	sw	a1,12(sp)
    80e0:	f91ff0ef          	jal	ra,8070 <tcp_new_port>
    80e4:	45b2                	lw	a1,12(sp)
    80e6:	842a                	mv	s0,a0
    80e8:	9e41a703          	lw	a4,-1564(gp) # 200002e4 <tcp_listen_pcbs>
    80ec:	e731                	bnez	a4,8138 <tcp_bind+0x6c>
    80ee:	9dc1a703          	lw	a4,-1572(gp) # 200002dc <tcp_active_pcbs>
    80f2:	eb25                	bnez	a4,8162 <tcp_bind+0x96>
    80f4:	9e01a983          	lw	s3,-1568(gp) # 200002e0 <tcp_bound_pcbs>
    80f8:	9e018913          	addi	s2,gp,-1568 # 200002e0 <tcp_bound_pcbs>
    80fc:	874e                	mv	a4,s3
    80fe:	e759                	bnez	a4,818c <tcp_bind+0xc0>
    8100:	9f41a783          	lw	a5,-1548(gp) # 200002f4 <tcp_tw_pcbs>
    8104:	ebcd                	bnez	a5,81b6 <tcp_bind+0xea>
    8106:	c185                	beqz	a1,8126 <tcp_bind+0x5a>
    8108:	3198                	lbu	a4,1(a1)
    810a:	219c                	lbu	a5,0(a1)
    810c:	0722                	slli	a4,a4,0x8
    810e:	8f5d                	or	a4,a4,a5
    8110:	21bc                	lbu	a5,2(a1)
    8112:	07c2                	slli	a5,a5,0x10
    8114:	8f5d                	or	a4,a4,a5
    8116:	31bc                	lbu	a5,3(a1)
    8118:	07e2                	slli	a5,a5,0x18
    811a:	8fd9                	or	a5,a5,a4
    811c:	c789                	beqz	a5,8126 <tcp_bind+0x5a>
    811e:	4611                	li	a2,4
    8120:	8526                	mv	a0,s1
    8122:	4b4030ef          	jal	ra,b5d6 <memcpy>
    8126:	acc2                	sh	s0,28(s1)
    8128:	0134a623          	sw	s3,12(s1)
    812c:	00992023          	sw	s1,0(s2)
    8130:	4501                	li	a0,0
    8132:	0141                	addi	sp,sp,16
    8134:	bfcf806f          	j	530 <__riscv_restore_4>
    8138:	2f5e                	lhu	a5,28(a4)
    813a:	02879263          	bne	a5,s0,815e <tcp_bind+0x92>
    813e:	4310                	lw	a2,0(a4)
    8140:	ce59                	beqz	a2,81de <tcp_bind+0x112>
    8142:	cdd1                	beqz	a1,81de <tcp_bind+0x112>
    8144:	3194                	lbu	a3,1(a1)
    8146:	219c                	lbu	a5,0(a1)
    8148:	06a2                	slli	a3,a3,0x8
    814a:	8edd                	or	a3,a3,a5
    814c:	21bc                	lbu	a5,2(a1)
    814e:	07c2                	slli	a5,a5,0x10
    8150:	8edd                	or	a3,a3,a5
    8152:	31bc                	lbu	a5,3(a1)
    8154:	07e2                	slli	a5,a5,0x18
    8156:	8fd5                	or	a5,a5,a3
    8158:	c3d9                	beqz	a5,81de <tcp_bind+0x112>
    815a:	08f60263          	beq	a2,a5,81de <tcp_bind+0x112>
    815e:	4758                	lw	a4,12(a4)
    8160:	b771                	j	80ec <tcp_bind+0x20>
    8162:	2f5e                	lhu	a5,28(a4)
    8164:	02879263          	bne	a5,s0,8188 <tcp_bind+0xbc>
    8168:	4310                	lw	a2,0(a4)
    816a:	ca35                	beqz	a2,81de <tcp_bind+0x112>
    816c:	c9ad                	beqz	a1,81de <tcp_bind+0x112>
    816e:	3194                	lbu	a3,1(a1)
    8170:	219c                	lbu	a5,0(a1)
    8172:	06a2                	slli	a3,a3,0x8
    8174:	8edd                	or	a3,a3,a5
    8176:	21bc                	lbu	a5,2(a1)
    8178:	07c2                	slli	a5,a5,0x10
    817a:	8edd                	or	a3,a3,a5
    817c:	31bc                	lbu	a5,3(a1)
    817e:	07e2                	slli	a5,a5,0x18
    8180:	8fd5                	or	a5,a5,a3
    8182:	cfb1                	beqz	a5,81de <tcp_bind+0x112>
    8184:	04f60d63          	beq	a2,a5,81de <tcp_bind+0x112>
    8188:	4758                	lw	a4,12(a4)
    818a:	b7a5                	j	80f2 <tcp_bind+0x26>
    818c:	2f5e                	lhu	a5,28(a4)
    818e:	02879263          	bne	a5,s0,81b2 <tcp_bind+0xe6>
    8192:	4310                	lw	a2,0(a4)
    8194:	c629                	beqz	a2,81de <tcp_bind+0x112>
    8196:	c5a1                	beqz	a1,81de <tcp_bind+0x112>
    8198:	3194                	lbu	a3,1(a1)
    819a:	219c                	lbu	a5,0(a1)
    819c:	06a2                	slli	a3,a3,0x8
    819e:	8edd                	or	a3,a3,a5
    81a0:	21bc                	lbu	a5,2(a1)
    81a2:	07c2                	slli	a5,a5,0x10
    81a4:	8edd                	or	a3,a3,a5
    81a6:	31bc                	lbu	a5,3(a1)
    81a8:	07e2                	slli	a5,a5,0x18
    81aa:	8fd5                	or	a5,a5,a3
    81ac:	cb8d                	beqz	a5,81de <tcp_bind+0x112>
    81ae:	02f60863          	beq	a2,a5,81de <tcp_bind+0x112>
    81b2:	4758                	lw	a4,12(a4)
    81b4:	b7a9                	j	80fe <tcp_bind+0x32>
    81b6:	2fda                	lhu	a4,28(a5)
    81b8:	00871f63          	bne	a4,s0,81d6 <tcp_bind+0x10a>
    81bc:	3194                	lbu	a3,1(a1)
    81be:	2198                	lbu	a4,0(a1)
    81c0:	06a2                	slli	a3,a3,0x8
    81c2:	8ed9                	or	a3,a3,a4
    81c4:	21b8                	lbu	a4,2(a1)
    81c6:	0742                	slli	a4,a4,0x10
    81c8:	8ed9                	or	a3,a3,a4
    81ca:	31b8                	lbu	a4,3(a1)
    81cc:	0762                	slli	a4,a4,0x18
    81ce:	8f55                	or	a4,a4,a3
    81d0:	4394                	lw	a3,0(a5)
    81d2:	00e68663          	beq	a3,a4,81de <tcp_bind+0x112>
    81d6:	47dc                	lw	a5,12(a5)
    81d8:	b735                	j	8104 <tcp_bind+0x38>
    81da:	554d                	li	a0,-13
    81dc:	8082                	ret
    81de:	5555                	li	a0,-11
    81e0:	bf89                	j	8132 <tcp_bind+0x66>

000081e2 <tcp_listen_with_backlog>:
    81e2:	b34f82ef          	jal	t0,516 <__riscv_save_0>
    81e6:	491c                	lw	a5,16(a0)
    81e8:	1141                	addi	sp,sp,-16
    81ea:	c791                	beqz	a5,81f6 <tcp_listen_with_backlog+0x14>
    81ec:	4401                	li	s0,0
    81ee:	8522                	mv	a0,s0
    81f0:	0141                	addi	sp,sp,16
    81f2:	b48f806f          	j	53a <__riscv_restore_0>
    81f6:	c62a                	sw	a0,12(sp)
    81f8:	450d                	li	a0,3
    81fa:	81bff0ef          	jal	ra,7a14 <memp_malloc>
    81fe:	842a                	mv	s0,a0
    8200:	d575                	beqz	a0,81ec <tcp_listen_with_backlog+0xa>
    8202:	45b2                	lw	a1,12(sp)
    8204:	9e018713          	addi	a4,gp,-1568 # 200002e0 <tcp_bound_pcbs>
    8208:	4d9c                	lw	a5,24(a1)
    820a:	cd1c                	sw	a5,24(a0)
    820c:	2dde                	lhu	a5,28(a1)
    820e:	ad5e                	sh	a5,28(a0)
    8210:	4785                	li	a5,1
    8212:	c91c                	sw	a5,16(a0)
    8214:	259e                	lhu	a5,8(a1)
    8216:	0027e793          	ori	a5,a5,2
    821a:	a51e                	sh	a5,8(a0)
    821c:	35bc                	lbu	a5,11(a1)
    821e:	b53c                	sb	a5,11(a0)
    8220:	25bc                	lbu	a5,10(a1)
    8222:	a53c                	sb	a5,10(a0)
    8224:	419c                	lw	a5,0(a1)
    8226:	c11c                	sw	a5,0(a0)
    8228:	431c                	lw	a5,0(a4)
    822a:	02b79463          	bne	a5,a1,8252 <tcp_listen_with_backlog+0x70>
    822e:	45dc                	lw	a5,12(a1)
    8230:	c31c                	sw	a5,0(a4)
    8232:	0005a623          	sw	zero,12(a1)
    8236:	4509                	li	a0,2
    8238:	ffcff0ef          	jal	ra,7a34 <memp_free>
    823c:	000087b7          	lui	a5,0x8
    8240:	06c78793          	addi	a5,a5,108 # 806c <tcp_accept_null>
    8244:	d01c                	sw	a5,32(s0)
    8246:	9e418793          	addi	a5,gp,-1564 # 200002e4 <tcp_listen_pcbs>
    824a:	4398                	lw	a4,0(a5)
    824c:	c380                	sw	s0,0(a5)
    824e:	c458                	sw	a4,12(s0)
    8250:	bf79                	j	81ee <tcp_listen_with_backlog+0xc>
    8252:	9ef1a823          	sw	a5,-1552(gp) # 200002f0 <tcp_tmp_pcb>
    8256:	4681                	li	a3,0
    8258:	9f018713          	addi	a4,gp,-1552 # 200002f0 <tcp_tmp_pcb>
    825c:	e789                	bnez	a5,8266 <tcp_listen_with_backlog+0x84>
    825e:	daf1                	beqz	a3,8232 <tcp_listen_with_backlog+0x50>
    8260:	00072023          	sw	zero,0(a4)
    8264:	b7f9                	j	8232 <tcp_listen_with_backlog+0x50>
    8266:	47d0                	lw	a2,12(a5)
    8268:	00b61763          	bne	a2,a1,8276 <tcp_listen_with_backlog+0x94>
    826c:	c291                	beqz	a3,8270 <tcp_listen_with_backlog+0x8e>
    826e:	c31c                	sw	a5,0(a4)
    8270:	45d8                	lw	a4,12(a1)
    8272:	c7d8                	sw	a4,12(a5)
    8274:	bf7d                	j	8232 <tcp_listen_with_backlog+0x50>
    8276:	4685                	li	a3,1
    8278:	87b2                	mv	a5,a2
    827a:	b7cd                	j	825c <tcp_listen_with_backlog+0x7a>

0000827c <tcp_update_rcv_ann_wnd>:
    827c:	87aa                	mv	a5,a0
    827e:	02c55803          	lhu	a6,44(a0) # 102c <eMBTCPInit+0x34>
    8282:	5914                	lw	a3,48(a0)
    8284:	3bd2                	lhu	a2,52(a5)
    8286:	550c                	lw	a1,40(a0)
    8288:	0407d883          	lhu	a7,64(a5)
    828c:	40d80533          	sub	a0,a6,a3
    8290:	8205                	srli	a2,a2,0x1
    8292:	952e                	add	a0,a0,a1
    8294:	8732                	mv	a4,a2
    8296:	00c8f363          	bgeu	a7,a2,829c <tcp_update_rcv_ann_wnd+0x20>
    829a:	8746                	mv	a4,a7
    829c:	0742                	slli	a4,a4,0x10
    829e:	8341                	srli	a4,a4,0x10
    82a0:	40e50733          	sub	a4,a0,a4
    82a4:	00074563          	bltz	a4,82ae <tcp_update_rcv_ann_wnd+0x32>
    82a8:	03079723          	sh	a6,46(a5)
    82ac:	8082                	ret
    82ae:	40d58733          	sub	a4,a1,a3
    82b2:	00e05663          	blez	a4,82be <tcp_update_rcv_ann_wnd+0x42>
    82b6:	02079723          	sh	zero,46(a5)
    82ba:	4501                	li	a0,0
    82bc:	8082                	ret
    82be:	8e8d                	sub	a3,a3,a1
    82c0:	b7f6                	sh	a3,46(a5)
    82c2:	bfe5                	j	82ba <tcp_update_rcv_ann_wnd+0x3e>

000082c4 <tcp_recved>:
    82c4:	a52f82ef          	jal	t0,516 <__riscv_save_0>
    82c8:	355e                	lhu	a5,44(a0)
    82ca:	842a                	mv	s0,a0
    82cc:	95be                	add	a1,a1,a5
    82ce:	05c2                	slli	a1,a1,0x10
    82d0:	395e                	lhu	a5,52(a0)
    82d2:	81c1                	srli	a1,a1,0x10
    82d4:	b54e                	sh	a1,44(a0)
    82d6:	00b7f363          	bgeu	a5,a1,82dc <tcp_recved+0x18>
    82da:	b55e                	sh	a5,44(a0)
    82dc:	8522                	mv	a0,s0
    82de:	f9fff0ef          	jal	ra,827c <tcp_update_rcv_ann_wnd>
    82e2:	385e                	lhu	a5,52(s0)
    82e4:	8389                	srli	a5,a5,0x2
    82e6:	00f54b63          	blt	a0,a5,82fc <tcp_recved+0x38>
    82ea:	02644783          	lbu	a5,38(s0)
    82ee:	8522                	mv	a0,s0
    82f0:	0027e793          	ori	a5,a5,2
    82f4:	02f40323          	sb	a5,38(s0)
    82f8:	252020ef          	jal	ra,a54a <tcp_output>
    82fc:	a3ef806f          	j	53a <__riscv_restore_0>

00008300 <tcp_seg_free>:
    8300:	a16f82ef          	jal	t0,516 <__riscv_save_0>
    8304:	1141                	addi	sp,sp,-16
    8306:	4401                	li	s0,0
    8308:	cd09                	beqz	a0,8322 <tcp_seg_free+0x22>
    830a:	85aa                	mv	a1,a0
    830c:	4148                	lw	a0,4(a0)
    830e:	4401                	li	s0,0
    8310:	c511                	beqz	a0,831c <tcp_seg_free+0x1c>
    8312:	c62e                	sw	a1,12(sp)
    8314:	8f3ff0ef          	jal	ra,7c06 <pbuf_free>
    8318:	45b2                	lw	a1,12(sp)
    831a:	842a                	mv	s0,a0
    831c:	4511                	li	a0,4
    831e:	f16ff0ef          	jal	ra,7a34 <memp_free>
    8322:	8522                	mv	a0,s0
    8324:	0141                	addi	sp,sp,16
    8326:	a14f806f          	j	53a <__riscv_restore_0>

0000832a <tcp_segs_free>:
    832a:	9ecf82ef          	jal	t0,516 <__riscv_save_0>
    832e:	4401                	li	s0,0
    8330:	e501                	bnez	a0,8338 <tcp_segs_free+0xe>
    8332:	8522                	mv	a0,s0
    8334:	a06f806f          	j	53a <__riscv_restore_0>
    8338:	4104                	lw	s1,0(a0)
    833a:	fc7ff0ef          	jal	ra,8300 <tcp_seg_free>
    833e:	942a                	add	s0,s0,a0
    8340:	0ff47413          	andi	s0,s0,255
    8344:	8526                	mv	a0,s1
    8346:	b7ed                	j	8330 <tcp_segs_free+0x6>

00008348 <tcp_seg_copy>:
    8348:	9cef82ef          	jal	t0,516 <__riscv_save_0>
    834c:	1141                	addi	sp,sp,-16
    834e:	c62a                	sw	a0,12(sp)
    8350:	4511                	li	a0,4
    8352:	ec2ff0ef          	jal	ra,7a14 <memp_malloc>
    8356:	842a                	mv	s0,a0
    8358:	c901                	beqz	a0,8368 <tcp_seg_copy+0x20>
    835a:	45b2                	lw	a1,12(sp)
    835c:	4651                	li	a2,20
    835e:	278030ef          	jal	ra,b5d6 <memcpy>
    8362:	4048                	lw	a0,4(s0)
    8364:	a9bff0ef          	jal	ra,7dfe <pbuf_ref>
    8368:	8522                	mv	a0,s0
    836a:	0141                	addi	sp,sp,16
    836c:	9cef806f          	j	53a <__riscv_restore_0>

00008370 <tcp_arg>:
    8370:	cd0c                	sw	a1,24(a0)
    8372:	8082                	ret

00008374 <tcp_recv>:
    8374:	08b52823          	sw	a1,144(a0)
    8378:	8082                	ret

0000837a <tcp_sent>:
    837a:	08b52623          	sw	a1,140(a0)
    837e:	8082                	ret

00008380 <tcp_err>:
    8380:	08b52e23          	sw	a1,156(a0)
    8384:	8082                	ret

00008386 <tcp_accept>:
    8386:	d10c                	sw	a1,32(a0)
    8388:	8082                	ret

0000838a <tcp_poll>:
    838a:	08b52c23          	sw	a1,152(a0)
    838e:	02c50ea3          	sb	a2,61(a0)
    8392:	8082                	ret

00008394 <tcp_pcb_purge>:
    8394:	491c                	lw	a5,16(a0)
    8396:	4705                	li	a4,1
    8398:	04f77463          	bgeu	a4,a5,83e0 <tcp_pcb_purge+0x4c>
    839c:	4729                	li	a4,10
    839e:	04e78163          	beq	a5,a4,83e0 <tcp_pcb_purge+0x4c>
    83a2:	974f82ef          	jal	t0,516 <__riscv_save_0>
    83a6:	842a                	mv	s0,a0
    83a8:	08852503          	lw	a0,136(a0)
    83ac:	c509                	beqz	a0,83b6 <tcp_pcb_purge+0x22>
    83ae:	859ff0ef          	jal	ra,7c06 <pbuf_free>
    83b2:	08042423          	sw	zero,136(s0)
    83b6:	08442503          	lw	a0,132(s0)
    83ba:	57fd                	li	a5,-1
    83bc:	bc7e                	sh	a5,62(s0)
    83be:	f6dff0ef          	jal	ra,832a <tcp_segs_free>
    83c2:	5c68                	lw	a0,124(s0)
    83c4:	08042223          	sw	zero,132(s0)
    83c8:	f63ff0ef          	jal	ra,832a <tcp_segs_free>
    83cc:	08042503          	lw	a0,128(s0)
    83d0:	f5bff0ef          	jal	ra,832a <tcp_segs_free>
    83d4:	06042e23          	sw	zero,124(s0)
    83d8:	08042023          	sw	zero,128(s0)
    83dc:	95ef806f          	j	53a <__riscv_restore_0>
    83e0:	8082                	ret

000083e2 <tcp_slowtmr>:
    83e2:	904f82ef          	jal	t0,4e6 <__riscv_save_12>
    83e6:	2000a4b7          	lui	s1,0x2000a
    83ea:	31848793          	addi	a5,s1,792 # 2000a318 <NetInf>
    83ee:	9e818713          	addi	a4,gp,-1560 # 200002e8 <tcp_ticks>
    83f2:	0187cc03          	lbu	s8,24(a5)
    83f6:	431c                	lw	a5,0(a4)
    83f8:	6ab5                	lui	s5,0xd
    83fa:	0785                	addi	a5,a5,1
    83fc:	9dc1ad03          	lw	s10,-1572(gp) # 200002dc <tcp_active_pcbs>
    8400:	c31c                	sw	a5,0(a4)
    8402:	06600913          	li	s2,102
    8406:	4a01                	li	s4,0
    8408:	31848493          	addi	s1,s1,792
    840c:	9e818413          	addi	s0,gp,-1560 # 200002e8 <tcp_ticks>
    8410:	9dc18993          	addi	s3,gp,-1572 # 200002dc <tcp_active_pcbs>
    8414:	4c8d                	li	s9,3
    8416:	c54a8a93          	addi	s5,s5,-940 # cc54 <tcp_backoff>
    841a:	87018b13          	addi	s6,gp,-1936 # 20000170 <tcp_persist_backoff>
    841e:	000d1a63          	bnez	s10,8432 <tcp_slowtmr+0x50>
    8422:	9f41a403          	lw	s0,-1548(gp) # 200002f4 <tcp_tw_pcbs>
    8426:	9f418493          	addi	s1,gp,-1548 # 200002f4 <tcp_tw_pcbs>
    842a:	24041963          	bnez	s0,867c <tcp_slowtmr+0x29a>
    842e:	8f4f806f          	j	522 <__riscv_restore_12>
    8432:	197d                	addi	s2,s2,-1
    8434:	0ff97913          	andi	s2,s2,255
    8438:	fe090be3          	beqz	s2,842e <tcp_slowtmr+0x4c>
    843c:	052d4603          	lbu	a2,82(s10)
    8440:	010d2683          	lw	a3,16(s10)
    8444:	4d85                	li	s11,1
    8446:	02cc0263          	beq	s8,a2,846a <tcp_slowtmr+0x88>
    844a:	0b0d4d83          	lbu	s11,176(s10)
    844e:	100d8463          	beqz	s11,8556 <tcp_slowtmr+0x174>
    8452:	0acd2703          	lw	a4,172(s10)
    8456:	01bb06b3          	add	a3,s6,s11
    845a:	fff6c683          	lbu	a3,-1(a3)
    845e:	0705                	addi	a4,a4,1
    8460:	0aed2623          	sw	a4,172(s10)
    8464:	0cd77c63          	bgeu	a4,a3,853c <tcp_slowtmr+0x15a>
    8468:	4d81                	li	s11,0
    846a:	010d2703          	lw	a4,16(s10)
    846e:	4699                	li	a3,6
    8470:	00d71d63          	bne	a4,a3,848a <tcp_slowtmr+0xa8>
    8474:	038d2603          	lw	a2,56(s10)
    8478:	4014                	lw	a3,0(s0)
    847a:	8e91                	sub	a3,a3,a2
    847c:	4c90                	lw	a2,24(s1)
    847e:	00d67663          	bgeu	a2,a3,848a <tcp_slowtmr+0xa8>
    8482:	001d8793          	addi	a5,s11,1
    8486:	0ff7fd93          	andi	s11,a5,255
    848a:	008d5683          	lhu	a3,8(s10)
    848e:	4b81                	li	s7,0
    8490:	8aa1                	andi	a3,a3,8
    8492:	ce95                	beqz	a3,84ce <tcp_slowtmr+0xec>
    8494:	4691                	li	a3,4
    8496:	00d70563          	beq	a4,a3,84a0 <tcp_slowtmr+0xbe>
    849a:	469d                	li	a3,7
    849c:	02d71963          	bne	a4,a3,84ce <tcp_slowtmr+0xec>
    84a0:	0a4d2883          	lw	a7,164(s10)
    84a4:	0a8d2683          	lw	a3,168(s10)
    84a8:	0a0d2503          	lw	a0,160(s10)
    84ac:	4ccc                	lw	a1,28(s1)
    84ae:	02d886b3          	mul	a3,a7,a3
    84b2:	4010                	lw	a2,0(s0)
    84b4:	038d2703          	lw	a4,56(s10)
    84b8:	8e19                	sub	a2,a2,a4
    84ba:	96aa                	add	a3,a3,a0
    84bc:	02b6d6b3          	divu	a3,a3,a1
    84c0:	10c6fc63          	bgeu	a3,a2,85d8 <tcp_slowtmr+0x1f6>
    84c4:	001d8793          	addi	a5,s11,1
    84c8:	0ff7fd93          	andi	s11,a5,255
    84cc:	4b85                	li	s7,1
    84ce:	084d2503          	lw	a0,132(s10)
    84d2:	c105                	beqz	a0,84f2 <tcp_slowtmr+0x110>
    84d4:	038d2703          	lw	a4,56(s10)
    84d8:	4014                	lw	a3,0(s0)
    84da:	4619                	li	a2,6
    84dc:	8e99                	sub	a3,a3,a4
    84de:	050d1703          	lh	a4,80(s10)
    84e2:	02c70733          	mul	a4,a4,a2
    84e6:	00e6e663          	bltu	a3,a4,84f2 <tcp_slowtmr+0x110>
    84ea:	e41ff0ef          	jal	ra,832a <tcp_segs_free>
    84ee:	080d2223          	sw	zero,132(s10)
    84f2:	010d2703          	lw	a4,16(s10)
    84f6:	11971463          	bne	a4,s9,85fe <tcp_slowtmr+0x21c>
    84fa:	038d2683          	lw	a3,56(s10)
    84fe:	4018                	lw	a4,0(s0)
    8500:	8f15                	sub	a4,a4,a3
    8502:	4c94                	lw	a3,24(s1)
    8504:	10e6e863          	bltu	a3,a4,8614 <tcp_slowtmr+0x232>
    8508:	100d9663          	bnez	s11,8614 <tcp_slowtmr+0x232>
    850c:	03cd4783          	lbu	a5,60(s10)
    8510:	03dd4703          	lbu	a4,61(s10)
    8514:	0785                	addi	a5,a5,1
    8516:	0ff7f793          	andi	a5,a5,255
    851a:	02fd0e23          	sb	a5,60(s10)
    851e:	00e7eb63          	bltu	a5,a4,8534 <tcp_slowtmr+0x152>
    8522:	098d2783          	lw	a5,152(s10)
    8526:	020d0e23          	sb	zero,60(s10)
    852a:	14079263          	bnez	a5,866e <tcp_slowtmr+0x28c>
    852e:	856a                	mv	a0,s10
    8530:	01a020ef          	jal	ra,a54a <tcp_output>
    8534:	8a6a                	mv	s4,s10
    8536:	00cd2d03          	lw	s10,12(s10)
    853a:	b5d5                	j	841e <tcp_slowtmr+0x3c>
    853c:	0a0d2623          	sw	zero,172(s10)
    8540:	4719                	li	a4,6
    8542:	01b76663          	bltu	a4,s11,854e <tcp_slowtmr+0x16c>
    8546:	001d8793          	addi	a5,s11,1
    854a:	0afd0823          	sb	a5,176(s10)
    854e:	856a                	mv	a0,s10
    8550:	5dc020ef          	jal	ra,ab2c <tcp_zero_window_probe>
    8554:	bf11                	j	8468 <tcp_slowtmr+0x86>
    8556:	03ed1703          	lh	a4,62(s10)
    855a:	00074563          	bltz	a4,8564 <tcp_slowtmr+0x182>
    855e:	0705                	addi	a4,a4,1
    8560:	02ed1f23          	sh	a4,62(s10)
    8564:	080d2703          	lw	a4,128(s10)
    8568:	f00700e3          	beqz	a4,8468 <tcp_slowtmr+0x86>
    856c:	03ed1583          	lh	a1,62(s10)
    8570:	050d1703          	lh	a4,80(s10)
    8574:	eeb75ae3          	bge	a4,a1,8468 <tcp_slowtmr+0x86>
    8578:	02dcf463          	bgeu	s9,a3,85a0 <tcp_slowtmr+0x1be>
    857c:	04cd1703          	lh	a4,76(s10)
    8580:	04ed1683          	lh	a3,78(s10)
    8584:	47b1                	li	a5,12
    8586:	870d                	srai	a4,a4,0x3
    8588:	9736                	add	a4,a4,a3
    858a:	0ff67693          	andi	a3,a2,255
    858e:	00c7f363          	bgeu	a5,a2,8594 <tcp_slowtmr+0x1b2>
    8592:	46b1                	li	a3,12
    8594:	96d6                	add	a3,a3,s5
    8596:	2294                	lbu	a3,0(a3)
    8598:	00d71733          	sll	a4,a4,a3
    859c:	04ed1823          	sh	a4,80(s10)
    85a0:	05ad5683          	lhu	a3,90(s10)
    85a4:	064d5703          	lhu	a4,100(s10)
    85a8:	020d1f23          	sh	zero,62(s10)
    85ac:	00e6f363          	bgeu	a3,a4,85b2 <tcp_slowtmr+0x1d0>
    85b0:	8736                	mv	a4,a3
    85b2:	0742                	slli	a4,a4,0x10
    85b4:	8341                	srli	a4,a4,0x10
    85b6:	040d5683          	lhu	a3,64(s10)
    85ba:	8305                	srli	a4,a4,0x1
    85bc:	04ed1e23          	sh	a4,92(s10)
    85c0:	00d77663          	bgeu	a4,a3,85cc <tcp_slowtmr+0x1ea>
    85c4:	00169713          	slli	a4,a3,0x1
    85c8:	04ed1e23          	sh	a4,92(s10)
    85cc:	04dd1d23          	sh	a3,90(s10)
    85d0:	856a                	mv	a0,s10
    85d2:	3e8020ef          	jal	ra,a9ba <tcp_rexmit_rto>
    85d6:	bd51                	j	846a <tcp_slowtmr+0x88>
    85d8:	0b1d4703          	lbu	a4,177(s10)
    85dc:	4b81                	li	s7,0
    85de:	03170733          	mul	a4,a4,a7
    85e2:	972a                	add	a4,a4,a0
    85e4:	02b75733          	divu	a4,a4,a1
    85e8:	eec773e3          	bgeu	a4,a2,84ce <tcp_slowtmr+0xec>
    85ec:	856a                	mv	a0,s10
    85ee:	4e0020ef          	jal	ra,aace <tcp_keepalive>
    85f2:	0b1d4703          	lbu	a4,177(s10)
    85f6:	0705                	addi	a4,a4,1
    85f8:	0aed08a3          	sb	a4,177(s10)
    85fc:	bdc9                	j	84ce <tcp_slowtmr+0xec>
    85fe:	46a5                	li	a3,9
    8600:	f0d714e3          	bne	a4,a3,8508 <tcp_slowtmr+0x126>
    8604:	038d2703          	lw	a4,56(s10)
    8608:	4014                	lw	a3,0(s0)
    860a:	8e99                	sub	a3,a3,a4
    860c:	4c98                	lw	a4,24(s1)
    860e:	0706                	slli	a4,a4,0x1
    8610:	eed77ce3          	bgeu	a4,a3,8508 <tcp_slowtmr+0x126>
    8614:	856a                	mv	a0,s10
    8616:	d68fd0ef          	jal	ra,5b7e <LwipRemoveTcpPcb>
    861a:	856a                	mv	a0,s10
    861c:	d79ff0ef          	jal	ra,8394 <tcp_pcb_purge>
    8620:	00cd2783          	lw	a5,12(s10)
    8624:	040a0263          	beqz	s4,8668 <tcp_slowtmr+0x286>
    8628:	00fa2623          	sw	a5,12(s4)
    862c:	09cd2783          	lw	a5,156(s10)
    8630:	c789                	beqz	a5,863a <tcp_slowtmr+0x258>
    8632:	018d2503          	lw	a0,24(s10)
    8636:	55ed                	li	a1,-5
    8638:	9782                	jalr	a5
    863a:	000b8f63          	beqz	s7,8658 <tcp_slowtmr+0x276>
    863e:	024d5783          	lhu	a5,36(s10)
    8642:	01cd5703          	lhu	a4,28(s10)
    8646:	028d2583          	lw	a1,40(s10)
    864a:	060d2503          	lw	a0,96(s10)
    864e:	004d0693          	addi	a3,s10,4
    8652:	866a                	mv	a2,s10
    8654:	25e020ef          	jal	ra,a8b2 <tcp_rst>
    8658:	00cd2b83          	lw	s7,12(s10)
    865c:	85ea                	mv	a1,s10
    865e:	4509                	li	a0,2
    8660:	bd4ff0ef          	jal	ra,7a34 <memp_free>
    8664:	8d5e                	mv	s10,s7
    8666:	bb65                	j	841e <tcp_slowtmr+0x3c>
    8668:	00f9a023          	sw	a5,0(s3)
    866c:	b7c1                	j	862c <tcp_slowtmr+0x24a>
    866e:	018d2503          	lw	a0,24(s10)
    8672:	85ea                	mv	a1,s10
    8674:	9782                	jalr	a5
    8676:	ea050ce3          	beqz	a0,852e <tcp_slowtmr+0x14c>
    867a:	bd6d                	j	8534 <tcp_slowtmr+0x152>
    867c:	8522                	mv	a0,s0
    867e:	d00fd0ef          	jal	ra,5b7e <LwipRemoveTcpPcb>
    8682:	8522                	mv	a0,s0
    8684:	d11ff0ef          	jal	ra,8394 <tcp_pcb_purge>
    8688:	00c42903          	lw	s2,12(s0)
    868c:	85a2                	mv	a1,s0
    868e:	4509                	li	a0,2
    8690:	0124a023          	sw	s2,0(s1)
    8694:	844a                	mv	s0,s2
    8696:	b9eff0ef          	jal	ra,7a34 <memp_free>
    869a:	bb41                	j	842a <tcp_slowtmr+0x48>

0000869c <tcp_pcb_remove>:
    869c:	e7bf72ef          	jal	t0,516 <__riscv_save_0>
    86a0:	411c                	lw	a5,0(a0)
    86a2:	842e                	mv	s0,a1
    86a4:	04b79063          	bne	a5,a1,86e4 <tcp_pcb_remove+0x48>
    86a8:	45dc                	lw	a5,12(a1)
    86aa:	c11c                	sw	a5,0(a0)
    86ac:	00042623          	sw	zero,12(s0)
    86b0:	8522                	mv	a0,s0
    86b2:	ce3ff0ef          	jal	ra,8394 <tcp_pcb_purge>
    86b6:	481c                	lw	a5,16(s0)
    86b8:	4729                	li	a4,10
    86ba:	02e78163          	beq	a5,a4,86dc <tcp_pcb_remove+0x40>
    86be:	4705                	li	a4,1
    86c0:	00e78e63          	beq	a5,a4,86dc <tcp_pcb_remove+0x40>
    86c4:	02644783          	lbu	a5,38(s0)
    86c8:	0017f713          	andi	a4,a5,1
    86cc:	cb01                	beqz	a4,86dc <tcp_pcb_remove+0x40>
    86ce:	0027e793          	ori	a5,a5,2
    86d2:	02f40323          	sb	a5,38(s0)
    86d6:	8522                	mv	a0,s0
    86d8:	673010ef          	jal	ra,a54a <tcp_output>
    86dc:	00042823          	sw	zero,16(s0)
    86e0:	e5bf706f          	j	53a <__riscv_restore_0>
    86e4:	9ef1a823          	sw	a5,-1552(gp) # 200002f0 <tcp_tmp_pcb>
    86e8:	4681                	li	a3,0
    86ea:	9f018713          	addi	a4,gp,-1552 # 200002f0 <tcp_tmp_pcb>
    86ee:	e789                	bnez	a5,86f8 <tcp_pcb_remove+0x5c>
    86f0:	ded5                	beqz	a3,86ac <tcp_pcb_remove+0x10>
    86f2:	00072023          	sw	zero,0(a4)
    86f6:	bf5d                	j	86ac <tcp_pcb_remove+0x10>
    86f8:	47d0                	lw	a2,12(a5)
    86fa:	00861763          	bne	a2,s0,8708 <tcp_pcb_remove+0x6c>
    86fe:	c291                	beqz	a3,8702 <tcp_pcb_remove+0x66>
    8700:	c31c                	sw	a5,0(a4)
    8702:	4458                	lw	a4,12(s0)
    8704:	c7d8                	sw	a4,12(a5)
    8706:	b75d                	j	86ac <tcp_pcb_remove+0x10>
    8708:	4685                	li	a3,1
    870a:	87b2                	mv	a5,a2
    870c:	b7cd                	j	86ee <tcp_pcb_remove+0x52>

0000870e <tcp_close>:
    870e:	491c                	lw	a5,16(a0)
    8710:	471d                	li	a4,7
    8712:	0af76563          	bltu	a4,a5,87bc <tcp_close+0xae>
    8716:	e01f72ef          	jal	t0,516 <__riscv_save_0>
    871a:	6735                	lui	a4,0xd
    871c:	078a                	slli	a5,a5,0x2
    871e:	c3470713          	addi	a4,a4,-972 # cc34 <ErrTable+0x10>
    8722:	97ba                	add	a5,a5,a4
    8724:	439c                	lw	a5,0(a5)
    8726:	842a                	mv	s0,a0
    8728:	8782                	jr	a5
    872a:	c54fd0ef          	jal	ra,5b7e <LwipRemoveTcpPcb>
    872e:	9e018713          	addi	a4,gp,-1568 # 200002e0 <tcp_bound_pcbs>
    8732:	431c                	lw	a5,0(a4)
    8734:	00879963          	bne	a5,s0,8746 <tcp_close+0x38>
    8738:	445c                	lw	a5,12(s0)
    873a:	c31c                	sw	a5,0(a4)
    873c:	00042623          	sw	zero,12(s0)
    8740:	85a2                	mv	a1,s0
    8742:	4509                	li	a0,2
    8744:	a83d                	j	8782 <tcp_close+0x74>
    8746:	9ef1a823          	sw	a5,-1552(gp) # 200002f0 <tcp_tmp_pcb>
    874a:	4681                	li	a3,0
    874c:	9f018713          	addi	a4,gp,-1552 # 200002f0 <tcp_tmp_pcb>
    8750:	e789                	bnez	a5,875a <tcp_close+0x4c>
    8752:	d6ed                	beqz	a3,873c <tcp_close+0x2e>
    8754:	00072023          	sw	zero,0(a4)
    8758:	b7d5                	j	873c <tcp_close+0x2e>
    875a:	47d0                	lw	a2,12(a5)
    875c:	00861763          	bne	a2,s0,876a <tcp_close+0x5c>
    8760:	c291                	beqz	a3,8764 <tcp_close+0x56>
    8762:	c31c                	sw	a5,0(a4)
    8764:	4458                	lw	a4,12(s0)
    8766:	c7d8                	sw	a4,12(a5)
    8768:	bfd1                	j	873c <tcp_close+0x2e>
    876a:	4685                	li	a3,1
    876c:	87b2                	mv	a5,a2
    876e:	b7cd                	j	8750 <tcp_close+0x42>
    8770:	c0efd0ef          	jal	ra,5b7e <LwipRemoveTcpPcb>
    8774:	85a2                	mv	a1,s0
    8776:	9e418513          	addi	a0,gp,-1564 # 200002e4 <tcp_listen_pcbs>
    877a:	f23ff0ef          	jal	ra,869c <tcp_pcb_remove>
    877e:	85a2                	mv	a1,s0
    8780:	450d                	li	a0,3
    8782:	ab2ff0ef          	jal	ra,7a34 <memp_free>
    8786:	4501                	li	a0,0
    8788:	a831                	j	87a4 <tcp_close+0x96>
    878a:	bf4fd0ef          	jal	ra,5b7e <LwipRemoveTcpPcb>
    878e:	85a2                	mv	a1,s0
    8790:	9dc18513          	addi	a0,gp,-1572 # 200002dc <tcp_active_pcbs>
    8794:	f09ff0ef          	jal	ra,869c <tcp_pcb_remove>
    8798:	b765                	j	8740 <tcp_close+0x32>
    879a:	4585                	li	a1,1
    879c:	4f9010ef          	jal	ra,a494 <tcp_send_ctrl>
    87a0:	4795                	li	a5,5
    87a2:	c901                	beqz	a0,87b2 <tcp_close+0xa4>
    87a4:	d97f706f          	j	53a <__riscv_restore_0>
    87a8:	4585                	li	a1,1
    87aa:	4eb010ef          	jal	ra,a494 <tcp_send_ctrl>
    87ae:	f97d                	bnez	a0,87a4 <tcp_close+0x96>
    87b0:	47a5                	li	a5,9
    87b2:	c81c                	sw	a5,16(s0)
    87b4:	8522                	mv	a0,s0
    87b6:	595010ef          	jal	ra,a54a <tcp_output>
    87ba:	b7f1                	j	8786 <tcp_close+0x78>
    87bc:	4501                	li	a0,0
    87be:	8082                	ret

000087c0 <tcp_recv_null>:
    87c0:	d57f72ef          	jal	t0,516 <__riscv_save_0>
    87c4:	1141                	addi	sp,sp,-16
    87c6:	852e                	mv	a0,a1
    87c8:	ce11                	beqz	a2,87e4 <tcp_recv_null+0x24>
    87ca:	260e                	lhu	a1,8(a2)
    87cc:	c632                	sw	a2,12(sp)
    87ce:	af7ff0ef          	jal	ra,82c4 <tcp_recved>
    87d2:	4632                	lw	a2,12(sp)
    87d4:	8532                	mv	a0,a2
    87d6:	c30ff0ef          	jal	ra,7c06 <pbuf_free>
    87da:	4781                	li	a5,0
    87dc:	853e                	mv	a0,a5
    87de:	0141                	addi	sp,sp,16
    87e0:	d5bf706f          	j	53a <__riscv_restore_0>
    87e4:	4781                	li	a5,0
    87e6:	fafd                	bnez	a3,87dc <tcp_recv_null+0x1c>
    87e8:	f27ff0ef          	jal	ra,870e <tcp_close>
    87ec:	87aa                	mv	a5,a0
    87ee:	b7fd                	j	87dc <tcp_recv_null+0x1c>

000087f0 <tcp_fasttmr>:
    87f0:	d27f72ef          	jal	t0,516 <__riscv_save_0>
    87f4:	9dc1a403          	lw	s0,-1572(gp) # 200002dc <tcp_active_pcbs>
    87f8:	06500493          	li	s1,101
    87fc:	e019                	bnez	s0,8802 <tcp_fasttmr+0x12>
    87fe:	d3df706f          	j	53a <__riscv_restore_0>
    8802:	08842603          	lw	a2,136(s0)
    8806:	ca19                	beqz	a2,881c <tcp_fasttmr+0x2c>
    8808:	09042783          	lw	a5,144(s0)
    880c:	4681                	li	a3,0
    880e:	85a2                	mv	a1,s0
    8810:	cf8d                	beqz	a5,884a <tcp_fasttmr+0x5a>
    8812:	4c08                	lw	a0,24(s0)
    8814:	9782                	jalr	a5
    8816:	e119                	bnez	a0,881c <tcp_fasttmr+0x2c>
    8818:	08042423          	sw	zero,136(s0)
    881c:	14fd                	addi	s1,s1,-1
    881e:	0ff4f493          	andi	s1,s1,255
    8822:	dcf1                	beqz	s1,87fe <tcp_fasttmr+0xe>
    8824:	02644783          	lbu	a5,38(s0)
    8828:	0017f713          	andi	a4,a5,1
    882c:	cf09                	beqz	a4,8846 <tcp_fasttmr+0x56>
    882e:	0027e793          	ori	a5,a5,2
    8832:	02f40323          	sb	a5,38(s0)
    8836:	8522                	mv	a0,s0
    8838:	513010ef          	jal	ra,a54a <tcp_output>
    883c:	02644783          	lbu	a5,38(s0)
    8840:	9bf1                	andi	a5,a5,-4
    8842:	02f40323          	sb	a5,38(s0)
    8846:	4440                	lw	s0,12(s0)
    8848:	bf55                	j	87fc <tcp_fasttmr+0xc>
    884a:	4501                	li	a0,0
    884c:	f75ff0ef          	jal	ra,87c0 <tcp_recv_null>
    8850:	b7d9                	j	8816 <tcp_fasttmr+0x26>

00008852 <tcp_tmr>:
    8852:	cc5f72ef          	jal	t0,516 <__riscv_save_0>
    8856:	f9bff0ef          	jal	ra,87f0 <tcp_fasttmr>
    885a:	9ec18713          	addi	a4,gp,-1556 # 200002ec <tcp_timer>
    885e:	231c                	lbu	a5,0(a4)
    8860:	0785                	addi	a5,a5,1
    8862:	0ff7f793          	andi	a5,a5,255
    8866:	a31c                	sb	a5,0(a4)
    8868:	8b85                	andi	a5,a5,1
    886a:	c399                	beqz	a5,8870 <tcp_tmr+0x1e>
    886c:	b77ff0ef          	jal	ra,83e2 <tcp_slowtmr>
    8870:	ccbf706f          	j	53a <__riscv_restore_0>

00008874 <tcp_fastsendack>:
    8874:	ca3f72ef          	jal	t0,516 <__riscv_save_0>
    8878:	9dc1a403          	lw	s0,-1572(gp) # 200002dc <tcp_active_pcbs>
    887c:	06500493          	li	s1,101
    8880:	4901                	li	s2,0
    8882:	e401                	bnez	s0,888a <tcp_fastsendack+0x16>
    8884:	854a                	mv	a0,s2
    8886:	cb5f706f          	j	53a <__riscv_restore_0>
    888a:	08842603          	lw	a2,136(s0)
    888e:	ca19                	beqz	a2,88a4 <tcp_fastsendack+0x30>
    8890:	09042783          	lw	a5,144(s0)
    8894:	4681                	li	a3,0
    8896:	85a2                	mv	a1,s0
    8898:	c7b1                	beqz	a5,88e4 <tcp_fastsendack+0x70>
    889a:	4c08                	lw	a0,24(s0)
    889c:	9782                	jalr	a5
    889e:	e119                	bnez	a0,88a4 <tcp_fastsendack+0x30>
    88a0:	08042423          	sw	zero,136(s0)
    88a4:	14fd                	addi	s1,s1,-1
    88a6:	0ff4f493          	andi	s1,s1,255
    88aa:	dce9                	beqz	s1,8884 <tcp_fastsendack+0x10>
    88ac:	02744783          	lbu	a5,39(s0)
    88b0:	cb85                	beqz	a5,88e0 <tcp_fastsendack+0x6c>
    88b2:	02644703          	lbu	a4,38(s0)
    88b6:	00177693          	andi	a3,a4,1
    88ba:	c29d                	beqz	a3,88e0 <tcp_fastsendack+0x6c>
    88bc:	17fd                	addi	a5,a5,-1
    88be:	0ff7f793          	andi	a5,a5,255
    88c2:	02f403a3          	sb	a5,39(s0)
    88c6:	e39d                	bnez	a5,88ec <tcp_fastsendack+0x78>
    88c8:	00276713          	ori	a4,a4,2
    88cc:	02e40323          	sb	a4,38(s0)
    88d0:	8522                	mv	a0,s0
    88d2:	479010ef          	jal	ra,a54a <tcp_output>
    88d6:	02644783          	lbu	a5,38(s0)
    88da:	9bf1                	andi	a5,a5,-4
    88dc:	02f40323          	sb	a5,38(s0)
    88e0:	4440                	lw	s0,12(s0)
    88e2:	b745                	j	8882 <tcp_fastsendack+0xe>
    88e4:	4501                	li	a0,0
    88e6:	edbff0ef          	jal	ra,87c0 <tcp_recv_null>
    88ea:	bf55                	j	889e <tcp_fastsendack+0x2a>
    88ec:	0905                	addi	s2,s2,1
    88ee:	bfcd                	j	88e0 <tcp_fastsendack+0x6c>

000088f0 <tcp_abandon>:
    88f0:	bfff72ef          	jal	t0,4ee <__riscv_save_10>
    88f4:	4918                	lw	a4,16(a0)
    88f6:	47a9                	li	a5,10
    88f8:	1141                	addi	sp,sp,-16
    88fa:	842a                	mv	s0,a0
    88fc:	00f71e63          	bne	a4,a5,8918 <tcp_abandon+0x28>
    8900:	85aa                	mv	a1,a0
    8902:	9f418513          	addi	a0,gp,-1548 # 200002f4 <tcp_tw_pcbs>
    8906:	d97ff0ef          	jal	ra,869c <tcp_pcb_remove>
    890a:	85a2                	mv	a1,s0
    890c:	4509                	li	a0,2
    890e:	926ff0ef          	jal	ra,7a34 <memp_free>
    8912:	0141                	addi	sp,sp,16
    8914:	c13f706f          	j	526 <__riscv_restore_10>
    8918:	411c                	lw	a5,0(a0)
    891a:	8b2e                	mv	s6,a1
    891c:	06052903          	lw	s2,96(a0)
    8920:	c63e                	sw	a5,12(sp)
    8922:	415c                	lw	a5,4(a0)
    8924:	02852983          	lw	s3,40(a0)
    8928:	01c55a03          	lhu	s4,28(a0)
    892c:	c43e                	sw	a5,8(sp)
    892e:	02455a83          	lhu	s5,36(a0)
    8932:	09c52483          	lw	s1,156(a0)
    8936:	01852b83          	lw	s7,24(a0)
    893a:	a44fd0ef          	jal	ra,5b7e <LwipRemoveTcpPcb>
    893e:	9dc18513          	addi	a0,gp,-1572 # 200002dc <tcp_active_pcbs>
    8942:	85a2                	mv	a1,s0
    8944:	d59ff0ef          	jal	ra,869c <tcp_pcb_remove>
    8948:	08042503          	lw	a0,128(s0)
    894c:	c119                	beqz	a0,8952 <tcp_abandon+0x62>
    894e:	9ddff0ef          	jal	ra,832a <tcp_segs_free>
    8952:	5c68                	lw	a0,124(s0)
    8954:	c119                	beqz	a0,895a <tcp_abandon+0x6a>
    8956:	9d5ff0ef          	jal	ra,832a <tcp_segs_free>
    895a:	08442503          	lw	a0,132(s0)
    895e:	c119                	beqz	a0,8964 <tcp_abandon+0x74>
    8960:	9cbff0ef          	jal	ra,832a <tcp_segs_free>
    8964:	85a2                	mv	a1,s0
    8966:	4509                	li	a0,2
    8968:	8ccff0ef          	jal	ra,7a34 <memp_free>
    896c:	c481                	beqz	s1,8974 <tcp_abandon+0x84>
    896e:	55ed                	li	a1,-5
    8970:	855e                	mv	a0,s7
    8972:	9482                	jalr	s1
    8974:	f80b0fe3          	beqz	s6,8912 <tcp_abandon+0x22>
    8978:	87d6                	mv	a5,s5
    897a:	8752                	mv	a4,s4
    897c:	0034                	addi	a3,sp,8
    897e:	0070                	addi	a2,sp,12
    8980:	85ce                	mv	a1,s3
    8982:	854a                	mv	a0,s2
    8984:	72f010ef          	jal	ra,a8b2 <tcp_rst>
    8988:	b769                	j	8912 <tcp_abandon+0x22>

0000898a <tcp_next_iss>:
    898a:	84018793          	addi	a5,gp,-1984 # 20000140 <iss.3186>
    898e:	4388                	lw	a0,0(a5)
    8990:	9e81a703          	lw	a4,-1560(gp) # 200002e8 <tcp_ticks>
    8994:	953a                	add	a0,a0,a4
    8996:	c388                	sw	a0,0(a5)
    8998:	8082                	ret

0000899a <tcp_alloc>:
    899a:	b63f72ef          	jal	t0,4fc <__riscv_save_4>
    899e:	892a                	mv	s2,a0
    89a0:	4509                	li	a0,2
    89a2:	872ff0ef          	jal	ra,7a14 <memp_malloc>
    89a6:	2000a4b7          	lui	s1,0x2000a
    89aa:	35c48493          	addi	s1,s1,860 # 2000a35c <WCHCfg>
    89ae:	842a                	mv	s0,a0
    89b0:	e125                	bnez	a0,8a10 <tcp_alloc+0x76>
    89b2:	489c                	lw	a5,16(s1)
    89b4:	8389                	srli	a5,a5,0x2
    89b6:	8b85                	andi	a5,a5,1
    89b8:	e789                	bnez	a5,89c2 <tcp_alloc+0x28>
    89ba:	4401                	li	s0,0
    89bc:	8522                	mv	a0,s0
    89be:	b73f706f          	j	530 <__riscv_restore_4>
    89c2:	9f41a783          	lw	a5,-1548(gp) # 200002f4 <tcp_tw_pcbs>
    89c6:	9e81a603          	lw	a2,-1560(gp) # 200002e8 <tcp_ticks>
    89ca:	4501                	li	a0,0
    89cc:	4681                	li	a3,0
    89ce:	9e818993          	addi	s3,gp,-1560 # 200002e8 <tcp_ticks>
    89d2:	e7f1                	bnez	a5,8a9e <tcp_alloc+0x104>
    89d4:	c501                	beqz	a0,89dc <tcp_alloc+0x42>
    89d6:	4585                	li	a1,1
    89d8:	f19ff0ef          	jal	ra,88f0 <tcp_abandon>
    89dc:	4509                	li	a0,2
    89de:	836ff0ef          	jal	ra,7a14 <memp_malloc>
    89e2:	842a                	mv	s0,a0
    89e4:	e515                	bnez	a0,8a10 <tcp_alloc+0x76>
    89e6:	9dc1a783          	lw	a5,-1572(gp) # 200002dc <tcp_active_pcbs>
    89ea:	0009a503          	lw	a0,0(s3)
    89ee:	197d                	addi	s2,s2,-1
    89f0:	0ff97913          	andi	s2,s2,255
    89f4:	07f00613          	li	a2,127
    89f8:	4581                	li	a1,0
    89fa:	ebdd                	bnez	a5,8ab0 <tcp_alloc+0x116>
    89fc:	c409                	beqz	s0,8a06 <tcp_alloc+0x6c>
    89fe:	4585                	li	a1,1
    8a00:	8522                	mv	a0,s0
    8a02:	eefff0ef          	jal	ra,88f0 <tcp_abandon>
    8a06:	4509                	li	a0,2
    8a08:	80cff0ef          	jal	ra,7a14 <memp_malloc>
    8a0c:	842a                	mv	s0,a0
    8a0e:	d555                	beqz	a0,89ba <tcp_alloc+0x20>
    8a10:	0b400613          	li	a2,180
    8a14:	4581                	li	a1,0
    8a16:	8522                	mv	a0,s0
    8a18:	b2ff70ef          	jal	ra,546 <memset>
    8a1c:	04000793          	li	a5,64
    8a20:	a85c                	sb	a5,20(s0)
    8a22:	449c                	lw	a5,8(s1)
    8a24:	06041c23          	sh	zero,120(s0)
    8a28:	21800713          	li	a4,536
    8a2c:	06f41b23          	sh	a5,118(s0)
    8a30:	385e                	lhu	a5,52(s0)
    8a32:	b45e                	sh	a5,44(s0)
    8a34:	b47e                	sh	a5,46(s0)
    8a36:	77e1                	lui	a5,0xffff8
    8a38:	a43e                	sh	a5,10(s0)
    8a3a:	40dc                	lw	a5,4(s1)
    8a3c:	00f77463          	bgeu	a4,a5,8a44 <tcp_alloc+0xaa>
    8a40:	21800793          	li	a5,536
    8a44:	04f41023          	sh	a5,64(s0)
    8a48:	67c1                	lui	a5,0x10
    8a4a:	577d                	li	a4,-1
    8a4c:	c47c                	sw	a5,76(s0)
    8a4e:	4785                	li	a5,1
    8a50:	04f41823          	sh	a5,80(s0)
    8a54:	bc7a                	sh	a4,62(s0)
    8a56:	04f41d23          	sh	a5,90(s0)
    8a5a:	f31ff0ef          	jal	ra,898a <tcp_next_iss>
    8a5e:	9e81a783          	lw	a5,-1560(gp) # 200002e8 <tcp_ticks>
    8a62:	d468                	sw	a0,108(s0)
    8a64:	d028                	sw	a0,96(s0)
    8a66:	dc1c                	sw	a5,56(s0)
    8a68:	000087b7          	lui	a5,0x8
    8a6c:	7c078793          	addi	a5,a5,1984 # 87c0 <tcp_recv_null>
    8a70:	08f42823          	sw	a5,144(s0)
    8a74:	2000a7b7          	lui	a5,0x2000a
    8a78:	30c7a703          	lw	a4,780(a5) # 2000a30c <KeepLiveCfg>
    8a7c:	30c78793          	addi	a5,a5,780
    8a80:	c868                	sw	a0,84(s0)
    8a82:	0ae42023          	sw	a4,160(s0)
    8a86:	43d8                	lw	a4,4(a5)
    8a88:	479c                	lw	a5,8(a5)
    8a8a:	d828                	sw	a0,112(s0)
    8a8c:	02040e23          	sb	zero,60(s0)
    8a90:	0ae42223          	sw	a4,164(s0)
    8a94:	0af42423          	sw	a5,168(s0)
    8a98:	0a0408a3          	sb	zero,177(s0)
    8a9c:	b705                	j	89bc <tcp_alloc+0x22>
    8a9e:	5f98                	lw	a4,56(a5)
    8aa0:	40e60733          	sub	a4,a2,a4
    8aa4:	00d76463          	bltu	a4,a3,8aac <tcp_alloc+0x112>
    8aa8:	86ba                	mv	a3,a4
    8aaa:	853e                	mv	a0,a5
    8aac:	47dc                	lw	a5,12(a5)
    8aae:	b715                	j	89d2 <tcp_alloc+0x38>
    8ab0:	2bd4                	lbu	a3,20(a5)
    8ab2:	00d96c63          	bltu	s2,a3,8aca <tcp_alloc+0x130>
    8ab6:	00d66a63          	bltu	a2,a3,8aca <tcp_alloc+0x130>
    8aba:	5f98                	lw	a4,56(a5)
    8abc:	40e50733          	sub	a4,a0,a4
    8ac0:	00b76563          	bltu	a4,a1,8aca <tcp_alloc+0x130>
    8ac4:	8636                	mv	a2,a3
    8ac6:	85ba                	mv	a1,a4
    8ac8:	843e                	mv	s0,a5
    8aca:	47dc                	lw	a5,12(a5)
    8acc:	b73d                	j	89fa <tcp_alloc+0x60>

00008ace <tcp_new>:
    8ace:	a49f72ef          	jal	t0,516 <__riscv_save_0>
    8ad2:	04000513          	li	a0,64
    8ad6:	ec5ff0ef          	jal	ra,899a <tcp_alloc>
    8ada:	a61f706f          	j	53a <__riscv_restore_0>

00008ade <tcp_eff_send_mss>:
    8ade:	a39f72ef          	jal	t0,516 <__riscv_save_0>
    8ae2:	842a                	mv	s0,a0
    8ae4:	852e                	mv	a0,a1
    8ae6:	d91fd0ef          	jal	ra,6876 <ip_route>
    8aea:	cd11                	beqz	a0,8b06 <tcp_eff_send_mss+0x28>
    8aec:	391e                	lhu	a5,48(a0)
    8aee:	cf81                	beqz	a5,8b06 <tcp_eff_send_mss+0x28>
    8af0:	fd878793          	addi	a5,a5,-40
    8af4:	873e                	mv	a4,a5
    8af6:	07c2                	slli	a5,a5,0x10
    8af8:	83c1                	srli	a5,a5,0x10
    8afa:	00f47363          	bgeu	s0,a5,8b00 <tcp_eff_send_mss+0x22>
    8afe:	8722                	mv	a4,s0
    8b00:	01071413          	slli	s0,a4,0x10
    8b04:	8041                	srli	s0,s0,0x10
    8b06:	8522                	mv	a0,s0
    8b08:	a33f706f          	j	53a <__riscv_restore_0>

00008b0c <RemoveTimeWaiTCP>:
    8b0c:	a0bf72ef          	jal	t0,516 <__riscv_save_0>
    8b10:	9f41a403          	lw	s0,-1548(gp) # 200002f4 <tcp_tw_pcbs>
    8b14:	9f418493          	addi	s1,gp,-1548 # 200002f4 <tcp_tw_pcbs>
    8b18:	e019                	bnez	s0,8b1e <RemoveTimeWaiTCP+0x12>
    8b1a:	a21f706f          	j	53a <__riscv_restore_0>
    8b1e:	8522                	mv	a0,s0
    8b20:	85efd0ef          	jal	ra,5b7e <LwipRemoveTcpPcb>
    8b24:	8522                	mv	a0,s0
    8b26:	86fff0ef          	jal	ra,8394 <tcp_pcb_purge>
    8b2a:	00c42903          	lw	s2,12(s0)
    8b2e:	85a2                	mv	a1,s0
    8b30:	4509                	li	a0,2
    8b32:	0124a023          	sw	s2,0(s1)
    8b36:	844a                	mv	s0,s2
    8b38:	efdfe0ef          	jal	ra,7a34 <memp_free>
    8b3c:	bff1                	j	8b18 <RemoveTimeWaiTCP+0xc>

00008b3e <tcp_oos_insert_segment>:
    8b3e:	9bff72ef          	jal	t0,4fc <__riscv_save_4>
    8b42:	491c                	lw	a5,16(a0)
    8b44:	84aa                	mv	s1,a0
    8b46:	8a2e                	mv	s4,a1
    8b48:	27c8                	lbu	a0,12(a5)
    8b4a:	37dc                	lbu	a5,13(a5)
    8b4c:	07a2                	slli	a5,a5,0x8
    8b4e:	8d5d                	or	a0,a0,a5
    8b50:	ce9fd0ef          	jal	ra,6838 <ntohs>
    8b54:	8905                	andi	a0,a0,1
    8b56:	e929                	bnez	a0,8ba8 <tcp_oos_insert_segment+0x6a>
    8b58:	6941                	lui	s2,0x10
    8b5a:	fc090913          	addi	s2,s2,-64 # ffc0 <_data_lma+0x32a0>
    8b5e:	010a2703          	lw	a4,16(s4)
    8b62:	a0c1a603          	lw	a2,-1524(gp) # 2000030c <seqno>
    8b66:	24de                	lhu	a5,12(s1)
    8b68:	3354                	lbu	a3,5(a4)
    8b6a:	234c                	lbu	a1,4(a4)
    8b6c:	97b2                	add	a5,a5,a2
    8b6e:	06a2                	slli	a3,a3,0x8
    8b70:	8dd5                	or	a1,a1,a3
    8b72:	2374                	lbu	a3,6(a4)
    8b74:	06c2                	slli	a3,a3,0x10
    8b76:	8ecd                	or	a3,a3,a1
    8b78:	336c                	lbu	a1,7(a4)
    8b7a:	05e2                	slli	a1,a1,0x18
    8b7c:	8dd5                	or	a1,a1,a3
    8b7e:	00ca5683          	lhu	a3,12(s4)
    8b82:	96ae                	add	a3,a3,a1
    8b84:	40d786b3          	sub	a3,a5,a3
    8b88:	0206d563          	bgez	a3,8bb2 <tcp_oos_insert_segment+0x74>
    8b8c:	8f8d                	sub	a5,a5,a1
    8b8e:	00f05963          	blez	a5,8ba0 <tcp_oos_insert_segment+0x62>
    8b92:	8d91                	sub	a1,a1,a2
    8b94:	05c2                	slli	a1,a1,0x10
    8b96:	40c8                	lw	a0,4(s1)
    8b98:	81c1                	srli	a1,a1,0x10
    8b9a:	a4ce                	sh	a1,12(s1)
    8b9c:	9f8ff0ef          	jal	ra,7d94 <pbuf_realloc>
    8ba0:	0144a023          	sw	s4,0(s1)
    8ba4:	98df706f          	j	530 <__riscv_restore_4>
    8ba8:	8552                	mv	a0,s4
    8baa:	f80ff0ef          	jal	ra,832a <tcp_segs_free>
    8bae:	4a01                	li	s4,0
    8bb0:	bfc5                	j	8ba0 <tcp_oos_insert_segment+0x62>
    8bb2:	375c                	lbu	a5,13(a4)
    8bb4:	2748                	lbu	a0,12(a4)
    8bb6:	07a2                	slli	a5,a5,0x8
    8bb8:	8d5d                	or	a0,a0,a5
    8bba:	c7ffd0ef          	jal	ra,6838 <ntohs>
    8bbe:	8905                	andi	a0,a0,1
    8bc0:	cd15                	beqz	a0,8bfc <tcp_oos_insert_segment+0xbe>
    8bc2:	489c                	lw	a5,16(s1)
    8bc4:	37c0                	lbu	s0,13(a5)
    8bc6:	27c8                	lbu	a0,12(a5)
    8bc8:	0422                	slli	s0,s0,0x8
    8bca:	8c49                	or	s0,s0,a0
    8bcc:	854a                	mv	a0,s2
    8bce:	c5dfd0ef          	jal	ra,682a <htons>
    8bd2:	489c                	lw	a5,16(s1)
    8bd4:	8c69                	and	s0,s0,a0
    8bd6:	27c8                	lbu	a0,12(a5)
    8bd8:	37dc                	lbu	a5,13(a5)
    8bda:	07a2                	slli	a5,a5,0x8
    8bdc:	8d5d                	or	a0,a0,a5
    8bde:	c5bfd0ef          	jal	ra,6838 <ntohs>
    8be2:	03e57513          	andi	a0,a0,62
    8be6:	00156513          	ori	a0,a0,1
    8bea:	c41fd0ef          	jal	ra,682a <htons>
    8bee:	489c                	lw	a5,16(s1)
    8bf0:	8d41                	or	a0,a0,s0
    8bf2:	0542                	slli	a0,a0,0x10
    8bf4:	8141                	srli	a0,a0,0x10
    8bf6:	a7c8                	sb	a0,12(a5)
    8bf8:	8121                	srli	a0,a0,0x8
    8bfa:	b7c8                	sb	a0,13(a5)
    8bfc:	000a2403          	lw	s0,0(s4)
    8c00:	8552                	mv	a0,s4
    8c02:	efeff0ef          	jal	ra,8300 <tcp_seg_free>
    8c06:	d445                	beqz	s0,8bae <tcp_oos_insert_segment+0x70>
    8c08:	8a22                	mv	s4,s0
    8c0a:	bf91                	j	8b5e <tcp_oos_insert_segment+0x20>

00008c0c <tcp_receive>:
    8c0c:	8e3f72ef          	jal	t0,4ee <__riscv_save_10>
    8c10:	9fc1c783          	lbu	a5,-1540(gp) # 200002fc <flags>
    8c14:	842a                	mv	s0,a0
    8c16:	8bc1                	andi	a5,a5,16
    8c18:	a0c18913          	addi	s2,gp,-1524 # 2000030c <seqno>
    8c1c:	c7f1                	beqz	a5,8ce8 <tcp_receive+0xdc>
    8c1e:	00092583          	lw	a1,0(s2)
    8c22:	5538                	lw	a4,104(a0)
    8c24:	06455683          	lhu	a3,100(a0)
    8c28:	5570                	lw	a2,108(a0)
    8c2a:	40b70533          	sub	a0,a4,a1
    8c2e:	9f81a783          	lw	a5,-1544(gp) # 200002f8 <ackno>
    8c32:	9f818493          	addi	s1,gp,-1544 # 200002f8 <ackno>
    8c36:	02054463          	bltz	a0,8c5e <tcp_receive+0x52>
    8c3a:	00b71663          	bne	a4,a1,8c46 <tcp_receive+0x3a>
    8c3e:	40f60733          	sub	a4,a2,a5
    8c42:	00074e63          	bltz	a4,8c5e <tcp_receive+0x52>
    8c46:	02f61e63          	bne	a2,a5,8c82 <tcp_receive+0x76>
    8c4a:	a141a503          	lw	a0,-1516(gp) # 20000314 <tcphdr>
    8c4e:	3578                	lbu	a4,15(a0)
    8c50:	00e54803          	lbu	a6,14(a0)
    8c54:	0722                	slli	a4,a4,0x8
    8c56:	01076733          	or	a4,a4,a6
    8c5a:	02e6f463          	bgeu	a3,a4,8c82 <tcp_receive+0x76>
    8c5e:	a141a503          	lw	a0,-1516(gp) # 20000314 <tcphdr>
    8c62:	3578                	lbu	a4,15(a0)
    8c64:	00e54803          	lbu	a6,14(a0)
    8c68:	d42c                	sw	a1,104(s0)
    8c6a:	0722                	slli	a4,a4,0x8
    8c6c:	01076733          	or	a4,a4,a6
    8c70:	06e41223          	sh	a4,100(s0)
    8c74:	d47c                	sw	a5,108(s0)
    8c76:	c711                	beqz	a4,8c82 <tcp_receive+0x76>
    8c78:	0b044703          	lbu	a4,176(s0)
    8c7c:	c319                	beqz	a4,8c82 <tcp_receive+0x76>
    8c7e:	0a040823          	sb	zero,176(s0)
    8c82:	486c                	lw	a1,84(s0)
    8c84:	40b78733          	sub	a4,a5,a1
    8c88:	2ae04263          	bgtz	a4,8f2c <tcp_receive+0x320>
    8c8c:	a181d703          	lhu	a4,-1512(gp) # 20000318 <tcplen>
    8c90:	06041a23          	sh	zero,116(s0)
    8c94:	28071963          	bnez	a4,8f26 <tcp_receive+0x31a>
    8c98:	06445703          	lhu	a4,100(s0)
    8c9c:	5468                	lw	a0,108(s0)
    8c9e:	96b2                	add	a3,a3,a2
    8ca0:	972a                	add	a4,a4,a0
    8ca2:	28d71263          	bne	a4,a3,8f26 <tcp_receive+0x31a>
    8ca6:	03e41703          	lh	a4,62(s0)
    8caa:	26074e63          	bltz	a4,8f26 <tcp_receive+0x31a>
    8cae:	26f59c63          	bne	a1,a5,8f26 <tcp_receive+0x31a>
    8cb2:	05844783          	lbu	a5,88(s0)
    8cb6:	470d                	li	a4,3
    8cb8:	0785                	addi	a5,a5,1
    8cba:	0ff7f793          	andi	a5,a5,255
    8cbe:	04f40c23          	sb	a5,88(s0)
    8cc2:	24f77c63          	bgeu	a4,a5,8f1a <tcp_receive+0x30e>
    8cc6:	05a45703          	lhu	a4,90(s0)
    8cca:	04045783          	lhu	a5,64(s0)
    8cce:	97ba                	add	a5,a5,a4
    8cd0:	07c2                	slli	a5,a5,0x10
    8cd2:	83c1                	srli	a5,a5,0x10
    8cd4:	00f77463          	bgeu	a4,a5,8cdc <tcp_receive+0xd0>
    8cd8:	04f41d23          	sh	a5,90(s0)
    8cdc:	5c7c                	lw	a5,124(s0)
    8cde:	36079f63          	bnez	a5,905c <tcp_receive+0x450>
    8ce2:	4070                	lw	a2,68(s0)
    8ce4:	40061a63          	bnez	a2,90f8 <tcp_receive+0x4ec>
    8ce8:	a181d603          	lhu	a2,-1512(gp) # 20000318 <tcplen>
    8cec:	00092783          	lw	a5,0(s2)
    8cf0:	5414                	lw	a3,40(s0)
    8cf2:	a1818a13          	addi	s4,gp,-1512 # 20000318 <tcplen>
    8cf6:	7e060663          	beqz	a2,94e2 <tcp_receive+0x8d6>
    8cfa:	40f685b3          	sub	a1,a3,a5
    8cfe:	fff58713          	addi	a4,a1,-1
    8d02:	46074b63          	bltz	a4,9178 <tcp_receive+0x56c>
    8d06:	4705                	li	a4,1
    8d08:	8f1d                	sub	a4,a4,a5
    8d0a:	8f11                	sub	a4,a4,a2
    8d0c:	9736                	add	a4,a4,a3
    8d0e:	46e04563          	bgtz	a4,9178 <tcp_receive+0x56c>
    8d12:	2000a9b7          	lui	s3,0x2000a
    8d16:	3e098793          	addi	a5,s3,992 # 2000a3e0 <inseg>
    8d1a:	43c4                	lw	s1,4(a5)
    8d1c:	01059713          	slli	a4,a1,0x10
    8d20:	8341                	srli	a4,a4,0x10
    8d22:	24be                	lhu	a5,10(s1)
    8d24:	3e098993          	addi	s3,s3,992
    8d28:	44b7d363          	bge	a5,a1,916e <tcp_receive+0x562>
    8d2c:	249e                	lhu	a5,8(s1)
    8d2e:	8f99                	sub	a5,a5,a4
    8d30:	07c2                	slli	a5,a5,0x10
    8d32:	83c1                	srli	a5,a5,0x10
    8d34:	24ba                	lhu	a4,10(s1)
    8d36:	42b74663          	blt	a4,a1,9162 <tcp_receive+0x556>
    8d3a:	40b005b3          	neg	a1,a1
    8d3e:	05c2                	slli	a1,a1,0x10
    8d40:	85c1                	srai	a1,a1,0x10
    8d42:	8526                	mv	a0,s1
    8d44:	e55fe0ef          	jal	ra,7b98 <pbuf_header>
    8d48:	40dc                	lw	a5,4(s1)
    8d4a:	00c9d683          	lhu	a3,12(s3)
    8d4e:	00092703          	lw	a4,0(s2)
    8d52:	00f9a423          	sw	a5,8(s3)
    8d56:	541c                	lw	a5,40(s0)
    8d58:	9736                	add	a4,a4,a3
    8d5a:	8f1d                	sub	a4,a4,a5
    8d5c:	00e99623          	sh	a4,12(s3)
    8d60:	0109a703          	lw	a4,16(s3)
    8d64:	0087d693          	srli	a3,a5,0x8
    8d68:	00f92023          	sw	a5,0(s2)
    8d6c:	a35c                	sb	a5,4(a4)
    8d6e:	b354                	sb	a3,5(a4)
    8d70:	0107d693          	srli	a3,a5,0x10
    8d74:	83e1                	srli	a5,a5,0x18
    8d76:	a374                	sb	a3,6(a4)
    8d78:	b37c                	sb	a5,7(a4)
    8d7a:	00092683          	lw	a3,0(s2)
    8d7e:	5418                	lw	a4,40(s0)
    8d80:	40e687b3          	sub	a5,a3,a4
    8d84:	7407cb63          	bltz	a5,94da <tcp_receive+0x8ce>
    8d88:	3452                	lhu	a2,44(s0)
    8d8a:	00168793          	addi	a5,a3,1
    8d8e:	8f99                	sub	a5,a5,a4
    8d90:	8f91                	sub	a5,a5,a2
    8d92:	74f04463          	bgtz	a5,94da <tcp_receive+0x8ce>
    8d96:	5ce69063          	bne	a3,a4,9356 <tcp_receive+0x74a>
    8d9a:	2000a4b7          	lui	s1,0x2000a
    8d9e:	3e048793          	addi	a5,s1,992 # 2000a3e0 <inseg>
    8da2:	00c7d983          	lhu	s3,12(a5)
    8da6:	4b9c                	lw	a5,16(a5)
    8da8:	3e048493          	addi	s1,s1,992
    8dac:	27c8                	lbu	a0,12(a5)
    8dae:	37dc                	lbu	a5,13(a5)
    8db0:	07a2                	slli	a5,a5,0x8
    8db2:	8d5d                	or	a0,a0,a5
    8db4:	a85fd0ef          	jal	ra,6838 <ntohs>
    8db8:	890d                	andi	a0,a0,3
    8dba:	00a03533          	snez	a0,a0
    8dbe:	954e                	add	a0,a0,s3
    8dc0:	0542                	slli	a0,a0,0x10
    8dc2:	345e                	lhu	a5,44(s0)
    8dc4:	8141                	srli	a0,a0,0x10
    8dc6:	00aa1023          	sh	a0,0(s4)
    8dca:	08a7fd63          	bgeu	a5,a0,8e64 <tcp_receive+0x258>
    8dce:	489c                	lw	a5,16(s1)
    8dd0:	27c8                	lbu	a0,12(a5)
    8dd2:	37dc                	lbu	a5,13(a5)
    8dd4:	07a2                	slli	a5,a5,0x8
    8dd6:	8d5d                	or	a0,a0,a5
    8dd8:	a61fd0ef          	jal	ra,6838 <ntohs>
    8ddc:	8905                	andi	a0,a0,1
    8dde:	c131                	beqz	a0,8e22 <tcp_receive+0x216>
    8de0:	489c                	lw	a5,16(s1)
    8de2:	00d7c983          	lbu	s3,13(a5)
    8de6:	27c8                	lbu	a0,12(a5)
    8de8:	09a2                	slli	s3,s3,0x8
    8dea:	00a9e9b3          	or	s3,s3,a0
    8dee:	6541                	lui	a0,0x10
    8df0:	fc050513          	addi	a0,a0,-64 # ffc0 <_data_lma+0x32a0>
    8df4:	a37fd0ef          	jal	ra,682a <htons>
    8df8:	489c                	lw	a5,16(s1)
    8dfa:	00a9f9b3          	and	s3,s3,a0
    8dfe:	27c8                	lbu	a0,12(a5)
    8e00:	37dc                	lbu	a5,13(a5)
    8e02:	07a2                	slli	a5,a5,0x8
    8e04:	8d5d                	or	a0,a0,a5
    8e06:	a33fd0ef          	jal	ra,6838 <ntohs>
    8e0a:	03e57513          	andi	a0,a0,62
    8e0e:	a1dfd0ef          	jal	ra,682a <htons>
    8e12:	489c                	lw	a5,16(s1)
    8e14:	00a9e533          	or	a0,s3,a0
    8e18:	0542                	slli	a0,a0,0x10
    8e1a:	8141                	srli	a0,a0,0x10
    8e1c:	a7c8                	sb	a0,12(a5)
    8e1e:	8121                	srli	a0,a0,0x8
    8e20:	b7c8                	sb	a0,13(a5)
    8e22:	345e                	lhu	a5,44(s0)
    8e24:	a4de                	sh	a5,12(s1)
    8e26:	489c                	lw	a5,16(s1)
    8e28:	27c8                	lbu	a0,12(a5)
    8e2a:	37dc                	lbu	a5,13(a5)
    8e2c:	07a2                	slli	a5,a5,0x8
    8e2e:	8d5d                	or	a0,a0,a5
    8e30:	a09fd0ef          	jal	ra,6838 <ntohs>
    8e34:	8909                	andi	a0,a0,2
    8e36:	c501                	beqz	a0,8e3e <tcp_receive+0x232>
    8e38:	24de                	lhu	a5,12(s1)
    8e3a:	17fd                	addi	a5,a5,-1
    8e3c:	a4de                	sh	a5,12(s1)
    8e3e:	24ce                	lhu	a1,12(s1)
    8e40:	40c8                	lw	a0,4(s1)
    8e42:	f53fe0ef          	jal	ra,7d94 <pbuf_realloc>
    8e46:	489c                	lw	a5,16(s1)
    8e48:	00c4d983          	lhu	s3,12(s1)
    8e4c:	27c8                	lbu	a0,12(a5)
    8e4e:	37dc                	lbu	a5,13(a5)
    8e50:	07a2                	slli	a5,a5,0x8
    8e52:	8d5d                	or	a0,a0,a5
    8e54:	9e5fd0ef          	jal	ra,6838 <ntohs>
    8e58:	890d                	andi	a0,a0,3
    8e5a:	00a03533          	snez	a0,a0
    8e5e:	99aa                	add	s3,s3,a0
    8e60:	013a1023          	sh	s3,0(s4)
    8e64:	08442783          	lw	a5,132(s0)
    8e68:	32078d63          	beqz	a5,91a2 <tcp_receive+0x596>
    8e6c:	489c                	lw	a5,16(s1)
    8e6e:	27c8                	lbu	a0,12(a5)
    8e70:	37dc                	lbu	a5,13(a5)
    8e72:	07a2                	slli	a5,a5,0x8
    8e74:	8d5d                	or	a0,a0,a5
    8e76:	9c3fd0ef          	jal	ra,6838 <ntohs>
    8e7a:	8905                	andi	a0,a0,1
    8e7c:	32051063          	bnez	a0,919c <tcp_receive+0x590>
    8e80:	08442a83          	lw	s5,132(s0)
    8e84:	6b41                	lui	s6,0x10
    8e86:	fc0b0b13          	addi	s6,s6,-64 # ffc0 <_data_lma+0x32a0>
    8e8a:	00092503          	lw	a0,0(s2)
    8e8e:	000a5703          	lhu	a4,0(s4)
    8e92:	972a                	add	a4,a4,a0
    8e94:	080a8063          	beqz	s5,8f14 <tcp_receive+0x308>
    8e98:	010aa603          	lw	a2,16(s5)
    8e9c:	324c                	lbu	a1,5(a2)
    8e9e:	2254                	lbu	a3,4(a2)
    8ea0:	05a2                	slli	a1,a1,0x8
    8ea2:	8dd5                	or	a1,a1,a3
    8ea4:	2274                	lbu	a3,6(a2)
    8ea6:	06c2                	slli	a3,a3,0x10
    8ea8:	8dd5                	or	a1,a1,a3
    8eaa:	3274                	lbu	a3,7(a2)
    8eac:	06e2                	slli	a3,a3,0x18
    8eae:	8ecd                	or	a3,a3,a1
    8eb0:	00cad583          	lhu	a1,12(s5)
    8eb4:	95b6                	add	a1,a1,a3
    8eb6:	40b705b3          	sub	a1,a4,a1
    8eba:	3205d963          	bgez	a1,91ec <tcp_receive+0x5e0>
    8ebe:	8f15                	sub	a4,a4,a3
    8ec0:	04e05a63          	blez	a4,8f14 <tcp_receive+0x308>
    8ec4:	08442783          	lw	a5,132(s0)
    8ec8:	4b98                	lw	a4,16(a5)
    8eca:	335c                	lbu	a5,5(a4)
    8ecc:	2354                	lbu	a3,4(a4)
    8ece:	07a2                	slli	a5,a5,0x8
    8ed0:	8fd5                	or	a5,a5,a3
    8ed2:	8f89                	sub	a5,a5,a0
    8ed4:	a4de                	sh	a5,12(s1)
    8ed6:	489c                	lw	a5,16(s1)
    8ed8:	27c8                	lbu	a0,12(a5)
    8eda:	37dc                	lbu	a5,13(a5)
    8edc:	07a2                	slli	a5,a5,0x8
    8ede:	8d5d                	or	a0,a0,a5
    8ee0:	959fd0ef          	jal	ra,6838 <ntohs>
    8ee4:	8909                	andi	a0,a0,2
    8ee6:	c501                	beqz	a0,8eee <tcp_receive+0x2e2>
    8ee8:	24de                	lhu	a5,12(s1)
    8eea:	17fd                	addi	a5,a5,-1
    8eec:	a4de                	sh	a5,12(s1)
    8eee:	24ce                	lhu	a1,12(s1)
    8ef0:	40c8                	lw	a0,4(s1)
    8ef2:	ea3fe0ef          	jal	ra,7d94 <pbuf_realloc>
    8ef6:	489c                	lw	a5,16(s1)
    8ef8:	00c4d983          	lhu	s3,12(s1)
    8efc:	27c8                	lbu	a0,12(a5)
    8efe:	37dc                	lbu	a5,13(a5)
    8f00:	07a2                	slli	a5,a5,0x8
    8f02:	8d5d                	or	a0,a0,a5
    8f04:	935fd0ef          	jal	ra,6838 <ntohs>
    8f08:	890d                	andi	a0,a0,3
    8f0a:	00a03533          	snez	a0,a0
    8f0e:	99aa                	add	s3,s3,a0
    8f10:	013a1023          	sh	s3,0(s4)
    8f14:	09542223          	sw	s5,132(s0)
    8f18:	a469                	j	91a2 <tcp_receive+0x596>
    8f1a:	dce791e3          	bne	a5,a4,8cdc <tcp_receive+0xd0>
    8f1e:	8522                	mv	a0,s0
    8f20:	34d010ef          	jal	ra,aa6c <tcp_rexmit_fast>
    8f24:	bb65                	j	8cdc <tcp_receive+0xd0>
    8f26:	04040c23          	sb	zero,88(s0)
    8f2a:	bb4d                	j	8cdc <tcp_receive+0xd0>
    8f2c:	5034                	lw	a3,96(s0)
    8f2e:	40d786b3          	sub	a3,a5,a3
    8f32:	12d04263          	bgtz	a3,9056 <tcp_receive+0x44a>
    8f36:	02644683          	lbu	a3,38(s0)
    8f3a:	0046f613          	andi	a2,a3,4
    8f3e:	ca01                	beqz	a2,8f4e <tcp_receive+0x342>
    8f40:	9aed                	andi	a3,a3,-5
    8f42:	02d40323          	sb	a3,38(s0)
    8f46:	05c45683          	lhu	a3,92(s0)
    8f4a:	04d41d23          	sh	a3,90(s0)
    8f4e:	04c41683          	lh	a3,76(s0)
    8f52:	04e45603          	lhu	a2,78(s0)
    8f56:	0742                	slli	a4,a4,0x10
    8f58:	868d                	srai	a3,a3,0x3
    8f5a:	96b2                	add	a3,a3,a2
    8f5c:	04d41823          	sh	a3,80(s0)
    8f60:	07645683          	lhu	a3,118(s0)
    8f64:	8341                	srli	a4,a4,0x10
    8f66:	06e41a23          	sh	a4,116(s0)
    8f6a:	9736                	add	a4,a4,a3
    8f6c:	06e41b23          	sh	a4,118(s0)
    8f70:	4818                	lw	a4,16(s0)
    8f72:	c87c                	sw	a5,84(s0)
    8f74:	04040923          	sb	zero,82(s0)
    8f78:	04040c23          	sb	zero,88(s0)
    8f7c:	478d                	li	a5,3
    8f7e:	02e7f163          	bgeu	a5,a4,8fa0 <tcp_receive+0x394>
    8f82:	05a45703          	lhu	a4,90(s0)
    8f86:	05c45683          	lhu	a3,92(s0)
    8f8a:	04045783          	lhu	a5,64(s0)
    8f8e:	02d77663          	bgeu	a4,a3,8fba <tcp_receive+0x3ae>
    8f92:	97ba                	add	a5,a5,a4
    8f94:	07c2                	slli	a5,a5,0x10
    8f96:	83c1                	srli	a5,a5,0x10
    8f98:	00f77463          	bgeu	a4,a5,8fa0 <tcp_receive+0x394>
    8f9c:	04f41d23          	sh	a5,90(s0)
    8fa0:	08042783          	lw	a5,128(s0)
    8fa4:	e385                	bnez	a5,8fc4 <tcp_receive+0x3b8>
    8fa6:	08042783          	lw	a5,128(s0)
    8faa:	02040e23          	sb	zero,60(s0)
    8fae:	0017b793          	seqz	a5,a5
    8fb2:	40f007b3          	neg	a5,a5
    8fb6:	bc7e                	sh	a5,62(s0)
    8fb8:	b315                	j	8cdc <tcp_receive+0xd0>
    8fba:	02f787b3          	mul	a5,a5,a5
    8fbe:	02e7c7b3          	div	a5,a5,a4
    8fc2:	bfc1                	j	8f92 <tcp_receive+0x386>
    8fc4:	4b98                	lw	a4,16(a5)
    8fc6:	3348                	lbu	a0,5(a4)
    8fc8:	235c                	lbu	a5,4(a4)
    8fca:	0522                	slli	a0,a0,0x8
    8fcc:	8d5d                	or	a0,a0,a5
    8fce:	237c                	lbu	a5,6(a4)
    8fd0:	07c2                	slli	a5,a5,0x10
    8fd2:	8fc9                	or	a5,a5,a0
    8fd4:	3368                	lbu	a0,7(a4)
    8fd6:	0562                	slli	a0,a0,0x18
    8fd8:	8d5d                	or	a0,a0,a5
    8fda:	891fd0ef          	jal	ra,686a <ntohl>
    8fde:	08042783          	lw	a5,128(s0)
    8fe2:	89aa                	mv	s3,a0
    8fe4:	00c7da03          	lhu	s4,12(a5)
    8fe8:	4b9c                	lw	a5,16(a5)
    8fea:	27c8                	lbu	a0,12(a5)
    8fec:	37dc                	lbu	a5,13(a5)
    8fee:	07a2                	slli	a5,a5,0x8
    8ff0:	8d5d                	or	a0,a0,a5
    8ff2:	847fd0ef          	jal	ra,6838 <ntohs>
    8ff6:	409c                	lw	a5,0(s1)
    8ff8:	890d                	andi	a0,a0,3
    8ffa:	00a03533          	snez	a0,a0
    8ffe:	9552                	add	a0,a0,s4
    9000:	40f989b3          	sub	s3,s3,a5
    9004:	954e                	add	a0,a0,s3
    9006:	faa040e3          	bgtz	a0,8fa6 <tcp_receive+0x39a>
    900a:	08042983          	lw	s3,128(s0)
    900e:	0009a783          	lw	a5,0(s3)
    9012:	08f42023          	sw	a5,128(s0)
    9016:	07445783          	lhu	a5,116(s0)
    901a:	c385                	beqz	a5,903a <tcp_receive+0x42e>
    901c:	0109a783          	lw	a5,16(s3)
    9020:	27c8                	lbu	a0,12(a5)
    9022:	37dc                	lbu	a5,13(a5)
    9024:	07a2                	slli	a5,a5,0x8
    9026:	8d5d                	or	a0,a0,a5
    9028:	811fd0ef          	jal	ra,6838 <ntohs>
    902c:	8905                	andi	a0,a0,1
    902e:	c511                	beqz	a0,903a <tcp_receive+0x42e>
    9030:	07445783          	lhu	a5,116(s0)
    9034:	17fd                	addi	a5,a5,-1
    9036:	06f41a23          	sh	a5,116(s0)
    903a:	0049a503          	lw	a0,4(s3)
    903e:	daffe0ef          	jal	ra,7dec <pbuf_clen>
    9042:	07845783          	lhu	a5,120(s0)
    9046:	40a78533          	sub	a0,a5,a0
    904a:	06a41c23          	sh	a0,120(s0)
    904e:	854e                	mv	a0,s3
    9050:	ab0ff0ef          	jal	ra,8300 <tcp_seg_free>
    9054:	b7b1                	j	8fa0 <tcp_receive+0x394>
    9056:	06041a23          	sh	zero,116(s0)
    905a:	b149                	j	8cdc <tcp_receive+0xd0>
    905c:	4b98                	lw	a4,16(a5)
    905e:	0004a983          	lw	s3,0(s1)
    9062:	3348                	lbu	a0,5(a4)
    9064:	235c                	lbu	a5,4(a4)
    9066:	0522                	slli	a0,a0,0x8
    9068:	8d5d                	or	a0,a0,a5
    906a:	237c                	lbu	a5,6(a4)
    906c:	07c2                	slli	a5,a5,0x10
    906e:	8fc9                	or	a5,a5,a0
    9070:	3368                	lbu	a0,7(a4)
    9072:	0562                	slli	a0,a0,0x18
    9074:	8d5d                	or	a0,a0,a5
    9076:	ff4fd0ef          	jal	ra,686a <ntohl>
    907a:	5c7c                	lw	a5,124(s0)
    907c:	8aaa                	mv	s5,a0
    907e:	415989b3          	sub	s3,s3,s5
    9082:	00c7da03          	lhu	s4,12(a5)
    9086:	4b9c                	lw	a5,16(a5)
    9088:	27c8                	lbu	a0,12(a5)
    908a:	37dc                	lbu	a5,13(a5)
    908c:	07a2                	slli	a5,a5,0x8
    908e:	8d5d                	or	a0,a0,a5
    9090:	fa8fd0ef          	jal	ra,6838 <ntohs>
    9094:	890d                	andi	a0,a0,3
    9096:	00a03533          	snez	a0,a0
    909a:	9552                	add	a0,a0,s4
    909c:	40a989b3          	sub	s3,s3,a0
    90a0:	c409c1e3          	bltz	s3,8ce2 <tcp_receive+0xd6>
    90a4:	409c                	lw	a5,0(s1)
    90a6:	5038                	lw	a4,96(s0)
    90a8:	8f99                	sub	a5,a5,a4
    90aa:	c2f04ce3          	bgtz	a5,8ce2 <tcp_receive+0xd6>
    90ae:	07c42983          	lw	s3,124(s0)
    90b2:	0009a783          	lw	a5,0(s3)
    90b6:	dc7c                	sw	a5,124(s0)
    90b8:	07445783          	lhu	a5,116(s0)
    90bc:	c385                	beqz	a5,90dc <tcp_receive+0x4d0>
    90be:	0109a783          	lw	a5,16(s3)
    90c2:	27c8                	lbu	a0,12(a5)
    90c4:	37dc                	lbu	a5,13(a5)
    90c6:	07a2                	slli	a5,a5,0x8
    90c8:	8d5d                	or	a0,a0,a5
    90ca:	f6efd0ef          	jal	ra,6838 <ntohs>
    90ce:	8905                	andi	a0,a0,1
    90d0:	c511                	beqz	a0,90dc <tcp_receive+0x4d0>
    90d2:	07445783          	lhu	a5,116(s0)
    90d6:	17fd                	addi	a5,a5,-1
    90d8:	06f41a23          	sh	a5,116(s0)
    90dc:	0049a503          	lw	a0,4(s3)
    90e0:	d0dfe0ef          	jal	ra,7dec <pbuf_clen>
    90e4:	07845783          	lhu	a5,120(s0)
    90e8:	40a78533          	sub	a0,a5,a0
    90ec:	06a41c23          	sh	a0,120(s0)
    90f0:	854e                	mv	a0,s3
    90f2:	a0eff0ef          	jal	ra,8300 <tcp_seg_free>
    90f6:	b6dd                	j	8cdc <tcp_receive+0xd0>
    90f8:	443c                	lw	a5,72(s0)
    90fa:	4098                	lw	a4,0(s1)
    90fc:	8f99                	sub	a5,a5,a4
    90fe:	be07d5e3          	bgez	a5,8ce8 <tcp_receive+0xdc>
    9102:	04c41683          	lh	a3,76(s0)
    9106:	9e81d703          	lhu	a4,-1560(gp) # 200002e8 <tcp_ticks>
    910a:	0642                	slli	a2,a2,0x10
    910c:	4036d593          	srai	a1,a3,0x3
    9110:	8241                	srli	a2,a2,0x10
    9112:	05c2                	slli	a1,a1,0x10
    9114:	81c1                	srli	a1,a1,0x10
    9116:	40c707b3          	sub	a5,a4,a2
    911a:	8f8d                	sub	a5,a5,a1
    911c:	07c2                	slli	a5,a5,0x10
    911e:	83c1                	srli	a5,a5,0x10
    9120:	01079513          	slli	a0,a5,0x10
    9124:	97b6                	add	a5,a5,a3
    9126:	07c2                	slli	a5,a5,0x10
    9128:	87c1                	srai	a5,a5,0x10
    912a:	8541                	srai	a0,a0,0x10
    912c:	04f41623          	sh	a5,76(s0)
    9130:	00055763          	bgez	a0,913e <tcp_receive+0x532>
    9134:	8e19                	sub	a2,a2,a4
    9136:	962e                	add	a2,a2,a1
    9138:	01061513          	slli	a0,a2,0x10
    913c:	8541                	srai	a0,a0,0x10
    913e:	04e41683          	lh	a3,78(s0)
    9142:	878d                	srai	a5,a5,0x3
    9144:	04042223          	sw	zero,68(s0)
    9148:	4026d713          	srai	a4,a3,0x2
    914c:	40e68733          	sub	a4,a3,a4
    9150:	972a                	add	a4,a4,a0
    9152:	0742                	slli	a4,a4,0x10
    9154:	8341                	srli	a4,a4,0x10
    9156:	97ba                	add	a5,a5,a4
    9158:	04e41723          	sh	a4,78(s0)
    915c:	04f41823          	sh	a5,80(s0)
    9160:	b661                	j	8ce8 <tcp_receive+0xdc>
    9162:	a49e                	sh	a5,8(s1)
    9164:	00049523          	sh	zero,10(s1)
    9168:	8d99                	sub	a1,a1,a4
    916a:	4084                	lw	s1,0(s1)
    916c:	b6e1                	j	8d34 <tcp_receive+0x128>
    916e:	40e00733          	neg	a4,a4
    9172:	01071593          	slli	a1,a4,0x10
    9176:	b6e9                	j	8d40 <tcp_receive+0x134>
    9178:	8f95                	sub	a5,a5,a3
    917a:	c007d0e3          	bgez	a5,8d7a <tcp_receive+0x16e>
    917e:	02644783          	lbu	a5,38(s0)
    9182:	8522                	mv	a0,s0
    9184:	0027e793          	ori	a5,a5,2
    9188:	02f40323          	sb	a5,38(s0)
    918c:	3be010ef          	jal	ra,a54a <tcp_output>
    9190:	b6ed                	j	8d7a <tcp_receive+0x16e>
    9192:	411c                	lw	a5,0(a0)
    9194:	08f42223          	sw	a5,132(s0)
    9198:	968ff0ef          	jal	ra,8300 <tcp_seg_free>
    919c:	08442503          	lw	a0,132(s0)
    91a0:	f96d                	bnez	a0,9192 <tcp_receive+0x586>
    91a2:	000a5683          	lhu	a3,0(s4)
    91a6:	345e                	lhu	a5,44(s0)
    91a8:	00092703          	lw	a4,0(s2)
    91ac:	8522                	mv	a0,s0
    91ae:	8f95                	sub	a5,a5,a3
    91b0:	9736                	add	a4,a4,a3
    91b2:	d418                	sw	a4,40(s0)
    91b4:	b45e                	sh	a5,44(s0)
    91b6:	8c6ff0ef          	jal	ra,827c <tcp_update_rcv_ann_wnd>
    91ba:	40dc                	lw	a5,4(s1)
    91bc:	279a                	lhu	a4,8(a5)
    91be:	c709                	beqz	a4,91c8 <tcp_receive+0x5bc>
    91c0:	a0f1a223          	sw	a5,-1532(gp) # 20000304 <recv_data>
    91c4:	0004a223          	sw	zero,4(s1)
    91c8:	489c                	lw	a5,16(s1)
    91ca:	27c8                	lbu	a0,12(a5)
    91cc:	37dc                	lbu	a5,13(a5)
    91ce:	07a2                	slli	a5,a5,0x8
    91d0:	8d5d                	or	a0,a0,a5
    91d2:	e66fd0ef          	jal	ra,6838 <ntohs>
    91d6:	8905                	andi	a0,a0,1
    91d8:	c519                	beqz	a0,91e6 <tcp_receive+0x5da>
    91da:	a0818793          	addi	a5,gp,-1528 # 20000308 <recv_flags>
    91de:	2398                	lbu	a4,0(a5)
    91e0:	02076713          	ori	a4,a4,32
    91e4:	a398                	sb	a4,0(a5)
    91e6:	4a91                	li	s5,4
    91e8:	4b1d                	li	s6,7
    91ea:	aa39                	j	9308 <tcp_receive+0x6fc>
    91ec:	365c                	lbu	a5,13(a2)
    91ee:	2648                	lbu	a0,12(a2)
    91f0:	07a2                	slli	a5,a5,0x8
    91f2:	8d5d                	or	a0,a0,a5
    91f4:	e44fd0ef          	jal	ra,6838 <ntohs>
    91f8:	8905                	andi	a0,a0,1
    91fa:	c535                	beqz	a0,9266 <tcp_receive+0x65a>
    91fc:	489c                	lw	a5,16(s1)
    91fe:	27c8                	lbu	a0,12(a5)
    9200:	37dc                	lbu	a5,13(a5)
    9202:	07a2                	slli	a5,a5,0x8
    9204:	8d5d                	or	a0,a0,a5
    9206:	e32fd0ef          	jal	ra,6838 <ntohs>
    920a:	8909                	andi	a0,a0,2
    920c:	ed29                	bnez	a0,9266 <tcp_receive+0x65a>
    920e:	489c                	lw	a5,16(s1)
    9210:	00d7c983          	lbu	s3,13(a5)
    9214:	27c8                	lbu	a0,12(a5)
    9216:	09a2                	slli	s3,s3,0x8
    9218:	00a9e9b3          	or	s3,s3,a0
    921c:	855a                	mv	a0,s6
    921e:	e0cfd0ef          	jal	ra,682a <htons>
    9222:	489c                	lw	a5,16(s1)
    9224:	00a9f9b3          	and	s3,s3,a0
    9228:	27c8                	lbu	a0,12(a5)
    922a:	37dc                	lbu	a5,13(a5)
    922c:	07a2                	slli	a5,a5,0x8
    922e:	8d5d                	or	a0,a0,a5
    9230:	e08fd0ef          	jal	ra,6838 <ntohs>
    9234:	03e57513          	andi	a0,a0,62
    9238:	00156513          	ori	a0,a0,1
    923c:	deefd0ef          	jal	ra,682a <htons>
    9240:	00a9e533          	or	a0,s3,a0
    9244:	489c                	lw	a5,16(s1)
    9246:	0542                	slli	a0,a0,0x10
    9248:	8141                	srli	a0,a0,0x10
    924a:	00855713          	srli	a4,a0,0x8
    924e:	a7c8                	sb	a0,12(a5)
    9250:	b7d8                	sb	a4,13(a5)
    9252:	00c4d983          	lhu	s3,12(s1)
    9256:	de2fd0ef          	jal	ra,6838 <ntohs>
    925a:	890d                	andi	a0,a0,3
    925c:	00a03533          	snez	a0,a0
    9260:	99aa                	add	s3,s3,a0
    9262:	013a1023          	sh	s3,0(s4)
    9266:	000aa983          	lw	s3,0(s5)
    926a:	8556                	mv	a0,s5
    926c:	894ff0ef          	jal	ra,8300 <tcp_seg_free>
    9270:	8ace                	mv	s5,s3
    9272:	b921                	j	8e8a <tcp_receive+0x27e>
    9274:	00f92023          	sw	a5,0(s2)
    9278:	375c                	lbu	a5,13(a4)
    927a:	2748                	lbu	a0,12(a4)
    927c:	00c4db83          	lhu	s7,12(s1)
    9280:	07a2                	slli	a5,a5,0x8
    9282:	8d5d                	or	a0,a0,a5
    9284:	db4fd0ef          	jal	ra,6838 <ntohs>
    9288:	541c                	lw	a5,40(s0)
    928a:	890d                	andi	a0,a0,3
    928c:	00a03533          	snez	a0,a0
    9290:	955e                	add	a0,a0,s7
    9292:	953e                	add	a0,a0,a5
    9294:	489c                	lw	a5,16(s1)
    9296:	d408                	sw	a0,40(s0)
    9298:	00c4db83          	lhu	s7,12(s1)
    929c:	27c8                	lbu	a0,12(a5)
    929e:	37dc                	lbu	a5,13(a5)
    92a0:	07a2                	slli	a5,a5,0x8
    92a2:	8d5d                	or	a0,a0,a5
    92a4:	d94fd0ef          	jal	ra,6838 <ntohs>
    92a8:	345e                	lhu	a5,44(s0)
    92aa:	890d                	andi	a0,a0,3
    92ac:	00a03533          	snez	a0,a0
    92b0:	955e                	add	a0,a0,s7
    92b2:	40a78533          	sub	a0,a5,a0
    92b6:	b44a                	sh	a0,44(s0)
    92b8:	8522                	mv	a0,s0
    92ba:	fc3fe0ef          	jal	ra,827c <tcp_update_rcv_ann_wnd>
    92be:	40cc                	lw	a1,4(s1)
    92c0:	259e                	lhu	a5,8(a1)
    92c2:	cb89                	beqz	a5,92d4 <tcp_receive+0x6c8>
    92c4:	a0418793          	addi	a5,gp,-1532 # 20000304 <recv_data>
    92c8:	4388                	lw	a0,0(a5)
    92ca:	cd35                	beqz	a0,9346 <tcp_receive+0x73a>
    92cc:	b3dfe0ef          	jal	ra,7e08 <pbuf_cat>
    92d0:	0004a223          	sw	zero,4(s1)
    92d4:	489c                	lw	a5,16(s1)
    92d6:	27c8                	lbu	a0,12(a5)
    92d8:	37dc                	lbu	a5,13(a5)
    92da:	07a2                	slli	a5,a5,0x8
    92dc:	8d5d                	or	a0,a0,a5
    92de:	d5afd0ef          	jal	ra,6838 <ntohs>
    92e2:	8905                	andi	a0,a0,1
    92e4:	cd01                	beqz	a0,92fc <tcp_receive+0x6f0>
    92e6:	a0818713          	addi	a4,gp,-1528 # 20000308 <recv_flags>
    92ea:	231c                	lbu	a5,0(a4)
    92ec:	0207e793          	ori	a5,a5,32
    92f0:	a31c                	sb	a5,0(a4)
    92f2:	481c                	lw	a5,16(s0)
    92f4:	01579463          	bne	a5,s5,92fc <tcp_receive+0x6f0>
    92f8:	01642823          	sw	s6,16(s0)
    92fc:	409c                	lw	a5,0(s1)
    92fe:	8526                	mv	a0,s1
    9300:	08f42223          	sw	a5,132(s0)
    9304:	ffdfe0ef          	jal	ra,8300 <tcp_seg_free>
    9308:	08442483          	lw	s1,132(s0)
    930c:	cc99                	beqz	s1,932a <tcp_receive+0x71e>
    930e:	4898                	lw	a4,16(s1)
    9310:	3354                	lbu	a3,5(a4)
    9312:	235c                	lbu	a5,4(a4)
    9314:	06a2                	slli	a3,a3,0x8
    9316:	8edd                	or	a3,a3,a5
    9318:	237c                	lbu	a5,6(a4)
    931a:	07c2                	slli	a5,a5,0x10
    931c:	8edd                	or	a3,a3,a5
    931e:	337c                	lbu	a5,7(a4)
    9320:	07e2                	slli	a5,a5,0x18
    9322:	8fd5                	or	a5,a5,a3
    9324:	5414                	lw	a3,40(s0)
    9326:	f4d787e3          	beq	a5,a3,9274 <tcp_receive+0x668>
    932a:	02644783          	lbu	a5,38(s0)
    932e:	0017f713          	andi	a4,a5,1
    9332:	cf01                	beqz	a4,934a <tcp_receive+0x73e>
    9334:	9bf9                	andi	a5,a5,-2
    9336:	0027e793          	ori	a5,a5,2
    933a:	02f40323          	sb	a5,38(s0)
    933e:	8522                	mv	a0,s0
    9340:	20a010ef          	jal	ra,a54a <tcp_output>
    9344:	a039                	j	9352 <tcp_receive+0x746>
    9346:	c38c                	sw	a1,0(a5)
    9348:	b761                	j	92d0 <tcp_receive+0x6c4>
    934a:	0017e793          	ori	a5,a5,1
    934e:	02f40323          	sb	a5,38(s0)
    9352:	9d4f706f          	j	526 <__riscv_restore_10>
    9356:	8522                	mv	a0,s0
    9358:	182010ef          	jal	ra,a4da <tcp_send_empty_ack>
    935c:	08442483          	lw	s1,132(s0)
    9360:	e891                	bnez	s1,9374 <tcp_receive+0x768>
    9362:	2000a537          	lui	a0,0x2000a
    9366:	3e050513          	addi	a0,a0,992 # 2000a3e0 <inseg>
    936a:	fdffe0ef          	jal	ra,8348 <tcp_seg_copy>
    936e:	08a42223          	sw	a0,132(s0)
    9372:	b7c5                	j	9352 <tcp_receive+0x746>
    9374:	00092703          	lw	a4,0(s2)
    9378:	4981                	li	s3,0
    937a:	fff70813          	addi	a6,a4,-1
    937e:	00170513          	addi	a0,a4,1
    9382:	4890                	lw	a2,16(s1)
    9384:	3254                	lbu	a3,5(a2)
    9386:	225c                	lbu	a5,4(a2)
    9388:	06a2                	slli	a3,a3,0x8
    938a:	8edd                	or	a3,a3,a5
    938c:	227c                	lbu	a5,6(a2)
    938e:	07c2                	slli	a5,a5,0x10
    9390:	8edd                	or	a3,a3,a5
    9392:	327c                	lbu	a5,7(a2)
    9394:	07e2                	slli	a5,a5,0x18
    9396:	8fd5                	or	a5,a5,a3
    9398:	02e79c63          	bne	a5,a4,93d0 <tcp_receive+0x7c4>
    939c:	2000a537          	lui	a0,0x2000a
    93a0:	3e050793          	addi	a5,a0,992 # 2000a3e0 <inseg>
    93a4:	27da                	lhu	a4,12(a5)
    93a6:	24de                	lhu	a5,12(s1)
    93a8:	fae7f5e3          	bgeu	a5,a4,9352 <tcp_receive+0x746>
    93ac:	3e050513          	addi	a0,a0,992
    93b0:	f99fe0ef          	jal	ra,8348 <tcp_seg_copy>
    93b4:	dd59                	beqz	a0,9352 <tcp_receive+0x746>
    93b6:	00098a63          	beqz	s3,93ca <tcp_receive+0x7be>
    93ba:	00a9a023          	sw	a0,0(s3)
    93be:	85a6                	mv	a1,s1
    93c0:	f7eff0ef          	jal	ra,8b3e <tcp_oos_insert_segment>
    93c4:	b779                	j	9352 <tcp_receive+0x746>
    93c6:	84b6                	mv	s1,a3
    93c8:	bf6d                	j	9382 <tcp_receive+0x776>
    93ca:	08a42223          	sw	a0,132(s0)
    93ce:	bfc5                	j	93be <tcp_receive+0x7b2>
    93d0:	02099063          	bnez	s3,93f0 <tcp_receive+0x7e4>
    93d4:	40f706b3          	sub	a3,a4,a5
    93d8:	0806de63          	bgez	a3,9474 <tcp_receive+0x868>
    93dc:	2000a537          	lui	a0,0x2000a
    93e0:	3e050513          	addi	a0,a0,992 # 2000a3e0 <inseg>
    93e4:	f65fe0ef          	jal	ra,8348 <tcp_seg_copy>
    93e8:	d52d                	beqz	a0,9352 <tcp_receive+0x746>
    93ea:	08a42223          	sw	a0,132(s0)
    93ee:	bfc1                	j	93be <tcp_receive+0x7b2>
    93f0:	0109a883          	lw	a7,16(s3)
    93f4:	0058c583          	lbu	a1,5(a7)
    93f8:	0048c683          	lbu	a3,4(a7)
    93fc:	05a2                	slli	a1,a1,0x8
    93fe:	8dd5                	or	a1,a1,a3
    9400:	0068c683          	lbu	a3,6(a7)
    9404:	06c2                	slli	a3,a3,0x10
    9406:	8dd5                	or	a1,a1,a3
    9408:	0078c683          	lbu	a3,7(a7)
    940c:	06e2                	slli	a3,a3,0x18
    940e:	8ecd                	or	a3,a3,a1
    9410:	40d806b3          	sub	a3,a6,a3
    9414:	0606c063          	bltz	a3,9474 <tcp_receive+0x868>
    9418:	40f506b3          	sub	a3,a0,a5
    941c:	04d04c63          	bgtz	a3,9474 <tcp_receive+0x868>
    9420:	2000a537          	lui	a0,0x2000a
    9424:	3e050513          	addi	a0,a0,992 # 2000a3e0 <inseg>
    9428:	f21fe0ef          	jal	ra,8348 <tcp_seg_copy>
    942c:	842a                	mv	s0,a0
    942e:	d115                	beqz	a0,9352 <tcp_receive+0x746>
    9430:	0109a703          	lw	a4,16(s3)
    9434:	335c                	lbu	a5,5(a4)
    9436:	234c                	lbu	a1,4(a4)
    9438:	07a2                	slli	a5,a5,0x8
    943a:	8ddd                	or	a1,a1,a5
    943c:	237c                	lbu	a5,6(a4)
    943e:	07c2                	slli	a5,a5,0x10
    9440:	8fcd                	or	a5,a5,a1
    9442:	336c                	lbu	a1,7(a4)
    9444:	00c9d703          	lhu	a4,12(s3)
    9448:	05e2                	slli	a1,a1,0x18
    944a:	8fcd                	or	a5,a5,a1
    944c:	00092583          	lw	a1,0(s2)
    9450:	973e                	add	a4,a4,a5
    9452:	8f0d                	sub	a4,a4,a1
    9454:	00e05b63          	blez	a4,946a <tcp_receive+0x85e>
    9458:	8d9d                	sub	a1,a1,a5
    945a:	05c2                	slli	a1,a1,0x10
    945c:	0049a503          	lw	a0,4(s3)
    9460:	81c1                	srli	a1,a1,0x10
    9462:	00b99623          	sh	a1,12(s3)
    9466:	92ffe0ef          	jal	ra,7d94 <pbuf_realloc>
    946a:	0089a023          	sw	s0,0(s3)
    946e:	85a6                	mv	a1,s1
    9470:	8522                	mv	a0,s0
    9472:	b7b9                	j	93c0 <tcp_receive+0x7b4>
    9474:	4094                	lw	a3,0(s1)
    9476:	89a6                	mv	s3,s1
    9478:	f6b9                	bnez	a3,93c6 <tcp_receive+0x7ba>
    947a:	40f707b3          	sub	a5,a4,a5
    947e:	ecf05ae3          	blez	a5,9352 <tcp_receive+0x746>
    9482:	365c                	lbu	a5,13(a2)
    9484:	2648                	lbu	a0,12(a2)
    9486:	07a2                	slli	a5,a5,0x8
    9488:	8d5d                	or	a0,a0,a5
    948a:	baefd0ef          	jal	ra,6838 <ntohs>
    948e:	8905                	andi	a0,a0,1
    9490:	ec0511e3          	bnez	a0,9352 <tcp_receive+0x746>
    9494:	2000a537          	lui	a0,0x2000a
    9498:	3e050513          	addi	a0,a0,992 # 2000a3e0 <inseg>
    949c:	eadfe0ef          	jal	ra,8348 <tcp_seg_copy>
    94a0:	c088                	sw	a0,0(s1)
    94a2:	ea0508e3          	beqz	a0,9352 <tcp_receive+0x746>
    94a6:	4898                	lw	a4,16(s1)
    94a8:	335c                	lbu	a5,5(a4)
    94aa:	234c                	lbu	a1,4(a4)
    94ac:	07a2                	slli	a5,a5,0x8
    94ae:	8ddd                	or	a1,a1,a5
    94b0:	237c                	lbu	a5,6(a4)
    94b2:	07c2                	slli	a5,a5,0x10
    94b4:	8fcd                	or	a5,a5,a1
    94b6:	336c                	lbu	a1,7(a4)
    94b8:	24da                	lhu	a4,12(s1)
    94ba:	05e2                	slli	a1,a1,0x18
    94bc:	8fcd                	or	a5,a5,a1
    94be:	00092583          	lw	a1,0(s2)
    94c2:	973e                	add	a4,a4,a5
    94c4:	8f0d                	sub	a4,a4,a1
    94c6:	e8e056e3          	blez	a4,9352 <tcp_receive+0x746>
    94ca:	8d9d                	sub	a1,a1,a5
    94cc:	05c2                	slli	a1,a1,0x10
    94ce:	40c8                	lw	a0,4(s1)
    94d0:	81c1                	srli	a1,a1,0x10
    94d2:	a4ce                	sh	a1,12(s1)
    94d4:	8c1fe0ef          	jal	ra,7d94 <pbuf_realloc>
    94d8:	bdad                	j	9352 <tcp_receive+0x746>
    94da:	8522                	mv	a0,s0
    94dc:	7ff000ef          	jal	ra,a4da <tcp_send_empty_ack>
    94e0:	bd8d                	j	9352 <tcp_receive+0x746>
    94e2:	40d78733          	sub	a4,a5,a3
    94e6:	00074863          	bltz	a4,94f6 <tcp_receive+0x8ea>
    94ea:	345a                	lhu	a4,44(s0)
    94ec:	0785                	addi	a5,a5,1
    94ee:	8f95                	sub	a5,a5,a3
    94f0:	8f99                	sub	a5,a5,a4
    94f2:	e6f050e3          	blez	a5,9352 <tcp_receive+0x746>
    94f6:	02644783          	lbu	a5,38(s0)
    94fa:	bd35                	j	9336 <tcp_receive+0x72a>

000094fc <tcp_parseopt.isra.0>:
    94fc:	81af72ef          	jal	t0,516 <__riscv_save_0>
    9500:	a1418493          	addi	s1,gp,-1516 # 20000314 <tcphdr>
    9504:	0004a903          	lw	s2,0(s1)
    9508:	842a                	mv	s0,a0
    950a:	00d94783          	lbu	a5,13(s2)
    950e:	00c94503          	lbu	a0,12(s2)
    9512:	07a2                	slli	a5,a5,0x8
    9514:	8d5d                	or	a0,a0,a5
    9516:	b22fd0ef          	jal	ra,6838 <ntohs>
    951a:	8131                	srli	a0,a0,0xc
    951c:	0542                	slli	a0,a0,0x10
    951e:	8141                	srli	a0,a0,0x10
    9520:	4795                	li	a5,5
    9522:	02a7fc63          	bgeu	a5,a0,955a <tcp_parseopt.isra.0+0x5e>
    9526:	409c                	lw	a5,0(s1)
    9528:	0951                	addi	s2,s2,20
    952a:	27c8                	lbu	a0,12(a5)
    952c:	37dc                	lbu	a5,13(a5)
    952e:	07a2                	slli	a5,a5,0x8
    9530:	8d5d                	or	a0,a0,a5
    9532:	b06fd0ef          	jal	ra,6838 <ntohs>
    9536:	2000a7b7          	lui	a5,0x2000a
    953a:	3607a603          	lw	a2,864(a5) # 2000a360 <WCHCfg+0x4>
    953e:	8131                	srli	a0,a0,0xc
    9540:	156d                	addi	a0,a0,-5
    9542:	050a                	slli	a0,a0,0x2
    9544:	0542                	slli	a0,a0,0x10
    9546:	01061593          	slli	a1,a2,0x10
    954a:	8141                	srli	a0,a0,0x10
    954c:	81c1                	srli	a1,a1,0x10
    954e:	4781                	li	a5,0
    9550:	4805                	li	a6,1
    9552:	4889                	li	a7,2
    9554:	4311                	li	t1,4
    9556:	00a7e463          	bltu	a5,a0,955e <tcp_parseopt.isra.0+0x62>
    955a:	fe1f606f          	j	53a <__riscv_restore_0>
    955e:	00f906b3          	add	a3,s2,a5
    9562:	2298                	lbu	a4,0(a3)
    9564:	01070963          	beq	a4,a6,9576 <tcp_parseopt.isra.0+0x7a>
    9568:	db6d                	beqz	a4,955a <tcp_parseopt.isra.0+0x5e>
    956a:	01170a63          	beq	a4,a7,957e <tcp_parseopt.isra.0+0x82>
    956e:	3298                	lbu	a4,1(a3)
    9570:	d76d                	beqz	a4,955a <tcp_parseopt.isra.0+0x5e>
    9572:	97ba                	add	a5,a5,a4
    9574:	a011                	j	9578 <tcp_parseopt.isra.0+0x7c>
    9576:	0785                	addi	a5,a5,1
    9578:	07c2                	slli	a5,a5,0x10
    957a:	83c1                	srli	a5,a5,0x10
    957c:	bfe9                	j	9556 <tcp_parseopt.isra.0+0x5a>
    957e:	3298                	lbu	a4,1(a3)
    9580:	fc671de3          	bne	a4,t1,955a <tcp_parseopt.isra.0+0x5e>
    9584:	00378713          	addi	a4,a5,3
    9588:	fca759e3          	bge	a4,a0,955a <tcp_parseopt.isra.0+0x5e>
    958c:	22b8                	lbu	a4,2(a3)
    958e:	32b4                	lbu	a3,3(a3)
    9590:	0722                	slli	a4,a4,0x8
    9592:	8f55                	or	a4,a4,a3
    9594:	00e66363          	bltu	a2,a4,959a <tcp_parseopt.isra.0+0x9e>
    9598:	e311                	bnez	a4,959c <tcp_parseopt.isra.0+0xa0>
    959a:	872e                	mv	a4,a1
    959c:	a01a                	sh	a4,0(s0)
    959e:	0791                	addi	a5,a5,4
    95a0:	bfe1                	j	9578 <tcp_parseopt.isra.0+0x7c>

000095a2 <tcp_input>:
    95a2:	f45f62ef          	jal	t0,4e6 <__riscv_save_12>
    95a6:	4140                	lw	s0,4(a0)
    95a8:	8baa                	mv	s7,a0
    95aa:	301c                	lbu	a5,1(s0)
    95ac:	2008                	lbu	a0,0(s0)
    95ae:	1141                	addi	sp,sp,-16
    95b0:	07a2                	slli	a5,a5,0x8
    95b2:	a0018913          	addi	s2,gp,-1536 # 20000300 <iphdr>
    95b6:	8d5d                	or	a0,a0,a5
    95b8:	89ae                	mv	s3,a1
    95ba:	00892023          	sw	s0,0(s2)
    95be:	a7afd0ef          	jal	ra,6838 <ntohs>
    95c2:	00092783          	lw	a5,0(s2)
    95c6:	8119                	srli	a0,a0,0x6
    95c8:	03c57513          	andi	a0,a0,60
    95cc:	942a                	add	s0,s0,a0
    95ce:	2388                	lbu	a0,0(a5)
    95d0:	339c                	lbu	a5,1(a5)
    95d2:	a081aa23          	sw	s0,-1516(gp) # 20000314 <tcphdr>
    95d6:	07a2                	slli	a5,a5,0x8
    95d8:	8d5d                	or	a0,a0,a5
    95da:	a5efd0ef          	jal	ra,6838 <ntohs>
    95de:	00655593          	srli	a1,a0,0x6
    95e2:	03c5f593          	andi	a1,a1,60
    95e6:	40b005b3          	neg	a1,a1
    95ea:	855e                	mv	a0,s7
    95ec:	dacfe0ef          	jal	ra,7b98 <pbuf_header>
    95f0:	e511                	bnez	a0,95fc <tcp_input+0x5a>
    95f2:	008bd703          	lhu	a4,8(s7)
    95f6:	47cd                	li	a5,19
    95f8:	00e7e863          	bltu	a5,a4,9608 <tcp_input+0x66>
    95fc:	855e                	mv	a0,s7
    95fe:	e08fe0ef          	jal	ra,7c06 <pbuf_free>
    9602:	0141                	addi	sp,sp,16
    9604:	f1ff606f          	j	522 <__riscv_restore_12>
    9608:	a0018b13          	addi	s6,gp,-1536 # 20000300 <iphdr>
    960c:	000b2503          	lw	a0,0(s6)
    9610:	85ce                	mv	a1,s3
    9612:	0541                	addi	a0,a0,16
    9614:	ed8fd0ef          	jal	ra,6cec <ip_addr_isbroadcast>
    9618:	f175                	bnez	a0,95fc <tcp_input+0x5a>
    961a:	000b2703          	lw	a4,0(s6)
    961e:	f0000537          	lui	a0,0xf0000
    9622:	3b1c                	lbu	a5,17(a4)
    9624:	2b00                	lbu	s0,16(a4)
    9626:	07a2                	slli	a5,a5,0x8
    9628:	8fc1                	or	a5,a5,s0
    962a:	2b20                	lbu	s0,18(a4)
    962c:	0442                	slli	s0,s0,0x10
    962e:	8fc1                	or	a5,a5,s0
    9630:	3b20                	lbu	s0,19(a4)
    9632:	0462                	slli	s0,s0,0x18
    9634:	8c5d                	or	s0,s0,a5
    9636:	a34fd0ef          	jal	ra,686a <ntohl>
    963a:	8c69                	and	s0,s0,a0
    963c:	e0000537          	lui	a0,0xe0000
    9640:	a2afd0ef          	jal	ra,686a <ntohl>
    9644:	faa40ce3          	beq	s0,a0,95fc <tcp_input+0x5a>
    9648:	000b2583          	lw	a1,0(s6)
    964c:	008bd703          	lhu	a4,8(s7)
    9650:	4699                	li	a3,6
    9652:	01058613          	addi	a2,a1,16
    9656:	855e                	mv	a0,s7
    9658:	05b1                	addi	a1,a1,12
    965a:	5cf010ef          	jal	ra,b428 <inet_chksum_pseudo>
    965e:	fd59                	bnez	a0,95fc <tcp_input+0x5a>
    9660:	a1418493          	addi	s1,gp,-1516 # 20000314 <tcphdr>
    9664:	409c                	lw	a5,0(s1)
    9666:	27c8                	lbu	a0,12(a5)
    9668:	37dc                	lbu	a5,13(a5)
    966a:	07a2                	slli	a5,a5,0x8
    966c:	8d5d                	or	a0,a0,a5
    966e:	9cafd0ef          	jal	ra,6838 <ntohs>
    9672:	8131                	srli	a0,a0,0xc
    9674:	55f1                	li	a1,-4
    9676:	02b505b3          	mul	a1,a0,a1
    967a:	855e                	mv	a0,s7
    967c:	05c2                	slli	a1,a1,0x10
    967e:	85c1                	srai	a1,a1,0x10
    9680:	d18fe0ef          	jal	ra,7b98 <pbuf_header>
    9684:	fd25                	bnez	a0,95fc <tcp_input+0x5a>
    9686:	4080                	lw	s0,0(s1)
    9688:	301c                	lbu	a5,1(s0)
    968a:	2008                	lbu	a0,0(s0)
    968c:	07a2                	slli	a5,a5,0x8
    968e:	8d5d                	or	a0,a0,a5
    9690:	9a8fd0ef          	jal	ra,6838 <ntohs>
    9694:	a008                	sb	a0,0(s0)
    9696:	8121                	srli	a0,a0,0x8
    9698:	b008                	sb	a0,1(s0)
    969a:	4080                	lw	s0,0(s1)
    969c:	303c                	lbu	a5,3(s0)
    969e:	2028                	lbu	a0,2(s0)
    96a0:	07a2                	slli	a5,a5,0x8
    96a2:	8d5d                	or	a0,a0,a5
    96a4:	994fd0ef          	jal	ra,6838 <ntohs>
    96a8:	a028                	sb	a0,2(s0)
    96aa:	8121                	srli	a0,a0,0x8
    96ac:	b028                	sb	a0,3(s0)
    96ae:	4080                	lw	s0,0(s1)
    96b0:	3048                	lbu	a0,5(s0)
    96b2:	205c                	lbu	a5,4(s0)
    96b4:	0522                	slli	a0,a0,0x8
    96b6:	8d5d                	or	a0,a0,a5
    96b8:	207c                	lbu	a5,6(s0)
    96ba:	07c2                	slli	a5,a5,0x10
    96bc:	8fc9                	or	a5,a5,a0
    96be:	3068                	lbu	a0,7(s0)
    96c0:	0562                	slli	a0,a0,0x18
    96c2:	8d5d                	or	a0,a0,a5
    96c4:	9a6fd0ef          	jal	ra,686a <ntohl>
    96c8:	00855793          	srli	a5,a0,0x8
    96cc:	b05c                	sb	a5,5(s0)
    96ce:	01055793          	srli	a5,a0,0x10
    96d2:	a07c                	sb	a5,6(s0)
    96d4:	01855793          	srli	a5,a0,0x18
    96d8:	a048                	sb	a0,4(s0)
    96da:	b07c                	sb	a5,7(s0)
    96dc:	4080                	lw	s0,0(s1)
    96de:	a0a1a623          	sw	a0,-1524(gp) # 2000030c <seqno>
    96e2:	a0c18a93          	addi	s5,gp,-1524 # 2000030c <seqno>
    96e6:	3408                	lbu	a0,9(s0)
    96e8:	241c                	lbu	a5,8(s0)
    96ea:	0522                	slli	a0,a0,0x8
    96ec:	8d5d                	or	a0,a0,a5
    96ee:	243c                	lbu	a5,10(s0)
    96f0:	07c2                	slli	a5,a5,0x10
    96f2:	8fc9                	or	a5,a5,a0
    96f4:	3428                	lbu	a0,11(s0)
    96f6:	0562                	slli	a0,a0,0x18
    96f8:	8d5d                	or	a0,a0,a5
    96fa:	970fd0ef          	jal	ra,686a <ntohl>
    96fe:	00855793          	srli	a5,a0,0x8
    9702:	b41c                	sb	a5,9(s0)
    9704:	01055793          	srli	a5,a0,0x10
    9708:	a43c                	sb	a5,10(s0)
    970a:	01855793          	srli	a5,a0,0x18
    970e:	a408                	sb	a0,8(s0)
    9710:	b43c                	sb	a5,11(s0)
    9712:	4080                	lw	s0,0(s1)
    9714:	9ea1ac23          	sw	a0,-1544(gp) # 200002f8 <ackno>
    9718:	9f818913          	addi	s2,gp,-1544 # 200002f8 <ackno>
    971c:	347c                	lbu	a5,15(s0)
    971e:	2468                	lbu	a0,14(s0)
    9720:	07a2                	slli	a5,a5,0x8
    9722:	8d5d                	or	a0,a0,a5
    9724:	914fd0ef          	jal	ra,6838 <ntohs>
    9728:	409c                	lw	a5,0(s1)
    972a:	a468                	sb	a0,14(s0)
    972c:	8121                	srli	a0,a0,0x8
    972e:	b468                	sb	a0,15(s0)
    9730:	27c8                	lbu	a0,12(a5)
    9732:	37dc                	lbu	a5,13(a5)
    9734:	07a2                	slli	a5,a5,0x8
    9736:	8d5d                	or	a0,a0,a5
    9738:	900fd0ef          	jal	ra,6838 <ntohs>
    973c:	0ff57813          	andi	a6,a0,255
    9740:	008bd883          	lhu	a7,8(s7)
    9744:	00387593          	andi	a1,a6,3
    9748:	00b035b3          	snez	a1,a1
    974c:	95c6                	add	a1,a1,a7
    974e:	9dc1a303          	lw	t1,-1572(gp) # 200002dc <tcp_active_pcbs>
    9752:	05c2                	slli	a1,a1,0x10
    9754:	4094                	lw	a3,0(s1)
    9756:	000b2603          	lw	a2,0(s6)
    975a:	03f87793          	andi	a5,a6,63
    975e:	81c1                	srli	a1,a1,0x10
    9760:	9ef18e23          	sb	a5,-1540(gp) # 200002fc <flags>
    9764:	a0b19c23          	sh	a1,-1512(gp) # 20000318 <tcplen>
    9768:	841a                	mv	s0,t1
    976a:	4501                	li	a0,0
    976c:	9fc18c93          	addi	s9,gp,-1540 # 200002fc <flags>
    9770:	a1818c13          	addi	s8,gp,-1512 # 20000318 <tcplen>
    9774:	e401                	bnez	s0,977c <tcp_input+0x1da>
    9776:	9f41a503          	lw	a0,-1548(gp) # 200002f4 <tcp_tw_pcbs>
    977a:	a2e9                	j	9944 <tcp_input+0x3a2>
    977c:	329c                	lbu	a5,1(a3)
    977e:	0006ce03          	lbu	t3,0(a3)
    9782:	305a                	lhu	a4,36(s0)
    9784:	07a2                	slli	a5,a5,0x8
    9786:	01c7e7b3          	or	a5,a5,t3
    978a:	0ef71263          	bne	a4,a5,986e <tcp_input+0x2cc>
    978e:	32bc                	lbu	a5,3(a3)
    9790:	0026ce03          	lbu	t3,2(a3)
    9794:	2c5a                	lhu	a4,28(s0)
    9796:	07a2                	slli	a5,a5,0x8
    9798:	01c7e7b3          	or	a5,a5,t3
    979c:	0cf71963          	bne	a4,a5,986e <tcp_input+0x2cc>
    97a0:	3658                	lbu	a4,13(a2)
    97a2:	265c                	lbu	a5,12(a2)
    97a4:	0722                	slli	a4,a4,0x8
    97a6:	8f5d                	or	a4,a4,a5
    97a8:	267c                	lbu	a5,14(a2)
    97aa:	07c2                	slli	a5,a5,0x10
    97ac:	8f5d                	or	a4,a4,a5
    97ae:	367c                	lbu	a5,15(a2)
    97b0:	07e2                	slli	a5,a5,0x18
    97b2:	8fd9                	or	a5,a5,a4
    97b4:	4058                	lw	a4,4(s0)
    97b6:	0af71c63          	bne	a4,a5,986e <tcp_input+0x2cc>
    97ba:	3a18                	lbu	a4,17(a2)
    97bc:	2a1c                	lbu	a5,16(a2)
    97be:	0722                	slli	a4,a4,0x8
    97c0:	8f5d                	or	a4,a4,a5
    97c2:	2a3c                	lbu	a5,18(a2)
    97c4:	07c2                	slli	a5,a5,0x10
    97c6:	8f5d                	or	a4,a4,a5
    97c8:	3a3c                	lbu	a5,19(a2)
    97ca:	07e2                	slli	a5,a5,0x18
    97cc:	8fd9                	or	a5,a5,a4
    97ce:	4018                	lw	a4,0(s0)
    97d0:	08f71f63          	bne	a4,a5,986e <tcp_input+0x2cc>
    97d4:	c519                	beqz	a0,97e2 <tcp_input+0x240>
    97d6:	445c                	lw	a5,12(s0)
    97d8:	9c81ae23          	sw	s0,-1572(gp) # 200002dc <tcp_active_pcbs>
    97dc:	c55c                	sw	a5,12(a0)
    97de:	00642623          	sw	t1,12(s0)
    97e2:	004ba703          	lw	a4,4(s7)
    97e6:	2000adb7          	lui	s11,0x2000a
    97ea:	08842603          	lw	a2,136(s0)
    97ee:	3e0d8793          	addi	a5,s11,992 # 2000a3e0 <inseg>
    97f2:	a001a223          	sw	zero,-1532(gp) # 20000304 <recv_data>
    97f6:	a0018423          	sb	zero,-1528(gp) # 20000308 <recv_flags>
    97fa:	0007a023          	sw	zero,0(a5)
    97fe:	01179623          	sh	a7,12(a5)
    9802:	c798                	sw	a4,8(a5)
    9804:	0177a223          	sw	s7,4(a5)
    9808:	cb94                	sw	a3,16(a5)
    980a:	a0818a13          	addi	s4,gp,-1528 # 20000308 <recv_flags>
    980e:	a0418d13          	addi	s10,gp,-1532 # 20000304 <recv_data>
    9812:	3e0d8d93          	addi	s11,s11,992
    9816:	ce09                	beqz	a2,9830 <tcp_input+0x28e>
    9818:	09042783          	lw	a5,144(s0)
    981c:	4681                	li	a3,0
    981e:	85a2                	mv	a1,s0
    9820:	2c078a63          	beqz	a5,9af4 <tcp_input+0x552>
    9824:	4c08                	lw	a0,24(s0)
    9826:	9782                	jalr	a5
    9828:	dc051ae3          	bnez	a0,95fc <tcp_input+0x5a>
    982c:	08042423          	sw	zero,136(s0)
    9830:	000cc783          	lbu	a5,0(s9)
    9834:	a081a823          	sw	s0,-1520(gp) # 20000310 <tcp_input_pcb>
    9838:	0047f713          	andi	a4,a5,4
    983c:	a1018b93          	addi	s7,gp,-1520 # 20000310 <tcp_input_pcb>
    9840:	30070d63          	beqz	a4,9b5a <tcp_input+0x5b8>
    9844:	4818                	lw	a4,16(s0)
    9846:	4789                	li	a5,2
    9848:	2af71a63          	bne	a4,a5,9afc <tcp_input+0x55a>
    984c:	5038                	lw	a4,96(s0)
    984e:	00092783          	lw	a5,0(s2)
    9852:	2af71f63          	bne	a4,a5,9b10 <tcp_input+0x56e>
    9856:	000a4783          	lbu	a5,0(s4)
    985a:	0087e793          	ori	a5,a5,8
    985e:	00fa0023          	sb	a5,0(s4)
    9862:	02644783          	lbu	a5,38(s0)
    9866:	9bf9                	andi	a5,a5,-2
    9868:	02f40323          	sb	a5,38(s0)
    986c:	a455                	j	9b10 <tcp_input+0x56e>
    986e:	8522                	mv	a0,s0
    9870:	4440                	lw	s0,12(s0)
    9872:	b709                	j	9774 <tcp_input+0x1d2>
    9874:	3298                	lbu	a4,1(a3)
    9876:	229c                	lbu	a5,0(a3)
    9878:	0722                	slli	a4,a4,0x8
    987a:	8f5d                	or	a4,a4,a5
    987c:	315e                	lhu	a5,36(a0)
    987e:	0ce79263          	bne	a5,a4,9942 <tcp_input+0x3a0>
    9882:	0036c883          	lbu	a7,3(a3)
    9886:	22b8                	lbu	a4,2(a3)
    9888:	08a2                	slli	a7,a7,0x8
    988a:	00e8e8b3          	or	a7,a7,a4
    988e:	2d5a                	lhu	a4,28(a0)
    9890:	0b171963          	bne	a4,a7,9942 <tcp_input+0x3a0>
    9894:	00d64303          	lbu	t1,13(a2)
    9898:	00c64883          	lbu	a7,12(a2)
    989c:	0322                	slli	t1,t1,0x8
    989e:	01136333          	or	t1,t1,a7
    98a2:	00e64883          	lbu	a7,14(a2)
    98a6:	08c2                	slli	a7,a7,0x10
    98a8:	0068e333          	or	t1,a7,t1
    98ac:	00f64883          	lbu	a7,15(a2)
    98b0:	08e2                	slli	a7,a7,0x18
    98b2:	0068e8b3          	or	a7,a7,t1
    98b6:	00452303          	lw	t1,4(a0) # e0000004 <__freertos_irq_stack_top+0xbfff0004>
    98ba:	09131463          	bne	t1,a7,9942 <tcp_input+0x3a0>
    98be:	01164303          	lbu	t1,17(a2)
    98c2:	01064883          	lbu	a7,16(a2)
    98c6:	0322                	slli	t1,t1,0x8
    98c8:	01136333          	or	t1,t1,a7
    98cc:	01264883          	lbu	a7,18(a2)
    98d0:	08c2                	slli	a7,a7,0x10
    98d2:	0068e333          	or	t1,a7,t1
    98d6:	01364883          	lbu	a7,19(a2)
    98da:	08e2                	slli	a7,a7,0x18
    98dc:	0068e8b3          	or	a7,a7,t1
    98e0:	00052303          	lw	t1,0(a0)
    98e4:	05131f63          	bne	t1,a7,9942 <tcp_input+0x3a0>
    98e8:	00487693          	andi	a3,a6,4
    98ec:	d00698e3          	bnez	a3,95fc <tcp_input+0x5a>
    98f0:	00287693          	andi	a3,a6,2
    98f4:	c68d                	beqz	a3,991e <tcp_input+0x37c>
    98f6:	000aa803          	lw	a6,0(s5)
    98fa:	5514                	lw	a3,40(a0)
    98fc:	40d806b3          	sub	a3,a6,a3
    9900:	0206c663          	bltz	a3,992c <tcp_input+0x38a>
    9904:	02c55883          	lhu	a7,44(a0)
    9908:	411686b3          	sub	a3,a3,a7
    990c:	02d04063          	bgtz	a3,992c <tcp_input+0x38a>
    9910:	00c60693          	addi	a3,a2,12
    9914:	95c2                	add	a1,a1,a6
    9916:	0641                	addi	a2,a2,16
    9918:	00092503          	lw	a0,0(s2)
    991c:	a8f1                	j	99f8 <tcp_input+0x456>
    991e:	00187813          	andi	a6,a6,1
    9922:	00080563          	beqz	a6,992c <tcp_input+0x38a>
    9926:	9e81a783          	lw	a5,-1560(gp) # 200002e8 <tcp_ticks>
    992a:	dd1c                	sw	a5,56(a0)
    992c:	cc0588e3          	beqz	a1,95fc <tcp_input+0x5a>
    9930:	02654783          	lbu	a5,38(a0)
    9934:	0027e793          	ori	a5,a5,2
    9938:	02f50323          	sb	a5,38(a0)
    993c:	40f000ef          	jal	ra,a54a <tcp_output>
    9940:	b975                	j	95fc <tcp_input+0x5a>
    9942:	4548                	lw	a0,12(a0)
    9944:	f905                	bnez	a0,9874 <tcp_input+0x2d2>
    9946:	9e41a303          	lw	t1,-1564(gp) # 200002e4 <tcp_listen_pcbs>
    994a:	8e3e                	mv	t3,a5
    994c:	8a1a                	mv	s4,t1
    994e:	040a1363          	bnez	s4,9994 <tcp_input+0x3f2>
    9952:	36dc                	lbu	a5,13(a3)
    9954:	26c8                	lbu	a0,12(a3)
    9956:	07a2                	slli	a5,a5,0x8
    9958:	8d5d                	or	a0,a0,a5
    995a:	edffc0ef          	jal	ra,6838 <ntohs>
    995e:	8911                	andi	a0,a0,4
    9960:	c8051ee3          	bnez	a0,95fc <tcp_input+0x5a>
    9964:	4094                	lw	a3,0(s1)
    9966:	000b2603          	lw	a2,0(s6)
    996a:	000c5503          	lhu	a0,0(s8)
    996e:	329c                	lbu	a5,1(a3)
    9970:	32b8                	lbu	a4,3(a3)
    9972:	0006c883          	lbu	a7,0(a3)
    9976:	0026c803          	lbu	a6,2(a3)
    997a:	000aa583          	lw	a1,0(s5)
    997e:	07a2                	slli	a5,a5,0x8
    9980:	0722                	slli	a4,a4,0x8
    9982:	00c60693          	addi	a3,a2,12
    9986:	0117e7b3          	or	a5,a5,a7
    998a:	01076733          	or	a4,a4,a6
    998e:	0641                	addi	a2,a2,16
    9990:	95aa                	add	a1,a1,a0
    9992:	b759                	j	9918 <tcp_input+0x376>
    9994:	000a2883          	lw	a7,0(s4)
    9998:	00088e63          	beqz	a7,99b4 <tcp_input+0x412>
    999c:	3a18                	lbu	a4,17(a2)
    999e:	2a1c                	lbu	a5,16(a2)
    99a0:	0722                	slli	a4,a4,0x8
    99a2:	8f5d                	or	a4,a4,a5
    99a4:	2a3c                	lbu	a5,18(a2)
    99a6:	07c2                	slli	a5,a5,0x10
    99a8:	8f5d                	or	a4,a4,a5
    99aa:	3a3c                	lbu	a5,19(a2)
    99ac:	07e2                	slli	a5,a5,0x18
    99ae:	8fd9                	or	a5,a5,a4
    99b0:	12f89e63          	bne	a7,a5,9aec <tcp_input+0x54a>
    99b4:	32b8                	lbu	a4,3(a3)
    99b6:	22bc                	lbu	a5,2(a3)
    99b8:	0722                	slli	a4,a4,0x8
    99ba:	8f5d                	or	a4,a4,a5
    99bc:	01ca5783          	lhu	a5,28(s4)
    99c0:	12e79663          	bne	a5,a4,9aec <tcp_input+0x54a>
    99c4:	c901                	beqz	a0,99d4 <tcp_input+0x432>
    99c6:	00ca2783          	lw	a5,12(s4)
    99ca:	9f41a223          	sw	s4,-1564(gp) # 200002e4 <tcp_listen_pcbs>
    99ce:	c55c                	sw	a5,12(a0)
    99d0:	006a2623          	sw	t1,12(s4)
    99d4:	01087793          	andi	a5,a6,16
    99d8:	c39d                	beqz	a5,99fe <tcp_input+0x45c>
    99da:	329c                	lbu	a5,1(a3)
    99dc:	0006c883          	lbu	a7,0(a3)
    99e0:	000aa803          	lw	a6,0(s5)
    99e4:	00092503          	lw	a0,0(s2)
    99e8:	07a2                	slli	a5,a5,0x8
    99ea:	00c60693          	addi	a3,a2,12
    99ee:	0117e7b3          	or	a5,a5,a7
    99f2:	0641                	addi	a2,a2,16
    99f4:	95c2                	add	a1,a1,a6
    99f6:	0505                	addi	a0,a0,1
    99f8:	6bb000ef          	jal	ra,a8b2 <tcp_rst>
    99fc:	b101                	j	95fc <tcp_input+0x5a>
    99fe:	00287813          	andi	a6,a6,2
    9a02:	be080de3          	beqz	a6,95fc <tcp_input+0x5a>
    9a06:	014a4503          	lbu	a0,20(s4)
    9a0a:	f91fe0ef          	jal	ra,899a <tcp_alloc>
    9a0e:	842a                	mv	s0,a0
    9a10:	be0506e3          	beqz	a0,95fc <tcp_input+0x5a>
    9a14:	000b2783          	lw	a5,0(s6)
    9a18:	4701                	li	a4,0
    9a1a:	01078693          	addi	a3,a5,16
    9a1e:	ca99                	beqz	a3,9a34 <tcp_input+0x492>
    9a20:	3b94                	lbu	a3,17(a5)
    9a22:	2b98                	lbu	a4,16(a5)
    9a24:	06a2                	slli	a3,a3,0x8
    9a26:	8ed9                	or	a3,a3,a4
    9a28:	2bb8                	lbu	a4,18(a5)
    9a2a:	0742                	slli	a4,a4,0x10
    9a2c:	8ed9                	or	a3,a3,a4
    9a2e:	3bb8                	lbu	a4,19(a5)
    9a30:	0762                	slli	a4,a4,0x18
    9a32:	8f55                	or	a4,a4,a3
    9a34:	c018                	sw	a4,0(s0)
    9a36:	01ca5703          	lhu	a4,28(s4)
    9a3a:	00c78693          	addi	a3,a5,12
    9a3e:	ac5a                	sh	a4,28(s0)
    9a40:	4701                	li	a4,0
    9a42:	ca99                	beqz	a3,9a58 <tcp_input+0x4b6>
    9a44:	37d4                	lbu	a3,13(a5)
    9a46:	27d8                	lbu	a4,12(a5)
    9a48:	06a2                	slli	a3,a3,0x8
    9a4a:	8ed9                	or	a3,a3,a4
    9a4c:	27f8                	lbu	a4,14(a5)
    9a4e:	0742                	slli	a4,a4,0x10
    9a50:	8ed9                	or	a3,a3,a4
    9a52:	37f8                	lbu	a4,15(a5)
    9a54:	0762                	slli	a4,a4,0x18
    9a56:	8f55                	or	a4,a4,a3
    9a58:	4094                	lw	a3,0(s1)
    9a5a:	c058                	sw	a4,4(s0)
    9a5c:	04040513          	addi	a0,s0,64
    9a60:	329c                	lbu	a5,1(a3)
    9a62:	2298                	lbu	a4,0(a3)
    9a64:	07a2                	slli	a5,a5,0x8
    9a66:	8fd9                	or	a5,a5,a4
    9a68:	000aa703          	lw	a4,0(s5)
    9a6c:	b05e                	sh	a5,36(s0)
    9a6e:	478d                	li	a5,3
    9a70:	c81c                	sw	a5,16(s0)
    9a72:	00170793          	addi	a5,a4,1
    9a76:	d41c                	sw	a5,40(s0)
    9a78:	d81c                	sw	a5,48(s0)
    9a7a:	36fc                	lbu	a5,15(a3)
    9a7c:	26f0                	lbu	a2,14(a3)
    9a7e:	177d                	addi	a4,a4,-1
    9a80:	07a2                	slli	a5,a5,0x8
    9a82:	8fd1                	or	a5,a5,a2
    9a84:	06f41223          	sh	a5,100(s0)
    9a88:	04f41e23          	sh	a5,92(s0)
    9a8c:	018a2783          	lw	a5,24(s4)
    9a90:	d438                	sw	a4,104(s0)
    9a92:	cc1c                	sw	a5,24(s0)
    9a94:	2000a7b7          	lui	a5,0x2000a
    9a98:	3607d783          	lhu	a5,864(a5) # 2000a360 <WCHCfg+0x4>
    9a9c:	b45e                	sh	a5,44(s0)
    9a9e:	b47e                	sh	a5,46(s0)
    9aa0:	020a2783          	lw	a5,32(s4)
    9aa4:	d01c                	sw	a5,32(s0)
    9aa6:	008a5783          	lhu	a5,8(s4)
    9aaa:	1997f793          	andi	a5,a5,409
    9aae:	a41e                	sh	a5,8(s0)
    9ab0:	9dc1a783          	lw	a5,-1572(gp) # 200002dc <tcp_active_pcbs>
    9ab4:	9c81ae23          	sw	s0,-1572(gp) # 200002dc <tcp_active_pcbs>
    9ab8:	c45c                	sw	a5,12(s0)
    9aba:	a43ff0ef          	jal	ra,94fc <tcp_parseopt.isra.0>
    9abe:	04045503          	lhu	a0,64(s0)
    9ac2:	00440593          	addi	a1,s0,4
    9ac6:	818ff0ef          	jal	ra,8ade <tcp_eff_send_mss>
    9aca:	04a41023          	sh	a0,64(s0)
    9ace:	4785                	li	a5,1
    9ad0:	4701                	li	a4,0
    9ad2:	46c9                	li	a3,18
    9ad4:	4601                	li	a2,0
    9ad6:	4581                	li	a1,0
    9ad8:	8522                	mv	a0,s0
    9ada:	2b8d                	jal	a04c <tcp_enqueue>
    9adc:	c511                	beqz	a0,9ae8 <tcp_input+0x546>
    9ade:	4581                	li	a1,0
    9ae0:	8522                	mv	a0,s0
    9ae2:	e0ffe0ef          	jal	ra,88f0 <tcp_abandon>
    9ae6:	be19                	j	95fc <tcp_input+0x5a>
    9ae8:	8522                	mv	a0,s0
    9aea:	bd89                	j	993c <tcp_input+0x39a>
    9aec:	8552                	mv	a0,s4
    9aee:	00ca2a03          	lw	s4,12(s4)
    9af2:	bdb1                	j	994e <tcp_input+0x3ac>
    9af4:	4501                	li	a0,0
    9af6:	ccbfe0ef          	jal	ra,87c0 <tcp_recv_null>
    9afa:	b33d                	j	9828 <tcp_input+0x286>
    9afc:	000aa783          	lw	a5,0(s5)
    9b00:	5418                	lw	a4,40(s0)
    9b02:	8f99                	sub	a5,a5,a4
    9b04:	0007c663          	bltz	a5,9b10 <tcp_input+0x56e>
    9b08:	345a                	lhu	a4,44(s0)
    9b0a:	8f99                	sub	a5,a5,a4
    9b0c:	d4f055e3          	blez	a5,9856 <tcp_input+0x2b4>
    9b10:	000a4783          	lbu	a5,0(s4)
    9b14:	0087f713          	andi	a4,a5,8
    9b18:	3e070063          	beqz	a4,9ef8 <tcp_input+0x956>
    9b1c:	00f10593          	addi	a1,sp,15
    9b20:	8522                	mv	a0,s0
    9b22:	995fb0ef          	jal	ra,54b6 <WCHFindCorrectTCBPcb>
    9b26:	4785                	li	a5,1
    9b28:	00f51663          	bne	a0,a5,9b34 <tcp_input+0x592>
    9b2c:	4818                	lw	a4,16(s0)
    9b2e:	4789                	li	a5,2
    9b30:	1cf70163          	beq	a4,a5,9cf2 <tcp_input+0x750>
    9b34:	8522                	mv	a0,s0
    9b36:	848fc0ef          	jal	ra,5b7e <LwipRemoveTcpPcb>
    9b3a:	09c42783          	lw	a5,156(s0)
    9b3e:	c781                	beqz	a5,9b46 <tcp_input+0x5a4>
    9b40:	4c08                	lw	a0,24(s0)
    9b42:	55e9                	li	a1,-6
    9b44:	9782                	jalr	a5
    9b46:	85a2                	mv	a1,s0
    9b48:	9dc18513          	addi	a0,gp,-1572 # 200002dc <tcp_active_pcbs>
    9b4c:	b51fe0ef          	jal	ra,869c <tcp_pcb_remove>
    9b50:	85a2                	mv	a1,s0
    9b52:	4509                	li	a0,2
    9b54:	ee1fd0ef          	jal	ra,7a34 <memp_free>
    9b58:	aa69                	j	9cf2 <tcp_input+0x750>
    9b5a:	8b89                	andi	a5,a5,2
    9b5c:	c385                	beqz	a5,9b7c <tcp_input+0x5da>
    9b5e:	481c                	lw	a5,16(s0)
    9b60:	4705                	li	a4,1
    9b62:	17f9                	addi	a5,a5,-2
    9b64:	00f77c63          	bgeu	a4,a5,9b7c <tcp_input+0x5da>
    9b68:	02644783          	lbu	a5,38(s0)
    9b6c:	8522                	mv	a0,s0
    9b6e:	0027e793          	ori	a5,a5,2
    9b72:	02f40323          	sb	a5,38(s0)
    9b76:	1d5000ef          	jal	ra,a54a <tcp_output>
    9b7a:	bf59                	j	9b10 <tcp_input+0x56e>
    9b7c:	9e81a783          	lw	a5,-1560(gp) # 200002e8 <tcp_ticks>
    9b80:	0a0408a3          	sb	zero,177(s0)
    9b84:	04040513          	addi	a0,s0,64
    9b88:	dc1c                	sw	a5,56(s0)
    9b8a:	973ff0ef          	jal	ra,94fc <tcp_parseopt.isra.0>
    9b8e:	481c                	lw	a5,16(s0)
    9b90:	471d                	li	a4,7
    9b92:	17f9                	addi	a5,a5,-2
    9b94:	f6f76ee3          	bltu	a4,a5,9b10 <tcp_input+0x56e>
    9b98:	6735                	lui	a4,0xd
    9b9a:	078a                	slli	a5,a5,0x2
    9b9c:	c6470713          	addi	a4,a4,-924 # cc64 <tcp_backoff+0x10>
    9ba0:	97ba                	add	a5,a5,a4
    9ba2:	439c                	lw	a5,0(a5)
    9ba4:	8782                	jr	a5
    9ba6:	000cc783          	lbu	a5,0(s9)
    9baa:	4749                	li	a4,18
    9bac:	8bc9                	andi	a5,a5,18
    9bae:	0ce79263          	bne	a5,a4,9c72 <tcp_input+0x6d0>
    9bb2:	08042783          	lw	a5,128(s0)
    9bb6:	4b98                	lw	a4,16(a5)
    9bb8:	3348                	lbu	a0,5(a4)
    9bba:	235c                	lbu	a5,4(a4)
    9bbc:	0522                	slli	a0,a0,0x8
    9bbe:	8d5d                	or	a0,a0,a5
    9bc0:	237c                	lbu	a5,6(a4)
    9bc2:	07c2                	slli	a5,a5,0x10
    9bc4:	8fc9                	or	a5,a5,a0
    9bc6:	3368                	lbu	a0,7(a4)
    9bc8:	0562                	slli	a0,a0,0x18
    9bca:	8d5d                	or	a0,a0,a5
    9bcc:	c9ffc0ef          	jal	ra,686a <ntohl>
    9bd0:	00092783          	lw	a5,0(s2)
    9bd4:	0505                	addi	a0,a0,1
    9bd6:	08f51e63          	bne	a0,a5,9c72 <tcp_input+0x6d0>
    9bda:	07645783          	lhu	a5,118(s0)
    9bde:	000aa703          	lw	a4,0(s5)
    9be2:	4094                	lw	a3,0(s1)
    9be4:	0785                	addi	a5,a5,1
    9be6:	06f41b23          	sh	a5,118(s0)
    9bea:	00170793          	addi	a5,a4,1
    9bee:	c868                	sw	a0,84(s0)
    9bf0:	d41c                	sw	a5,40(s0)
    9bf2:	d81c                	sw	a5,48(s0)
    9bf4:	36fc                	lbu	a5,15(a3)
    9bf6:	26f0                	lbu	a2,14(a3)
    9bf8:	04045503          	lhu	a0,64(s0)
    9bfc:	07a2                	slli	a5,a5,0x8
    9bfe:	8fd1                	or	a5,a5,a2
    9c00:	177d                	addi	a4,a4,-1
    9c02:	06f41223          	sh	a5,100(s0)
    9c06:	4791                	li	a5,4
    9c08:	d438                	sw	a4,104(s0)
    9c0a:	c81c                	sw	a5,16(s0)
    9c0c:	00440593          	addi	a1,s0,4
    9c10:	ecffe0ef          	jal	ra,8ade <tcp_eff_send_mss>
    9c14:	47a9                	li	a5,10
    9c16:	02f507b3          	mul	a5,a0,a5
    9c1a:	05a45703          	lhu	a4,90(s0)
    9c1e:	04a41023          	sh	a0,64(s0)
    9c22:	04f41e23          	sh	a5,92(s0)
    9c26:	4785                	li	a5,1
    9c28:	00f71563          	bne	a4,a5,9c32 <tcp_input+0x690>
    9c2c:	0506                	slli	a0,a0,0x1
    9c2e:	0542                	slli	a0,a0,0x10
    9c30:	8141                	srli	a0,a0,0x10
    9c32:	07845783          	lhu	a5,120(s0)
    9c36:	04a41d23          	sh	a0,90(s0)
    9c3a:	08042503          	lw	a0,128(s0)
    9c3e:	17fd                	addi	a5,a5,-1
    9c40:	06f41c23          	sh	a5,120(s0)
    9c44:	411c                	lw	a5,0(a0)
    9c46:	04040923          	sb	zero,82(s0)
    9c4a:	04042223          	sw	zero,68(s0)
    9c4e:	08f42023          	sw	a5,128(s0)
    9c52:	0017b793          	seqz	a5,a5
    9c56:	40f007b3          	neg	a5,a5
    9c5a:	bc7e                	sh	a5,62(s0)
    9c5c:	ea4fe0ef          	jal	ra,8300 <tcp_seg_free>
    9c60:	09442783          	lw	a5,148(s0)
    9c64:	f00782e3          	beqz	a5,9b68 <tcp_input+0x5c6>
    9c68:	4c08                	lw	a0,24(s0)
    9c6a:	4601                	li	a2,0
    9c6c:	85a2                	mv	a1,s0
    9c6e:	9782                	jalr	a5
    9c70:	bde5                	j	9b68 <tcp_input+0x5c6>
    9c72:	000cc783          	lbu	a5,0(s9)
    9c76:	8bc1                	andi	a5,a5,16
    9c78:	e8078ce3          	beqz	a5,9b10 <tcp_input+0x56e>
    9c7c:	4094                	lw	a3,0(s1)
    9c7e:	000c5503          	lhu	a0,0(s8)
    9c82:	000aa583          	lw	a1,0(s5)
    9c86:	329c                	lbu	a5,1(a3)
    9c88:	32b8                	lbu	a4,3(a3)
    9c8a:	000b2603          	lw	a2,0(s6)
    9c8e:	0006c883          	lbu	a7,0(a3)
    9c92:	0026c803          	lbu	a6,2(a3)
    9c96:	95aa                	add	a1,a1,a0
    9c98:	00092503          	lw	a0,0(s2)
    9c9c:	07a2                	slli	a5,a5,0x8
    9c9e:	0722                	slli	a4,a4,0x8
    9ca0:	00c60693          	addi	a3,a2,12
    9ca4:	0117e7b3          	or	a5,a5,a7
    9ca8:	01076733          	or	a4,a4,a6
    9cac:	0641                	addi	a2,a2,16
    9cae:	405000ef          	jal	ra,a8b2 <tcp_rst>
    9cb2:	bdb9                	j	9b10 <tcp_input+0x56e>
    9cb4:	000cc783          	lbu	a5,0(s9)
    9cb8:	0107f713          	andi	a4,a5,16
    9cbc:	c769                	beqz	a4,9d86 <tcp_input+0x7e4>
    9cbe:	00092503          	lw	a0,0(s2)
    9cc2:	4878                	lw	a4,84(s0)
    9cc4:	fff50793          	addi	a5,a0,-1
    9cc8:	8f99                	sub	a5,a5,a4
    9cca:	0807c663          	bltz	a5,9d56 <tcp_input+0x7b4>
    9cce:	503c                	lw	a5,96(s0)
    9cd0:	40f507b3          	sub	a5,a0,a5
    9cd4:	08f04163          	bgtz	a5,9d56 <tcp_input+0x7b4>
    9cd8:	4791                	li	a5,4
    9cda:	c81c                	sw	a5,16(s0)
    9cdc:	501c                	lw	a5,32(s0)
    9cde:	c78d                	beqz	a5,9d08 <tcp_input+0x766>
    9ce0:	4c08                	lw	a0,24(s0)
    9ce2:	4601                	li	a2,0
    9ce4:	85a2                	mv	a1,s0
    9ce6:	9782                	jalr	a5
    9ce8:	c105                	beqz	a0,9d08 <tcp_input+0x766>
    9cea:	4585                	li	a1,1
    9cec:	8522                	mv	a0,s0
    9cee:	c03fe0ef          	jal	ra,88f0 <tcp_abandon>
    9cf2:	004da503          	lw	a0,4(s11)
    9cf6:	000ba023          	sw	zero,0(s7)
    9cfa:	900504e3          	beqz	a0,9602 <tcp_input+0x60>
    9cfe:	f09fd0ef          	jal	ra,7c06 <pbuf_free>
    9d02:	000da223          	sw	zero,4(s11)
    9d06:	b8f5                	j	9602 <tcp_input+0x60>
    9d08:	8522                	mv	a0,s0
    9d0a:	05a45483          	lhu	s1,90(s0)
    9d0e:	efffe0ef          	jal	ra,8c0c <tcp_receive>
    9d12:	07445783          	lhu	a5,116(s0)
    9d16:	c781                	beqz	a5,9d1e <tcp_input+0x77c>
    9d18:	17fd                	addi	a5,a5,-1
    9d1a:	06f41a23          	sh	a5,116(s0)
    9d1e:	4705                	li	a4,1
    9d20:	04045783          	lhu	a5,64(s0)
    9d24:	00e49563          	bne	s1,a4,9d2e <tcp_input+0x78c>
    9d28:	0786                	slli	a5,a5,0x1
    9d2a:	07c2                	slli	a5,a5,0x10
    9d2c:	83c1                	srli	a5,a5,0x10
    9d2e:	04f41d23          	sh	a5,90(s0)
    9d32:	000a4783          	lbu	a5,0(s4)
    9d36:	0207f793          	andi	a5,a5,32
    9d3a:	dc078be3          	beqz	a5,9b10 <tcp_input+0x56e>
    9d3e:	02644783          	lbu	a5,38(s0)
    9d42:	8522                	mv	a0,s0
    9d44:	0027e793          	ori	a5,a5,2
    9d48:	02f40323          	sb	a5,38(s0)
    9d4c:	7fe000ef          	jal	ra,a54a <tcp_output>
    9d50:	479d                	li	a5,7
    9d52:	c81c                	sw	a5,16(s0)
    9d54:	bb75                	j	9b10 <tcp_input+0x56e>
    9d56:	4094                	lw	a3,0(s1)
    9d58:	000b2603          	lw	a2,0(s6)
    9d5c:	000c5803          	lhu	a6,0(s8)
    9d60:	329c                	lbu	a5,1(a3)
    9d62:	32b8                	lbu	a4,3(a3)
    9d64:	0006c303          	lbu	t1,0(a3)
    9d68:	0026c883          	lbu	a7,2(a3)
    9d6c:	000aa583          	lw	a1,0(s5)
    9d70:	07a2                	slli	a5,a5,0x8
    9d72:	0722                	slli	a4,a4,0x8
    9d74:	00c60693          	addi	a3,a2,12
    9d78:	0067e7b3          	or	a5,a5,t1
    9d7c:	01176733          	or	a4,a4,a7
    9d80:	0641                	addi	a2,a2,16
    9d82:	95c2                	add	a1,a1,a6
    9d84:	b72d                	j	9cae <tcp_input+0x70c>
    9d86:	8b89                	andi	a5,a5,2
    9d88:	d80784e3          	beqz	a5,9b10 <tcp_input+0x56e>
    9d8c:	541c                	lw	a5,40(s0)
    9d8e:	000aa703          	lw	a4,0(s5)
    9d92:	17fd                	addi	a5,a5,-1
    9d94:	d6e79ee3          	bne	a5,a4,9b10 <tcp_input+0x56e>
    9d98:	8522                	mv	a0,s0
    9d9a:	457000ef          	jal	ra,a9f0 <tcp_rexmit>
    9d9e:	bb8d                	j	9b10 <tcp_input+0x56e>
    9da0:	8522                	mv	a0,s0
    9da2:	e6bfe0ef          	jal	ra,8c0c <tcp_receive>
    9da6:	b771                	j	9d32 <tcp_input+0x790>
    9da8:	8522                	mv	a0,s0
    9daa:	e63fe0ef          	jal	ra,8c0c <tcp_receive>
    9dae:	000a4783          	lbu	a5,0(s4)
    9db2:	0207f793          	andi	a5,a5,32
    9db6:	c3c1                	beqz	a5,9e36 <tcp_input+0x894>
    9db8:	000cc703          	lbu	a4,0(s9)
    9dbc:	02644783          	lbu	a5,38(s0)
    9dc0:	8b41                	andi	a4,a4,16
    9dc2:	0027e793          	ori	a5,a5,2
    9dc6:	c32d                	beqz	a4,9e28 <tcp_input+0x886>
    9dc8:	5034                	lw	a3,96(s0)
    9dca:	00092703          	lw	a4,0(s2)
    9dce:	04e69d63          	bne	a3,a4,9e28 <tcp_input+0x886>
    9dd2:	02f40323          	sb	a5,38(s0)
    9dd6:	8522                	mv	a0,s0
    9dd8:	772000ef          	jal	ra,a54a <tcp_output>
    9ddc:	8522                	mv	a0,s0
    9dde:	db6fe0ef          	jal	ra,8394 <tcp_pcb_purge>
    9de2:	9dc1a783          	lw	a5,-1572(gp) # 200002dc <tcp_active_pcbs>
    9de6:	00f41d63          	bne	s0,a5,9e00 <tcp_input+0x85e>
    9dea:	445c                	lw	a5,12(s0)
    9dec:	9cf1ae23          	sw	a5,-1572(gp) # 200002dc <tcp_active_pcbs>
    9df0:	47a9                	li	a5,10
    9df2:	c81c                	sw	a5,16(s0)
    9df4:	9f41a703          	lw	a4,-1548(gp) # 200002f4 <tcp_tw_pcbs>
    9df8:	9e81aa23          	sw	s0,-1548(gp) # 200002f4 <tcp_tw_pcbs>
    9dfc:	c458                	sw	a4,12(s0)
    9dfe:	bb09                	j	9b10 <tcp_input+0x56e>
    9e00:	9ef1a823          	sw	a5,-1552(gp) # 200002f0 <tcp_tmp_pcb>
    9e04:	4681                	li	a3,0
    9e06:	e789                	bnez	a5,9e10 <tcp_input+0x86e>
    9e08:	d6e5                	beqz	a3,9df0 <tcp_input+0x84e>
    9e0a:	9e01a823          	sw	zero,-1552(gp) # 200002f0 <tcp_tmp_pcb>
    9e0e:	b7cd                	j	9df0 <tcp_input+0x84e>
    9e10:	47d0                	lw	a2,12(a5)
    9e12:	00c41863          	bne	s0,a2,9e22 <tcp_input+0x880>
    9e16:	c299                	beqz	a3,9e1c <tcp_input+0x87a>
    9e18:	9ef1a823          	sw	a5,-1552(gp) # 200002f0 <tcp_tmp_pcb>
    9e1c:	4458                	lw	a4,12(s0)
    9e1e:	c7d8                	sw	a4,12(a5)
    9e20:	bfc1                	j	9df0 <tcp_input+0x84e>
    9e22:	4685                	li	a3,1
    9e24:	87b2                	mv	a5,a2
    9e26:	b7c5                	j	9e06 <tcp_input+0x864>
    9e28:	02f40323          	sb	a5,38(s0)
    9e2c:	8522                	mv	a0,s0
    9e2e:	71c000ef          	jal	ra,a54a <tcp_output>
    9e32:	47a1                	li	a5,8
    9e34:	bf39                	j	9d52 <tcp_input+0x7b0>
    9e36:	000cc783          	lbu	a5,0(s9)
    9e3a:	8bc1                	andi	a5,a5,16
    9e3c:	cc078ae3          	beqz	a5,9b10 <tcp_input+0x56e>
    9e40:	5038                	lw	a4,96(s0)
    9e42:	00092783          	lw	a5,0(s2)
    9e46:	ccf715e3          	bne	a4,a5,9b10 <tcp_input+0x56e>
    9e4a:	4799                	li	a5,6
    9e4c:	b719                	j	9d52 <tcp_input+0x7b0>
    9e4e:	8522                	mv	a0,s0
    9e50:	dbdfe0ef          	jal	ra,8c0c <tcp_receive>
    9e54:	000a4783          	lbu	a5,0(s4)
    9e58:	0207f793          	andi	a5,a5,32
    9e5c:	ca078ae3          	beqz	a5,9b10 <tcp_input+0x56e>
    9e60:	02644783          	lbu	a5,38(s0)
    9e64:	8522                	mv	a0,s0
    9e66:	0027e793          	ori	a5,a5,2
    9e6a:	02f40323          	sb	a5,38(s0)
    9e6e:	6dc000ef          	jal	ra,a54a <tcp_output>
    9e72:	8522                	mv	a0,s0
    9e74:	d20fe0ef          	jal	ra,8394 <tcp_pcb_purge>
    9e78:	9dc1a783          	lw	a5,-1572(gp) # 200002dc <tcp_active_pcbs>
    9e7c:	f6f407e3          	beq	s0,a5,9dea <tcp_input+0x848>
    9e80:	9ef1a823          	sw	a5,-1552(gp) # 200002f0 <tcp_tmp_pcb>
    9e84:	4681                	li	a3,0
    9e86:	d3c9                	beqz	a5,9e08 <tcp_input+0x866>
    9e88:	47d0                	lw	a2,12(a5)
    9e8a:	f8c406e3          	beq	s0,a2,9e16 <tcp_input+0x874>
    9e8e:	4685                	li	a3,1
    9e90:	87b2                	mv	a5,a2
    9e92:	bfd5                	j	9e86 <tcp_input+0x8e4>
    9e94:	8522                	mv	a0,s0
    9e96:	d77fe0ef          	jal	ra,8c0c <tcp_receive>
    9e9a:	000cc783          	lbu	a5,0(s9)
    9e9e:	8bc1                	andi	a5,a5,16
    9ea0:	c60788e3          	beqz	a5,9b10 <tcp_input+0x56e>
    9ea4:	5038                	lw	a4,96(s0)
    9ea6:	00092783          	lw	a5,0(s2)
    9eaa:	c6f713e3          	bne	a4,a5,9b10 <tcp_input+0x56e>
    9eae:	8522                	mv	a0,s0
    9eb0:	ce4fe0ef          	jal	ra,8394 <tcp_pcb_purge>
    9eb4:	9dc1a783          	lw	a5,-1572(gp) # 200002dc <tcp_active_pcbs>
    9eb8:	f2f409e3          	beq	s0,a5,9dea <tcp_input+0x848>
    9ebc:	9ef1a823          	sw	a5,-1552(gp) # 200002f0 <tcp_tmp_pcb>
    9ec0:	4681                	li	a3,0
    9ec2:	d3b9                	beqz	a5,9e08 <tcp_input+0x866>
    9ec4:	47d0                	lw	a2,12(a5)
    9ec6:	f4c408e3          	beq	s0,a2,9e16 <tcp_input+0x874>
    9eca:	4685                	li	a3,1
    9ecc:	87b2                	mv	a5,a2
    9ece:	bfd5                	j	9ec2 <tcp_input+0x920>
    9ed0:	8522                	mv	a0,s0
    9ed2:	d3bfe0ef          	jal	ra,8c0c <tcp_receive>
    9ed6:	000cc783          	lbu	a5,0(s9)
    9eda:	8bc1                	andi	a5,a5,16
    9edc:	c2078ae3          	beqz	a5,9b10 <tcp_input+0x56e>
    9ee0:	5038                	lw	a4,96(s0)
    9ee2:	00092783          	lw	a5,0(s2)
    9ee6:	c2f715e3          	bne	a4,a5,9b10 <tcp_input+0x56e>
    9eea:	000a4783          	lbu	a5,0(s4)
    9eee:	0107e793          	ori	a5,a5,16
    9ef2:	00fa0023          	sb	a5,0(s4)
    9ef6:	b929                	j	9b10 <tcp_input+0x56e>
    9ef8:	8bc1                	andi	a5,a5,16
    9efa:	c789                	beqz	a5,9f04 <tcp_input+0x962>
    9efc:	8522                	mv	a0,s0
    9efe:	c81fb0ef          	jal	ra,5b7e <LwipRemoveTcpPcb>
    9f02:	b191                	j	9b46 <tcp_input+0x5a4>
    9f04:	07445603          	lhu	a2,116(s0)
    9f08:	c619                	beqz	a2,9f16 <tcp_input+0x974>
    9f0a:	08c42783          	lw	a5,140(s0)
    9f0e:	c781                	beqz	a5,9f16 <tcp_input+0x974>
    9f10:	4c08                	lw	a0,24(s0)
    9f12:	85a2                	mv	a1,s0
    9f14:	9782                	jalr	a5
    9f16:	000d2603          	lw	a2,0(s10)
    9f1a:	c60d                	beqz	a2,9f44 <tcp_input+0x9a2>
    9f1c:	000cc783          	lbu	a5,0(s9)
    9f20:	8ba1                	andi	a5,a5,8
    9f22:	c789                	beqz	a5,9f2c <tcp_input+0x98a>
    9f24:	365c                	lbu	a5,13(a2)
    9f26:	0017e793          	ori	a5,a5,1
    9f2a:	b65c                	sb	a5,13(a2)
    9f2c:	09042783          	lw	a5,144(s0)
    9f30:	4681                	li	a3,0
    9f32:	85a2                	mv	a1,s0
    9f34:	cb95                	beqz	a5,9f68 <tcp_input+0x9c6>
    9f36:	4c08                	lw	a0,24(s0)
    9f38:	9782                	jalr	a5
    9f3a:	c509                	beqz	a0,9f44 <tcp_input+0x9a2>
    9f3c:	000d2783          	lw	a5,0(s10)
    9f40:	08f42423          	sw	a5,136(s0)
    9f44:	000a4783          	lbu	a5,0(s4)
    9f48:	0207f793          	andi	a5,a5,32
    9f4c:	cb89                	beqz	a5,9f5e <tcp_input+0x9bc>
    9f4e:	09042783          	lw	a5,144(s0)
    9f52:	4681                	li	a3,0
    9f54:	4601                	li	a2,0
    9f56:	85a2                	mv	a1,s0
    9f58:	cf81                	beqz	a5,9f70 <tcp_input+0x9ce>
    9f5a:	4c08                	lw	a0,24(s0)
    9f5c:	9782                	jalr	a5
    9f5e:	8522                	mv	a0,s0
    9f60:	000ba023          	sw	zero,0(s7)
    9f64:	23dd                	jal	a54a <tcp_output>
    9f66:	b371                	j	9cf2 <tcp_input+0x750>
    9f68:	4501                	li	a0,0
    9f6a:	857fe0ef          	jal	ra,87c0 <tcp_recv_null>
    9f6e:	b7f1                	j	9f3a <tcp_input+0x998>
    9f70:	4501                	li	a0,0
    9f72:	84ffe0ef          	jal	ra,87c0 <tcp_recv_null>
    9f76:	b7e5                	j	9f5e <tcp_input+0x9bc>

00009f78 <tcp_output_set_header.isra.0.constprop.1>:
    9f78:	d9ef62ef          	jal	t0,516 <__riscv_save_0>
    9f7c:	892a                	mv	s2,a0
    9f7e:	2d4a                	lhu	a0,28(a0)
    9f80:	1141                	addi	sp,sp,-16
    9f82:	842e                	mv	s0,a1
    9f84:	c632                	sw	a2,12(sp)
    9f86:	8a5fc0ef          	jal	ra,682a <htons>
    9f8a:	a008                	sb	a0,0(s0)
    9f8c:	8121                	srli	a0,a0,0x8
    9f8e:	b008                	sb	a0,1(s0)
    9f90:	02495503          	lhu	a0,36(s2)
    9f94:	897fc0ef          	jal	ra,682a <htons>
    9f98:	4632                	lw	a2,12(sp)
    9f9a:	a028                	sb	a0,2(s0)
    9f9c:	8121                	srli	a0,a0,0x8
    9f9e:	b028                	sb	a0,3(s0)
    9fa0:	00865793          	srli	a5,a2,0x8
    9fa4:	02892503          	lw	a0,40(s2)
    9fa8:	a050                	sb	a2,4(s0)
    9faa:	b05c                	sb	a5,5(s0)
    9fac:	01065793          	srli	a5,a2,0x10
    9fb0:	8261                	srli	a2,a2,0x18
    9fb2:	b070                	sb	a2,7(s0)
    9fb4:	a07c                	sb	a5,6(s0)
    9fb6:	891fc0ef          	jal	ra,6846 <htonl>
    9fba:	00855793          	srli	a5,a0,0x8
    9fbe:	a408                	sb	a0,8(s0)
    9fc0:	b41c                	sb	a5,9(s0)
    9fc2:	3444                	lbu	s1,13(s0)
    9fc4:	01055793          	srli	a5,a0,0x10
    9fc8:	8161                	srli	a0,a0,0x18
    9fca:	b428                	sb	a0,11(s0)
    9fcc:	2448                	lbu	a0,12(s0)
    9fce:	04a2                	slli	s1,s1,0x8
    9fd0:	a43c                	sb	a5,10(s0)
    9fd2:	8cc9                	or	s1,s1,a0
    9fd4:	6541                	lui	a0,0x10
    9fd6:	fc050513          	addi	a0,a0,-64 # ffc0 <_data_lma+0x32a0>
    9fda:	851fc0ef          	jal	ra,682a <htons>
    9fde:	8ce9                	and	s1,s1,a0
    9fe0:	4541                	li	a0,16
    9fe2:	849fc0ef          	jal	ra,682a <htons>
    9fe6:	8d45                	or	a0,a0,s1
    9fe8:	0542                	slli	a0,a0,0x10
    9fea:	8141                	srli	a0,a0,0x10
    9fec:	a448                	sb	a0,12(s0)
    9fee:	8121                	srli	a0,a0,0x8
    9ff0:	b448                	sb	a0,13(s0)
    9ff2:	02e95503          	lhu	a0,46(s2)
    9ff6:	835fc0ef          	jal	ra,682a <htons>
    9ffa:	02e95783          	lhu	a5,46(s2)
    9ffe:	a468                	sb	a0,14(s0)
    a000:	8121                	srli	a0,a0,0x8
    a002:	b468                	sb	a0,15(s0)
    a004:	02f91b23          	sh	a5,54(s2)
    a008:	345c                	lbu	a5,13(s0)
    a00a:	2448                	lbu	a0,12(s0)
    a00c:	00040923          	sb	zero,18(s0)
    a010:	07a2                	slli	a5,a5,0x8
    a012:	000409a3          	sb	zero,19(s0)
    a016:	8d5d                	or	a0,a0,a5
    a018:	821fc0ef          	jal	ra,6838 <ntohs>
    a01c:	6795                	lui	a5,0x5
    a01e:	03f57513          	andi	a0,a0,63
    a022:	8d5d                	or	a0,a0,a5
    a024:	807fc0ef          	jal	ra,682a <htons>
    a028:	02e95703          	lhu	a4,46(s2)
    a02c:	02892783          	lw	a5,40(s2)
    a030:	a448                	sb	a0,12(s0)
    a032:	8121                	srli	a0,a0,0x8
    a034:	b448                	sb	a0,13(s0)
    a036:	00040823          	sb	zero,16(s0)
    a03a:	000408a3          	sb	zero,17(s0)
    a03e:	97ba                	add	a5,a5,a4
    a040:	02f92823          	sw	a5,48(s2)
    a044:	8522                	mv	a0,s0
    a046:	0141                	addi	sp,sp,16
    a048:	cf2f606f          	j	53a <__riscv_restore_0>

0000a04c <tcp_enqueue>:
    a04c:	c9af62ef          	jal	t0,4e6 <__riscv_save_12>
    a050:	7179                	addi	sp,sp,-48
    a052:	c62e                	sw	a1,12(sp)
    a054:	ca3a                	sw	a4,20(sp)
    a056:	892a                	mv	s2,a0
    a058:	8ab2                	mv	s5,a2
    a05a:	8b36                	mv	s6,a3
    a05c:	8dbe                	mv	s11,a5
    a05e:	ee01                	bnez	a2,a076 <tcp_enqueue+0x2a>
    a060:	0036f793          	andi	a5,a3,3
    a064:	00fde7b3          	or	a5,s11,a5
    a068:	5a59                	li	s4,-10
    a06a:	c391                	beqz	a5,a06e <tcp_enqueue+0x22>
    a06c:	c18d                	beqz	a1,a08e <tcp_enqueue+0x42>
    a06e:	8552                	mv	a0,s4
    a070:	6145                	addi	sp,sp,48
    a072:	cb0f606f          	j	522 <__riscv_restore_12>
    a076:	07655783          	lhu	a5,118(a0)
    a07a:	00c7fa63          	bgeu	a5,a2,a08e <tcp_enqueue+0x42>
    a07e:	02694783          	lbu	a5,38(s2)
    a082:	5a7d                	li	s4,-1
    a084:	f807e793          	ori	a5,a5,-128
    a088:	02f90323          	sb	a5,38(s2)
    a08c:	b7cd                	j	a06e <tcp_enqueue+0x22>
    a08e:	002d9793          	slli	a5,s11,0x2
    a092:	002df713          	andi	a4,s11,2
    a096:	8b91                	andi	a5,a5,4
    a098:	46b1                	li	a3,12
    a09a:	e311                	bnez	a4,a09e <tcp_enqueue+0x52>
    a09c:	4681                	li	a3,0
    a09e:	97b6                	add	a5,a5,a3
    a0a0:	c23e                	sw	a5,4(sp)
    a0a2:	07092783          	lw	a5,112(s2)
    a0a6:	2000ad37          	lui	s10,0x2000a
    a0aa:	35cd0713          	addi	a4,s10,860 # 2000a35c <WCHCfg>
    a0ae:	c43e                	sw	a5,8(sp)
    a0b0:	471c                	lw	a5,8(a4)
    a0b2:	4358                	lw	a4,4(a4)
    a0b4:	07895483          	lhu	s1,120(s2)
    a0b8:	078a                	slli	a5,a5,0x2
    a0ba:	02e7d7b3          	divu	a5,a5,a4
    a0be:	35cd0d13          	addi	s10,s10,860
    a0c2:	faf4fee3          	bgeu	s1,a5,a07e <tcp_enqueue+0x32>
    a0c6:	6741                	lui	a4,0x10
    a0c8:	ffc70693          	addi	a3,a4,-4 # fffc <_data_lma+0x32dc>
    a0cc:	fa96e9e3          	bltu	a3,s1,a07e <tcp_enqueue+0x32>
    a0d0:	4792                	lw	a5,4(sp)
    a0d2:	8230                	lhu	a2,4(sp)
    a0d4:	fc070713          	addi	a4,a4,-64
    a0d8:	8389                	srli	a5,a5,0x2
    a0da:	0ff7f793          	andi	a5,a5,255
    a0de:	0795                	addi	a5,a5,5
    a0e0:	c832                	sw	a2,16(sp)
    a0e2:	4652                	lw	a2,20(sp)
    a0e4:	07b2                	slli	a5,a5,0xc
    a0e6:	07c2                	slli	a5,a5,0x10
    a0e8:	d23a                	sw	a4,36(sp)
    a0ea:	4cb2                	lw	s9,12(sp)
    a0ec:	010b1713          	slli	a4,s6,0x10
    a0f0:	83c1                	srli	a5,a5,0x10
    a0f2:	8a05                	andi	a2,a2,1
    a0f4:	8341                	srli	a4,a4,0x10
    a0f6:	cc3e                	sw	a5,24(sp)
    a0f8:	8bd6                	mv	s7,s5
    a0fa:	4981                	li	s3,0
    a0fc:	4781                	li	a5,0
    a0fe:	ce32                	sw	a2,28(sp)
    a100:	d036                	sw	a3,32(sp)
    a102:	d43a                	sw	a4,40(sp)
    a104:	04095a03          	lhu	s4,64(s2)
    a108:	4712                	lw	a4,4(sp)
    a10a:	40ea0a33          	sub	s4,s4,a4
    a10e:	014bd363          	bge	s7,s4,a114 <tcp_enqueue+0xc8>
    a112:	8a5e                	mv	s4,s7
    a114:	4511                	li	a0,4
    a116:	d63e                	sw	a5,44(sp)
    a118:	010a1c13          	slli	s8,s4,0x10
    a11c:	8f9fd0ef          	jal	ra,7a14 <memp_malloc>
    a120:	010c5c13          	srli	s8,s8,0x10
    a124:	842a                	mv	s0,a0
    a126:	18050663          	beqz	a0,a2b2 <tcp_enqueue+0x266>
    a12a:	00052023          	sw	zero,0(a0)
    a12e:	00052223          	sw	zero,4(a0)
    a132:	14098463          	beqz	s3,a27a <tcp_enqueue+0x22e>
    a136:	57b2                	lw	a5,44(sp)
    a138:	c388                	sw	a0,0(a5)
    a13a:	47f2                	lw	a5,28(sp)
    a13c:	14078163          	beqz	a5,a27e <tcp_enqueue+0x232>
    a140:	47c2                	lw	a5,16(sp)
    a142:	4601                	li	a2,0
    a144:	4501                	li	a0,0
    a146:	00fc05b3          	add	a1,s8,a5
    a14a:	05c2                	slli	a1,a1,0x10
    a14c:	81c1                	srli	a1,a1,0x10
    a14e:	b07fd0ef          	jal	ra,7c54 <pbuf_alloc>
    a152:	c048                	sw	a0,4(s0)
    a154:	14050f63          	beqz	a0,a2b2 <tcp_enqueue+0x266>
    a158:	c95fd0ef          	jal	ra,7dec <pbuf_clen>
    a15c:	47b2                	lw	a5,12(sp)
    a15e:	94aa                	add	s1,s1,a0
    a160:	04c2                	slli	s1,s1,0x10
    a162:	80c1                	srli	s1,s1,0x10
    a164:	cf81                	beqz	a5,a17c <tcp_enqueue+0x130>
    a166:	405c                	lw	a5,4(s0)
    a168:	85e6                	mv	a1,s9
    a16a:	43c8                	lw	a0,4(a5)
    a16c:	67c1                	lui	a5,0x10
    a16e:	17fd                	addi	a5,a5,-1
    a170:	00fa7633          	and	a2,s4,a5
    a174:	4792                	lw	a5,4(sp)
    a176:	953e                	add	a0,a0,a5
    a178:	45e010ef          	jal	ra,b5d6 <memcpy>
    a17c:	405c                	lw	a5,4(s0)
    a17e:	43dc                	lw	a5,4(a5)
    a180:	c41c                	sw	a5,8(s0)
    a182:	008d2783          	lw	a5,8(s10)
    a186:	004d2703          	lw	a4,4(s10)
    a18a:	078a                	slli	a5,a5,0x2
    a18c:	02e7d7b3          	divu	a5,a5,a4
    a190:	1297e163          	bltu	a5,s1,a2b2 <tcp_enqueue+0x266>
    a194:	5782                	lw	a5,32(sp)
    a196:	1097ee63          	bltu	a5,s1,a2b2 <tcp_enqueue+0x266>
    a19a:	4048                	lw	a0,4(s0)
    a19c:	01841623          	sh	s8,12(s0)
    a1a0:	45d1                	li	a1,20
    a1a2:	9f7fd0ef          	jal	ra,7b98 <pbuf_header>
    a1a6:	10051663          	bnez	a0,a2b2 <tcp_enqueue+0x266>
    a1aa:	405c                	lw	a5,4(s0)
    a1ac:	01c95503          	lhu	a0,28(s2)
    a1b0:	418b8bb3          	sub	s7,s7,s8
    a1b4:	43dc                	lw	a5,4(a5)
    a1b6:	0bc2                	slli	s7,s7,0x10
    a1b8:	010bdb93          	srli	s7,s7,0x10
    a1bc:	c81c                	sw	a5,16(s0)
    a1be:	d63e                	sw	a5,44(sp)
    a1c0:	e6afc0ef          	jal	ra,682a <htons>
    a1c4:	57b2                	lw	a5,44(sp)
    a1c6:	a388                	sb	a0,0(a5)
    a1c8:	8121                	srli	a0,a0,0x8
    a1ca:	b388                	sb	a0,1(a5)
    a1cc:	481c                	lw	a5,16(s0)
    a1ce:	02495503          	lhu	a0,36(s2)
    a1d2:	d63e                	sw	a5,44(sp)
    a1d4:	e56fc0ef          	jal	ra,682a <htons>
    a1d8:	57b2                	lw	a5,44(sp)
    a1da:	a3a8                	sb	a0,2(a5)
    a1dc:	8121                	srli	a0,a0,0x8
    a1de:	b3a8                	sb	a0,3(a5)
    a1e0:	481c                	lw	a5,16(s0)
    a1e2:	4522                	lw	a0,8(sp)
    a1e4:	d63e                	sw	a5,44(sp)
    a1e6:	e60fc0ef          	jal	ra,6846 <htonl>
    a1ea:	57b2                	lw	a5,44(sp)
    a1ec:	00855713          	srli	a4,a0,0x8
    a1f0:	b3d8                	sb	a4,5(a5)
    a1f2:	01055713          	srli	a4,a0,0x10
    a1f6:	a3f8                	sb	a4,6(a5)
    a1f8:	4818                	lw	a4,16(s0)
    a1fa:	a3c8                	sb	a0,4(a5)
    a1fc:	8161                	srli	a0,a0,0x18
    a1fe:	b3e8                	sb	a0,7(a5)
    a200:	375c                	lbu	a5,13(a4)
    a202:	2748                	lbu	a0,12(a4)
    a204:	00070923          	sb	zero,18(a4)
    a208:	07a2                	slli	a5,a5,0x8
    a20a:	8fc9                	or	a5,a5,a0
    a20c:	5512                	lw	a0,36(sp)
    a20e:	000709a3          	sb	zero,19(a4)
    a212:	d63e                	sw	a5,44(sp)
    a214:	e16fc0ef          	jal	ra,682a <htons>
    a218:	57b2                	lw	a5,44(sp)
    a21a:	8fe9                	and	a5,a5,a0
    a21c:	5522                	lw	a0,40(sp)
    a21e:	d63e                	sw	a5,44(sp)
    a220:	e0afc0ef          	jal	ra,682a <htons>
    a224:	57b2                	lw	a5,44(sp)
    a226:	8d5d                	or	a0,a0,a5
    a228:	0542                	slli	a0,a0,0x10
    a22a:	481c                	lw	a5,16(s0)
    a22c:	8141                	srli	a0,a0,0x10
    a22e:	00855713          	srli	a4,a0,0x8
    a232:	b7d8                	sb	a4,13(a5)
    a234:	a7c8                	sb	a0,12(a5)
    a236:	01b40723          	sb	s11,14(s0)
    a23a:	dfefc0ef          	jal	ra,6838 <ntohs>
    a23e:	481c                	lw	a5,16(s0)
    a240:	03f57513          	andi	a0,a0,63
    a244:	d63e                	sw	a5,44(sp)
    a246:	47e2                	lw	a5,24(sp)
    a248:	8d5d                	or	a0,a0,a5
    a24a:	de0fc0ef          	jal	ra,682a <htons>
    a24e:	57b2                	lw	a5,44(sp)
    a250:	a7c8                	sb	a0,12(a5)
    a252:	8121                	srli	a0,a0,0x8
    a254:	b7c8                	sb	a0,13(a5)
    a256:	67c1                	lui	a5,0x10
    a258:	17fd                	addi	a5,a5,-1
    a25a:	00fa7a33          	and	s4,s4,a5
    a25e:	47a2                	lw	a5,8(sp)
    a260:	9cd2                	add	s9,s9,s4
    a262:	97d2                	add	a5,a5,s4
    a264:	c43e                	sw	a5,8(sp)
    a266:	87a2                	mv	a5,s0
    a268:	e80b9ee3          	bnez	s7,a104 <tcp_enqueue+0xb8>
    a26c:	07c92a03          	lw	s4,124(s2)
    a270:	060a1963          	bnez	s4,a2e2 <tcp_enqueue+0x296>
    a274:	07392e23          	sw	s3,124(s2)
    a278:	a251                	j	a3fc <tcp_enqueue+0x3b0>
    a27a:	89aa                	mv	s3,a0
    a27c:	bd7d                	j	a13a <tcp_enqueue+0xee>
    a27e:	45c2                	lw	a1,16(sp)
    a280:	4601                	li	a2,0
    a282:	4501                	li	a0,0
    a284:	9d1fd0ef          	jal	ra,7c54 <pbuf_alloc>
    a288:	c048                	sw	a0,4(s0)
    a28a:	c505                	beqz	a0,a2b2 <tcp_enqueue+0x266>
    a28c:	b61fd0ef          	jal	ra,7dec <pbuf_clen>
    a290:	94aa                	add	s1,s1,a0
    a292:	04c2                	slli	s1,s1,0x10
    a294:	80c1                	srli	s1,s1,0x10
    a296:	ee0b86e3          	beqz	s7,a182 <tcp_enqueue+0x136>
    a29a:	85e2                	mv	a1,s8
    a29c:	4605                	li	a2,1
    a29e:	450d                	li	a0,3
    a2a0:	9b5fd0ef          	jal	ra,7c54 <pbuf_alloc>
    a2a4:	85aa                	mv	a1,a0
    a2a6:	4048                	lw	a0,4(s0)
    a2a8:	e195                	bnez	a1,a2cc <tcp_enqueue+0x280>
    a2aa:	95dfd0ef          	jal	ra,7c06 <pbuf_free>
    a2ae:	00042223          	sw	zero,4(s0)
    a2b2:	02694783          	lbu	a5,38(s2)
    a2b6:	5a7d                	li	s4,-1
    a2b8:	f807e793          	ori	a5,a5,-128
    a2bc:	02f90323          	sb	a5,38(s2)
    a2c0:	da0987e3          	beqz	s3,a06e <tcp_enqueue+0x22>
    a2c4:	854e                	mv	a0,s3
    a2c6:	864fe0ef          	jal	ra,832a <tcp_segs_free>
    a2ca:	b355                	j	a06e <tcp_enqueue+0x22>
    a2cc:	0195a223          	sw	s9,4(a1)
    a2d0:	0485                	addi	s1,s1,1
    a2d2:	04c2                	slli	s1,s1,0x10
    a2d4:	01942423          	sw	s9,8(s0)
    a2d8:	80c1                	srli	s1,s1,0x10
    a2da:	b2ffd0ef          	jal	ra,7e08 <pbuf_cat>
    a2de:	b555                	j	a182 <tcp_enqueue+0x136>
    a2e0:	8a3e                	mv	s4,a5
    a2e2:	000a2783          	lw	a5,0(s4)
    a2e6:	ffed                	bnez	a5,a2e0 <tcp_enqueue+0x294>
    a2e8:	010a2783          	lw	a5,16(s4)
    a2ec:	00ca5b83          	lhu	s7,12(s4)
    a2f0:	27c8                	lbu	a0,12(a5)
    a2f2:	37dc                	lbu	a5,13(a5)
    a2f4:	07a2                	slli	a5,a5,0x8
    a2f6:	8d5d                	or	a0,a0,a5
    a2f8:	d40fc0ef          	jal	ra,6838 <ntohs>
    a2fc:	890d                	andi	a0,a0,3
    a2fe:	00a03533          	snez	a0,a0
    a302:	955e                	add	a0,a0,s7
    a304:	18050563          	beqz	a0,a48e <tcp_enqueue+0x442>
    a308:	010a2783          	lw	a5,16(s4)
    a30c:	27c8                	lbu	a0,12(a5)
    a30e:	37dc                	lbu	a5,13(a5)
    a310:	07a2                	slli	a5,a5,0x8
    a312:	8d5d                	or	a0,a0,a5
    a314:	d24fc0ef          	jal	ra,6838 <ntohs>
    a318:	890d                	andi	a0,a0,3
    a31a:	16051a63          	bnez	a0,a48e <tcp_enqueue+0x442>
    a31e:	003b7793          	andi	a5,s6,3
    a322:	c781                	beqz	a5,a32a <tcp_enqueue+0x2de>
    a324:	4785                	li	a5,1
    a326:	16fb1463          	bne	s6,a5,a48e <tcp_enqueue+0x442>
    a32a:	00c9d703          	lhu	a4,12(s3)
    a32e:	00ca5783          	lhu	a5,12(s4)
    a332:	97ba                	add	a5,a5,a4
    a334:	04095703          	lhu	a4,64(s2)
    a338:	14f74b63          	blt	a4,a5,a48e <tcp_enqueue+0x442>
    a33c:	00ea4703          	lbu	a4,14(s4)
    a340:	00e9c783          	lbu	a5,14(s3)
    a344:	14f71563          	bne	a4,a5,a48e <tcp_enqueue+0x442>
    a348:	010a2703          	lw	a4,16(s4)
    a34c:	3348                	lbu	a0,5(a4)
    a34e:	235c                	lbu	a5,4(a4)
    a350:	0522                	slli	a0,a0,0x8
    a352:	8d5d                	or	a0,a0,a5
    a354:	237c                	lbu	a5,6(a4)
    a356:	07c2                	slli	a5,a5,0x10
    a358:	8fc9                	or	a5,a5,a0
    a35a:	3368                	lbu	a0,7(a4)
    a35c:	0562                	slli	a0,a0,0x18
    a35e:	8d5d                	or	a0,a0,a5
    a360:	d0afc0ef          	jal	ra,686a <ntohl>
    a364:	0109a703          	lw	a4,16(s3)
    a368:	00ca5b83          	lhu	s7,12(s4)
    a36c:	235c                	lbu	a5,4(a4)
    a36e:	9baa                	add	s7,s7,a0
    a370:	3348                	lbu	a0,5(a4)
    a372:	0522                	slli	a0,a0,0x8
    a374:	8d5d                	or	a0,a0,a5
    a376:	237c                	lbu	a5,6(a4)
    a378:	07c2                	slli	a5,a5,0x10
    a37a:	8fc9                	or	a5,a5,a0
    a37c:	3368                	lbu	a0,7(a4)
    a37e:	0562                	slli	a0,a0,0x18
    a380:	8d5d                	or	a0,a0,a5
    a382:	ce8fc0ef          	jal	ra,686a <ntohl>
    a386:	10ab9463          	bne	s7,a0,a48e <tcp_enqueue+0x442>
    a38a:	47c2                	lw	a5,16(sp)
    a38c:	55b1                	li	a1,-20
    a38e:	0049a503          	lw	a0,4(s3)
    a392:	8d9d                	sub	a1,a1,a5
    a394:	05c2                	slli	a1,a1,0x10
    a396:	85c1                	srai	a1,a1,0x10
    a398:	801fd0ef          	jal	ra,7b98 <pbuf_header>
    a39c:	f0051be3          	bnez	a0,a2b2 <tcp_enqueue+0x266>
    a3a0:	0049a503          	lw	a0,4(s3)
    a3a4:	253e                	lhu	a5,10(a0)
    a3a6:	eb99                	bnez	a5,a3bc <tcp_enqueue+0x370>
    a3a8:	411c                	lw	a5,0(a0)
    a3aa:	14fd                	addi	s1,s1,-1
    a3ac:	04c2                	slli	s1,s1,0x10
    a3ae:	00f9a223          	sw	a5,4(s3)
    a3b2:	00052023          	sw	zero,0(a0)
    a3b6:	80c1                	srli	s1,s1,0x10
    a3b8:	84ffd0ef          	jal	ra,7c06 <pbuf_free>
    a3bc:	001b7793          	andi	a5,s6,1
    a3c0:	c7cd                	beqz	a5,a46a <tcp_enqueue+0x41e>
    a3c2:	010a2783          	lw	a5,16(s4)
    a3c6:	00d7cb83          	lbu	s7,13(a5) # 1000d <_data_lma+0x32ed>
    a3ca:	27c8                	lbu	a0,12(a5)
    a3cc:	0ba2                	slli	s7,s7,0x8
    a3ce:	00abebb3          	or	s7,s7,a0
    a3d2:	4505                	li	a0,1
    a3d4:	c56fc0ef          	jal	ra,682a <htons>
    a3d8:	010a2783          	lw	a5,16(s4)
    a3dc:	00abe533          	or	a0,s7,a0
    a3e0:	0542                	slli	a0,a0,0x10
    a3e2:	8141                	srli	a0,a0,0x10
    a3e4:	a7c8                	sb	a0,12(a5)
    a3e6:	8121                	srli	a0,a0,0x8
    a3e8:	b7c8                	sb	a0,13(a5)
    a3ea:	00899563          	bne	s3,s0,a3f4 <tcp_enqueue+0x3a8>
    a3ee:	00ca5c03          	lhu	s8,12(s4)
    a3f2:	8452                	mv	s0,s4
    a3f4:	85ce                	mv	a1,s3
    a3f6:	4511                	li	a0,4
    a3f8:	e3cfd0ef          	jal	ra,7a34 <memp_free>
    a3fc:	003b7793          	andi	a5,s6,3
    a400:	c789                	beqz	a5,a40a <tcp_enqueue+0x3be>
    a402:	0a85                	addi	s5,s5,1
    a404:	0ac2                	slli	s5,s5,0x10
    a406:	010ada93          	srli	s5,s5,0x10
    a40a:	001b7b13          	andi	s6,s6,1
    a40e:	000b0863          	beqz	s6,a41e <tcp_enqueue+0x3d2>
    a412:	02694783          	lbu	a5,38(s2)
    a416:	0207e793          	ori	a5,a5,32
    a41a:	02f90323          	sb	a5,38(s2)
    a41e:	07092783          	lw	a5,112(s2)
    a422:	06991c23          	sh	s1,120(s2)
    a426:	4a01                	li	s4,0
    a428:	97d6                	add	a5,a5,s5
    a42a:	06f92823          	sw	a5,112(s2)
    a42e:	07695783          	lhu	a5,118(s2)
    a432:	41578ab3          	sub	s5,a5,s5
    a436:	07591b23          	sh	s5,118(s2)
    a43a:	c20c0ae3          	beqz	s8,a06e <tcp_enqueue+0x22>
    a43e:	481c                	lw	a5,16(s0)
    a440:	c20787e3          	beqz	a5,a06e <tcp_enqueue+0x22>
    a444:	4752                	lw	a4,20(sp)
    a446:	8b09                	andi	a4,a4,2
    a448:	c20713e3          	bnez	a4,a06e <tcp_enqueue+0x22>
    a44c:	37c4                	lbu	s1,13(a5)
    a44e:	27c8                	lbu	a0,12(a5)
    a450:	04a2                	slli	s1,s1,0x8
    a452:	8cc9                	or	s1,s1,a0
    a454:	4521                	li	a0,8
    a456:	bd4fc0ef          	jal	ra,682a <htons>
    a45a:	481c                	lw	a5,16(s0)
    a45c:	8d45                	or	a0,a0,s1
    a45e:	0542                	slli	a0,a0,0x10
    a460:	8141                	srli	a0,a0,0x10
    a462:	a7c8                	sb	a0,12(a5)
    a464:	8121                	srli	a0,a0,0x8
    a466:	b7c8                	sb	a0,13(a5)
    a468:	b119                	j	a06e <tcp_enqueue+0x22>
    a46a:	0049a583          	lw	a1,4(s3)
    a46e:	004a2503          	lw	a0,4(s4)
    a472:	997fd0ef          	jal	ra,7e08 <pbuf_cat>
    a476:	00c9d703          	lhu	a4,12(s3)
    a47a:	00ca5783          	lhu	a5,12(s4)
    a47e:	97ba                	add	a5,a5,a4
    a480:	00fa1623          	sh	a5,12(s4)
    a484:	0009a783          	lw	a5,0(s3)
    a488:	00fa2023          	sw	a5,0(s4)
    a48c:	bfb9                	j	a3ea <tcp_enqueue+0x39e>
    a48e:	013a2023          	sw	s3,0(s4)
    a492:	b7ad                	j	a3fc <tcp_enqueue+0x3b0>

0000a494 <tcp_send_ctrl>:
    a494:	882f62ef          	jal	t0,516 <__riscv_save_0>
    a498:	86ae                	mv	a3,a1
    a49a:	4781                	li	a5,0
    a49c:	4705                	li	a4,1
    a49e:	4601                	li	a2,0
    a4a0:	4581                	li	a1,0
    a4a2:	babff0ef          	jal	ra,a04c <tcp_enqueue>
    a4a6:	894f606f          	j	53a <__riscv_restore_0>

0000a4aa <tcp_write>:
    a4aa:	87aa                	mv	a5,a0
    a4ac:	4908                	lw	a0,16(a0)
    a4ae:	471d                	li	a4,7
    a4b0:	00e50863          	beq	a0,a4,a4c0 <tcp_write+0x16>
    a4b4:	ffe50813          	addi	a6,a0,-2
    a4b8:	4709                	li	a4,2
    a4ba:	5561                	li	a0,-8
    a4bc:	01076e63          	bltu	a4,a6,a4d8 <tcp_write+0x2e>
    a4c0:	4501                	li	a0,0
    a4c2:	ca19                	beqz	a2,a4d8 <tcp_write+0x2e>
    a4c4:	852f62ef          	jal	t0,516 <__riscv_save_0>
    a4c8:	8736                	mv	a4,a3
    a4ca:	853e                	mv	a0,a5
    a4cc:	4681                	li	a3,0
    a4ce:	4781                	li	a5,0
    a4d0:	b7dff0ef          	jal	ra,a04c <tcp_enqueue>
    a4d4:	866f606f          	j	53a <__riscv_restore_0>
    a4d8:	8082                	ret

0000a4da <tcp_send_empty_ack>:
    a4da:	822f62ef          	jal	t0,4fc <__riscv_save_4>
    a4de:	842a                	mv	s0,a0
    a4e0:	4601                	li	a2,0
    a4e2:	45d1                	li	a1,20
    a4e4:	4505                	li	a0,1
    a4e6:	f6efd0ef          	jal	ra,7c54 <pbuf_alloc>
    a4ea:	cd31                	beqz	a0,a546 <tcp_send_empty_ack+0x6c>
    a4ec:	02644783          	lbu	a5,38(s0)
    a4f0:	84aa                	mv	s1,a0
    a4f2:	5028                	lw	a0,96(s0)
    a4f4:	9bf1                	andi	a5,a5,-4
    a4f6:	02f40323          	sb	a5,38(s0)
    a4fa:	b4cfc0ef          	jal	ra,6846 <htonl>
    a4fe:	40cc                	lw	a1,4(s1)
    a500:	862a                	mv	a2,a0
    a502:	8522                	mv	a0,s0
    a504:	a75ff0ef          	jal	ra,9f78 <tcp_output_set_header.isra.0.constprop.1>
    a508:	249a                	lhu	a4,8(s1)
    a50a:	00440913          	addi	s2,s0,4
    a50e:	89aa                	mv	s3,a0
    a510:	4699                	li	a3,6
    a512:	864a                	mv	a2,s2
    a514:	85a2                	mv	a1,s0
    a516:	8526                	mv	a0,s1
    a518:	711000ef          	jal	ra,b428 <inet_chksum_pseudo>
    a51c:	00a98823          	sb	a0,16(s3)
    a520:	8121                	srli	a0,a0,0x8
    a522:	00a988a3          	sb	a0,17(s3)
    a526:	2438                	lbu	a4,10(s0)
    a528:	3434                	lbu	a3,11(s0)
    a52a:	4799                	li	a5,6
    a52c:	864a                	mv	a2,s2
    a52e:	85a2                	mv	a1,s0
    a530:	8526                	mv	a0,s1
    a532:	f84fc0ef          	jal	ra,6cb6 <ip_output>
    a536:	8526                	mv	a0,s1
    a538:	ecefd0ef          	jal	ra,7c06 <pbuf_free>
    a53c:	4501                	li	a0,0
    a53e:	020403a3          	sb	zero,39(s0)
    a542:	feff506f          	j	530 <__riscv_restore_4>
    a546:	5579                	li	a0,-2
    a548:	bfed                	j	a542 <tcp_send_empty_ack+0x68>

0000a54a <tcp_output>:
    a54a:	a101a783          	lw	a5,-1520(gp) # 20000310 <tcp_input_pcb>
    a54e:	36a78063          	beq	a5,a0,a8ae <tcp_output+0x364>
    a552:	f95f52ef          	jal	t0,4e6 <__riscv_save_12>
    a556:	06455783          	lhu	a5,100(a0)
    a55a:	05a55a03          	lhu	s4,90(a0)
    a55e:	0147f363          	bgeu	a5,s4,a564 <tcp_output+0x1a>
    a562:	8a3e                	mv	s4,a5
    a564:	02654783          	lbu	a5,38(a0)
    a568:	0a42                	slli	s4,s4,0x10
    a56a:	842a                	mv	s0,a0
    a56c:	8b89                	andi	a5,a5,2
    a56e:	010a5a13          	srli	s4,s4,0x10
    a572:	5d64                	lw	s1,124(a0)
    a574:	cb95                	beqz	a5,a5a8 <tcp_output+0x5e>
    a576:	e491                	bnez	s1,a582 <tcp_output+0x38>
    a578:	8522                	mv	a0,s0
    a57a:	f61ff0ef          	jal	ra,a4da <tcp_send_empty_ack>
    a57e:	fa5f506f          	j	522 <__riscv_restore_12>
    a582:	4898                	lw	a4,16(s1)
    a584:	3348                	lbu	a0,5(a4)
    a586:	235c                	lbu	a5,4(a4)
    a588:	0522                	slli	a0,a0,0x8
    a58a:	8d5d                	or	a0,a0,a5
    a58c:	237c                	lbu	a5,6(a4)
    a58e:	07c2                	slli	a5,a5,0x10
    a590:	8fc9                	or	a5,a5,a0
    a592:	3368                	lbu	a0,7(a4)
    a594:	0562                	slli	a0,a0,0x18
    a596:	8d5d                	or	a0,a0,a5
    a598:	ad2fc0ef          	jal	ra,686a <ntohl>
    a59c:	24de                	lhu	a5,12(s1)
    a59e:	4878                	lw	a4,84(s0)
    a5a0:	8f99                	sub	a5,a5,a4
    a5a2:	953e                	add	a0,a0,a5
    a5a4:	fcaa6ae3          	bltu	s4,a0,a578 <tcp_output+0x2e>
    a5a8:	08042983          	lw	s3,128(s0)
    a5ac:	08099663          	bnez	s3,a638 <tcp_output+0xee>
    a5b0:	2000aab7          	lui	s5,0x2000a
    a5b4:	4b89                	li	s7,2
    a5b6:	35ca8a93          	addi	s5,s5,860 # 2000a35c <WCHCfg>
    a5ba:	02040c37          	lui	s8,0x2040
    a5be:	00440b13          	addi	s6,s0,4
    a5c2:	5cfd                	li	s9,-1
    a5c4:	c0ad                	beqz	s1,a626 <tcp_output+0xdc>
    a5c6:	4898                	lw	a4,16(s1)
    a5c8:	3348                	lbu	a0,5(a4)
    a5ca:	235c                	lbu	a5,4(a4)
    a5cc:	0522                	slli	a0,a0,0x8
    a5ce:	8d5d                	or	a0,a0,a5
    a5d0:	237c                	lbu	a5,6(a4)
    a5d2:	07c2                	slli	a5,a5,0x10
    a5d4:	8fc9                	or	a5,a5,a0
    a5d6:	3368                	lbu	a0,7(a4)
    a5d8:	0562                	slli	a0,a0,0x18
    a5da:	8d5d                	or	a0,a0,a5
    a5dc:	a8efc0ef          	jal	ra,686a <ntohl>
    a5e0:	24de                	lhu	a5,12(s1)
    a5e2:	4878                	lw	a4,84(s0)
    a5e4:	8f99                	sub	a5,a5,a4
    a5e6:	953e                	add	a0,a0,a5
    a5e8:	04aa7c63          	bgeu	s4,a0,a640 <tcp_output+0xf6>
    a5ec:	0b044783          	lbu	a5,176(s0)
    a5f0:	eb9d                	bnez	a5,a626 <tcp_output+0xdc>
    a5f2:	4898                	lw	a4,16(s1)
    a5f4:	3348                	lbu	a0,5(a4)
    a5f6:	235c                	lbu	a5,4(a4)
    a5f8:	0522                	slli	a0,a0,0x8
    a5fa:	8d5d                	or	a0,a0,a5
    a5fc:	237c                	lbu	a5,6(a4)
    a5fe:	07c2                	slli	a5,a5,0x10
    a600:	8fc9                	or	a5,a5,a0
    a602:	3368                	lbu	a0,7(a4)
    a604:	0562                	slli	a0,a0,0x18
    a606:	8d5d                	or	a0,a0,a5
    a608:	a62fc0ef          	jal	ra,686a <ntohl>
    a60c:	24de                	lhu	a5,12(s1)
    a60e:	4878                	lw	a4,84(s0)
    a610:	8f99                	sub	a5,a5,a4
    a612:	953e                	add	a0,a0,a5
    a614:	06445783          	lhu	a5,100(s0)
    a618:	00a7f763          	bgeu	a5,a0,a626 <tcp_output+0xdc>
    a61c:	4785                	li	a5,1
    a61e:	0a042623          	sw	zero,172(s0)
    a622:	0af40823          	sb	a5,176(s0)
    a626:	02644783          	lbu	a5,38(s0)
    a62a:	4501                	li	a0,0
    a62c:	07f7f793          	andi	a5,a5,127
    a630:	02f40323          	sb	a5,38(s0)
    a634:	b7a9                	j	a57e <tcp_output+0x34>
    a636:	89be                	mv	s3,a5
    a638:	0009a783          	lw	a5,0(s3)
    a63c:	ffed                	bnez	a5,a636 <tcp_output+0xec>
    a63e:	bf8d                	j	a5b0 <tcp_output+0x66>
    a640:	08042783          	lw	a5,128(s0)
    a644:	c395                	beqz	a5,a668 <tcp_output+0x11e>
    a646:	02644783          	lbu	a5,38(s0)
    a64a:	0447f713          	andi	a4,a5,68
    a64e:	ef09                	bnez	a4,a668 <tcp_output+0x11e>
    a650:	5c78                	lw	a4,124(s0)
    a652:	cb01                	beqz	a4,a662 <tcp_output+0x118>
    a654:	4314                	lw	a3,0(a4)
    a656:	ea89                	bnez	a3,a668 <tcp_output+0x11e>
    a658:	2756                	lhu	a3,12(a4)
    a65a:	04045703          	lhu	a4,64(s0)
    a65e:	00e6f563          	bgeu	a3,a4,a668 <tcp_output+0x11e>
    a662:	0a07f793          	andi	a5,a5,160
    a666:	d3d9                	beqz	a5,a5ec <tcp_output+0xa2>
    a668:	409c                	lw	a5,0(s1)
    a66a:	dc7c                	sw	a5,124(s0)
    a66c:	481c                	lw	a5,16(s0)
    a66e:	03778963          	beq	a5,s7,a6a0 <tcp_output+0x156>
    a672:	489c                	lw	a5,16(s1)
    a674:	00d7c903          	lbu	s2,13(a5)
    a678:	27c8                	lbu	a0,12(a5)
    a67a:	0922                	slli	s2,s2,0x8
    a67c:	00a96933          	or	s2,s2,a0
    a680:	4541                	li	a0,16
    a682:	9a8fc0ef          	jal	ra,682a <htons>
    a686:	489c                	lw	a5,16(s1)
    a688:	00a96533          	or	a0,s2,a0
    a68c:	0542                	slli	a0,a0,0x10
    a68e:	8141                	srli	a0,a0,0x10
    a690:	a7c8                	sb	a0,12(a5)
    a692:	8121                	srli	a0,a0,0x8
    a694:	b7c8                	sb	a0,13(a5)
    a696:	02644783          	lbu	a5,38(s0)
    a69a:	9bf1                	andi	a5,a5,-4
    a69c:	02f40323          	sb	a5,38(s0)
    a6a0:	5408                	lw	a0,40(s0)
    a6a2:	0104a903          	lw	s2,16(s1)
    a6a6:	9a0fc0ef          	jal	ra,6846 <htonl>
    a6aa:	00855793          	srli	a5,a0,0x8
    a6ae:	00a90423          	sb	a0,8(s2)
    a6b2:	00f904a3          	sb	a5,9(s2)
    a6b6:	01055793          	srli	a5,a0,0x10
    a6ba:	8161                	srli	a0,a0,0x18
    a6bc:	00a905a3          	sb	a0,11(s2)
    a6c0:	346a                	lhu	a0,46(s0)
    a6c2:	00f90523          	sb	a5,10(s2)
    a6c6:	0104a903          	lw	s2,16(s1)
    a6ca:	960fc0ef          	jal	ra,682a <htons>
    a6ce:	347a                	lhu	a4,46(s0)
    a6d0:	541c                	lw	a5,40(s0)
    a6d2:	00a90723          	sb	a0,14(s2)
    a6d6:	8121                	srli	a0,a0,0x8
    a6d8:	00a907a3          	sb	a0,15(s2)
    a6dc:	97ba                	add	a5,a5,a4
    a6de:	b87a                	sh	a4,54(s0)
    a6e0:	d81c                	sw	a5,48(s0)
    a6e2:	24fc                	lbu	a5,14(s1)
    a6e4:	8b85                	andi	a5,a5,1
    a6e6:	cb99                	beqz	a5,a6fc <tcp_output+0x1b2>
    a6e8:	004aa503          	lw	a0,4(s5)
    a6ec:	0104a903          	lw	s2,16(s1)
    a6f0:	00ac6533          	or	a0,s8,a0
    a6f4:	952fc0ef          	jal	ra,6846 <htonl>
    a6f8:	00a92a23          	sw	a0,20(s2)
    a6fc:	401c                	lw	a5,0(s0)
    a6fe:	e799                	bnez	a5,a70c <tcp_output+0x1c2>
    a700:	855a                	mv	a0,s6
    a702:	974fc0ef          	jal	ra,6876 <ip_route>
    a706:	c559                	beqz	a0,a794 <tcp_output+0x24a>
    a708:	415c                	lw	a5,4(a0)
    a70a:	c01c                	sw	a5,0(s0)
    a70c:	03e41783          	lh	a5,62(s0)
    a710:	01979463          	bne	a5,s9,a718 <tcp_output+0x1ce>
    a714:	02041f23          	sh	zero,62(s0)
    a718:	407c                	lw	a5,68(s0)
    a71a:	e395                	bnez	a5,a73e <tcp_output+0x1f4>
    a71c:	9e81a783          	lw	a5,-1560(gp) # 200002e8 <tcp_ticks>
    a720:	4898                	lw	a4,16(s1)
    a722:	c07c                	sw	a5,68(s0)
    a724:	3348                	lbu	a0,5(a4)
    a726:	235c                	lbu	a5,4(a4)
    a728:	0522                	slli	a0,a0,0x8
    a72a:	8d5d                	or	a0,a0,a5
    a72c:	237c                	lbu	a5,6(a4)
    a72e:	07c2                	slli	a5,a5,0x10
    a730:	8fc9                	or	a5,a5,a0
    a732:	3368                	lbu	a0,7(a4)
    a734:	0562                	slli	a0,a0,0x18
    a736:	8d5d                	or	a0,a0,a5
    a738:	932fc0ef          	jal	ra,686a <ntohl>
    a73c:	c428                	sw	a0,72(s0)
    a73e:	40c8                	lw	a0,4(s1)
    a740:	0104a903          	lw	s2,16(s1)
    a744:	4699                	li	a3,6
    a746:	4158                	lw	a4,4(a0)
    a748:	01252223          	sw	s2,4(a0)
    a74c:	865a                	mv	a2,s6
    a74e:	40e90733          	sub	a4,s2,a4
    a752:	01071793          	slli	a5,a4,0x10
    a756:	253a                	lhu	a4,10(a0)
    a758:	83c1                	srli	a5,a5,0x10
    a75a:	85a2                	mv	a1,s0
    a75c:	8f1d                	sub	a4,a4,a5
    a75e:	a53a                	sh	a4,10(a0)
    a760:	251a                	lhu	a4,8(a0)
    a762:	8f1d                	sub	a4,a4,a5
    a764:	0742                	slli	a4,a4,0x10
    a766:	8341                	srli	a4,a4,0x10
    a768:	a51a                	sh	a4,8(a0)
    a76a:	00090823          	sb	zero,16(s2)
    a76e:	000908a3          	sb	zero,17(s2)
    a772:	4b7000ef          	jal	ra,b428 <inet_chksum_pseudo>
    a776:	00a90823          	sb	a0,16(s2)
    a77a:	8121                	srli	a0,a0,0x8
    a77c:	00a908a3          	sb	a0,17(s2)
    a780:	2438                	lbu	a4,10(s0)
    a782:	3434                	lbu	a3,11(s0)
    a784:	40c8                	lw	a0,4(s1)
    a786:	4799                	li	a5,6
    a788:	865a                	mv	a2,s6
    a78a:	85a2                	mv	a1,s0
    a78c:	d2afc0ef          	jal	ra,6cb6 <ip_output>
    a790:	020403a3          	sb	zero,39(s0)
    a794:	4898                	lw	a4,16(s1)
    a796:	3348                	lbu	a0,5(a4)
    a798:	235c                	lbu	a5,4(a4)
    a79a:	0522                	slli	a0,a0,0x8
    a79c:	8d5d                	or	a0,a0,a5
    a79e:	237c                	lbu	a5,6(a4)
    a7a0:	07c2                	slli	a5,a5,0x10
    a7a2:	8fc9                	or	a5,a5,a0
    a7a4:	3368                	lbu	a0,7(a4)
    a7a6:	0562                	slli	a0,a0,0x18
    a7a8:	8d5d                	or	a0,a0,a5
    a7aa:	8c0fc0ef          	jal	ra,686a <ntohl>
    a7ae:	489c                	lw	a5,16(s1)
    a7b0:	892a                	mv	s2,a0
    a7b2:	00c4dd83          	lhu	s11,12(s1)
    a7b6:	27c8                	lbu	a0,12(a5)
    a7b8:	37dc                	lbu	a5,13(a5)
    a7ba:	07a2                	slli	a5,a5,0x8
    a7bc:	8d5d                	or	a0,a0,a5
    a7be:	87afc0ef          	jal	ra,6838 <ntohs>
    a7c2:	890d                	andi	a0,a0,3
    a7c4:	00a03533          	snez	a0,a0
    a7c8:	503c                	lw	a5,96(s0)
    a7ca:	956e                	add	a0,a0,s11
    a7cc:	954a                	add	a0,a0,s2
    a7ce:	8f89                	sub	a5,a5,a0
    a7d0:	0007d363          	bgez	a5,a7d6 <tcp_output+0x28c>
    a7d4:	d028                	sw	a0,96(s0)
    a7d6:	489c                	lw	a5,16(s1)
    a7d8:	00c4d903          	lhu	s2,12(s1)
    a7dc:	27c8                	lbu	a0,12(a5)
    a7de:	37dc                	lbu	a5,13(a5)
    a7e0:	07a2                	slli	a5,a5,0x8
    a7e2:	8d5d                	or	a0,a0,a5
    a7e4:	854fc0ef          	jal	ra,6838 <ntohs>
    a7e8:	890d                	andi	a0,a0,3
    a7ea:	00a03533          	snez	a0,a0
    a7ee:	954a                	add	a0,a0,s2
    a7f0:	c95d                	beqz	a0,a8a6 <tcp_output+0x35c>
    a7f2:	08042783          	lw	a5,128(s0)
    a7f6:	0004a023          	sw	zero,0(s1)
    a7fa:	e789                	bnez	a5,a804 <tcp_output+0x2ba>
    a7fc:	08942023          	sw	s1,128(s0)
    a800:	89a6                	mv	s3,s1
    a802:	a899                	j	a858 <tcp_output+0x30e>
    a804:	4898                	lw	a4,16(s1)
    a806:	3348                	lbu	a0,5(a4)
    a808:	235c                	lbu	a5,4(a4)
    a80a:	0522                	slli	a0,a0,0x8
    a80c:	8d5d                	or	a0,a0,a5
    a80e:	237c                	lbu	a5,6(a4)
    a810:	07c2                	slli	a5,a5,0x10
    a812:	8fc9                	or	a5,a5,a0
    a814:	3368                	lbu	a0,7(a4)
    a816:	0562                	slli	a0,a0,0x18
    a818:	8d5d                	or	a0,a0,a5
    a81a:	850fc0ef          	jal	ra,686a <ntohl>
    a81e:	0109a703          	lw	a4,16(s3)
    a822:	892a                	mv	s2,a0
    a824:	3348                	lbu	a0,5(a4)
    a826:	235c                	lbu	a5,4(a4)
    a828:	0522                	slli	a0,a0,0x8
    a82a:	8d5d                	or	a0,a0,a5
    a82c:	237c                	lbu	a5,6(a4)
    a82e:	07c2                	slli	a5,a5,0x10
    a830:	8fc9                	or	a5,a5,a0
    a832:	3368                	lbu	a0,7(a4)
    a834:	0562                	slli	a0,a0,0x18
    a836:	8d5d                	or	a0,a0,a5
    a838:	832fc0ef          	jal	ra,686a <ntohl>
    a83c:	40a90533          	sub	a0,s2,a0
    a840:	06055063          	bgez	a0,a8a0 <tcp_output+0x356>
    a844:	08040913          	addi	s2,s0,128
    a848:	00092783          	lw	a5,0(s2)
    a84c:	eb81                	bnez	a5,a85c <tcp_output+0x312>
    a84e:	00092783          	lw	a5,0(s2)
    a852:	c09c                	sw	a5,0(s1)
    a854:	00992023          	sw	s1,0(s2)
    a858:	5c64                	lw	s1,124(s0)
    a85a:	b3ad                	j	a5c4 <tcp_output+0x7a>
    a85c:	4b98                	lw	a4,16(a5)
    a85e:	3348                	lbu	a0,5(a4)
    a860:	235c                	lbu	a5,4(a4)
    a862:	0522                	slli	a0,a0,0x8
    a864:	8d5d                	or	a0,a0,a5
    a866:	237c                	lbu	a5,6(a4)
    a868:	07c2                	slli	a5,a5,0x10
    a86a:	8fc9                	or	a5,a5,a0
    a86c:	3368                	lbu	a0,7(a4)
    a86e:	0562                	slli	a0,a0,0x18
    a870:	8d5d                	or	a0,a0,a5
    a872:	ff9fb0ef          	jal	ra,686a <ntohl>
    a876:	4898                	lw	a4,16(s1)
    a878:	8daa                	mv	s11,a0
    a87a:	3348                	lbu	a0,5(a4)
    a87c:	235c                	lbu	a5,4(a4)
    a87e:	0522                	slli	a0,a0,0x8
    a880:	8d5d                	or	a0,a0,a5
    a882:	237c                	lbu	a5,6(a4)
    a884:	07c2                	slli	a5,a5,0x10
    a886:	8fc9                	or	a5,a5,a0
    a888:	3368                	lbu	a0,7(a4)
    a88a:	0562                	slli	a0,a0,0x18
    a88c:	8d5d                	or	a0,a0,a5
    a88e:	fddfb0ef          	jal	ra,686a <ntohl>
    a892:	40ad8533          	sub	a0,s11,a0
    a896:	fa055ce3          	bgez	a0,a84e <tcp_output+0x304>
    a89a:	00092903          	lw	s2,0(s2)
    a89e:	b76d                	j	a848 <tcp_output+0x2fe>
    a8a0:	0099a023          	sw	s1,0(s3)
    a8a4:	bfb1                	j	a800 <tcp_output+0x2b6>
    a8a6:	8526                	mv	a0,s1
    a8a8:	a59fd0ef          	jal	ra,8300 <tcp_seg_free>
    a8ac:	b775                	j	a858 <tcp_output+0x30e>
    a8ae:	4501                	li	a0,0
    a8b0:	8082                	ret

0000a8b2 <tcp_rst>:
    a8b2:	c4bf52ef          	jal	t0,4fc <__riscv_save_4>
    a8b6:	1141                	addi	sp,sp,-16
    a8b8:	8aaa                	mv	s5,a0
    a8ba:	84ae                	mv	s1,a1
    a8bc:	89b2                	mv	s3,a2
    a8be:	45d1                	li	a1,20
    a8c0:	4601                	li	a2,0
    a8c2:	4505                	li	a0,1
    a8c4:	8a36                	mv	s4,a3
    a8c6:	c63a                	sw	a4,12(sp)
    a8c8:	8b3e                	mv	s6,a5
    a8ca:	b8afd0ef          	jal	ra,7c54 <pbuf_alloc>
    a8ce:	0e050363          	beqz	a0,a9b4 <tcp_rst+0x102>
    a8d2:	4732                	lw	a4,12(sp)
    a8d4:	4140                	lw	s0,4(a0)
    a8d6:	892a                	mv	s2,a0
    a8d8:	853a                	mv	a0,a4
    a8da:	f51fb0ef          	jal	ra,682a <htons>
    a8de:	a008                	sb	a0,0(s0)
    a8e0:	8121                	srli	a0,a0,0x8
    a8e2:	b008                	sb	a0,1(s0)
    a8e4:	855a                	mv	a0,s6
    a8e6:	f45fb0ef          	jal	ra,682a <htons>
    a8ea:	a028                	sb	a0,2(s0)
    a8ec:	8121                	srli	a0,a0,0x8
    a8ee:	b028                	sb	a0,3(s0)
    a8f0:	8556                	mv	a0,s5
    a8f2:	f55fb0ef          	jal	ra,6846 <htonl>
    a8f6:	00855793          	srli	a5,a0,0x8
    a8fa:	a048                	sb	a0,4(s0)
    a8fc:	b05c                	sb	a5,5(s0)
    a8fe:	01055793          	srli	a5,a0,0x10
    a902:	8161                	srli	a0,a0,0x18
    a904:	a07c                	sb	a5,6(s0)
    a906:	b068                	sb	a0,7(s0)
    a908:	8526                	mv	a0,s1
    a90a:	f3dfb0ef          	jal	ra,6846 <htonl>
    a90e:	00855793          	srli	a5,a0,0x8
    a912:	a408                	sb	a0,8(s0)
    a914:	b41c                	sb	a5,9(s0)
    a916:	3444                	lbu	s1,13(s0)
    a918:	01055793          	srli	a5,a0,0x10
    a91c:	8161                	srli	a0,a0,0x18
    a91e:	b428                	sb	a0,11(s0)
    a920:	2448                	lbu	a0,12(s0)
    a922:	04a2                	slli	s1,s1,0x8
    a924:	a43c                	sb	a5,10(s0)
    a926:	8cc9                	or	s1,s1,a0
    a928:	6541                	lui	a0,0x10
    a92a:	fc050513          	addi	a0,a0,-64 # ffc0 <_data_lma+0x32a0>
    a92e:	efdfb0ef          	jal	ra,682a <htons>
    a932:	8ce9                	and	s1,s1,a0
    a934:	4551                	li	a0,20
    a936:	ef5fb0ef          	jal	ra,682a <htons>
    a93a:	8d45                	or	a0,a0,s1
    a93c:	0542                	slli	a0,a0,0x10
    a93e:	8141                	srli	a0,a0,0x10
    a940:	2000a7b7          	lui	a5,0x2000a
    a944:	a448                	sb	a0,12(s0)
    a946:	8121                	srli	a0,a0,0x8
    a948:	b448                	sb	a0,13(s0)
    a94a:	3607d503          	lhu	a0,864(a5) # 2000a360 <WCHCfg+0x4>
    a94e:	eddfb0ef          	jal	ra,682a <htons>
    a952:	a468                	sb	a0,14(s0)
    a954:	345c                	lbu	a5,13(s0)
    a956:	8121                	srli	a0,a0,0x8
    a958:	b468                	sb	a0,15(s0)
    a95a:	2448                	lbu	a0,12(s0)
    a95c:	07a2                	slli	a5,a5,0x8
    a95e:	00040923          	sb	zero,18(s0)
    a962:	8d5d                	or	a0,a0,a5
    a964:	000409a3          	sb	zero,19(s0)
    a968:	ed1fb0ef          	jal	ra,6838 <ntohs>
    a96c:	6795                	lui	a5,0x5
    a96e:	03f57513          	andi	a0,a0,63
    a972:	8d5d                	or	a0,a0,a5
    a974:	eb7fb0ef          	jal	ra,682a <htons>
    a978:	00895703          	lhu	a4,8(s2)
    a97c:	a448                	sb	a0,12(s0)
    a97e:	8121                	srli	a0,a0,0x8
    a980:	b448                	sb	a0,13(s0)
    a982:	4699                	li	a3,6
    a984:	8652                	mv	a2,s4
    a986:	85ce                	mv	a1,s3
    a988:	00040823          	sb	zero,16(s0)
    a98c:	000408a3          	sb	zero,17(s0)
    a990:	854a                	mv	a0,s2
    a992:	297000ef          	jal	ra,b428 <inet_chksum_pseudo>
    a996:	a808                	sb	a0,16(s0)
    a998:	8121                	srli	a0,a0,0x8
    a99a:	b808                	sb	a0,17(s0)
    a99c:	4799                	li	a5,6
    a99e:	4701                	li	a4,0
    a9a0:	08000693          	li	a3,128
    a9a4:	8652                	mv	a2,s4
    a9a6:	85ce                	mv	a1,s3
    a9a8:	854a                	mv	a0,s2
    a9aa:	b0cfc0ef          	jal	ra,6cb6 <ip_output>
    a9ae:	854a                	mv	a0,s2
    a9b0:	a56fd0ef          	jal	ra,7c06 <pbuf_free>
    a9b4:	0141                	addi	sp,sp,16
    a9b6:	b7bf506f          	j	530 <__riscv_restore_4>

0000a9ba <tcp_rexmit_rto>:
    a9ba:	08052783          	lw	a5,128(a0)
    a9be:	cb85                	beqz	a5,a9ee <tcp_rexmit_rto+0x34>
    a9c0:	b57f52ef          	jal	t0,516 <__riscv_save_0>
    a9c4:	873e                	mv	a4,a5
    a9c6:	4314                	lw	a3,0(a4)
    a9c8:	e28d                	bnez	a3,a9ea <tcp_rexmit_rto+0x30>
    a9ca:	5d74                	lw	a3,124(a0)
    a9cc:	c314                	sw	a3,0(a4)
    a9ce:	dd7c                	sw	a5,124(a0)
    a9d0:	05254783          	lbu	a5,82(a0)
    a9d4:	08052023          	sw	zero,128(a0)
    a9d8:	04052223          	sw	zero,68(a0)
    a9dc:	0785                	addi	a5,a5,1
    a9de:	04f50923          	sb	a5,82(a0)
    a9e2:	b69ff0ef          	jal	ra,a54a <tcp_output>
    a9e6:	b55f506f          	j	53a <__riscv_restore_0>
    a9ea:	8736                	mv	a4,a3
    a9ec:	bfe9                	j	a9c6 <tcp_rexmit_rto+0xc>
    a9ee:	8082                	ret

0000a9f0 <tcp_rexmit>:
    a9f0:	b0df52ef          	jal	t0,4fc <__riscv_save_4>
    a9f4:	08052483          	lw	s1,128(a0)
    a9f8:	c495                	beqz	s1,aa24 <tcp_rexmit+0x34>
    a9fa:	409c                	lw	a5,0(s1)
    a9fc:	842a                	mv	s0,a0
    a9fe:	07c50913          	addi	s2,a0,124
    aa02:	08f52023          	sw	a5,128(a0)
    aa06:	00092783          	lw	a5,0(s2)
    aa0a:	ef99                	bnez	a5,aa28 <tcp_rexmit+0x38>
    aa0c:	00092783          	lw	a5,0(s2)
    aa10:	c09c                	sw	a5,0(s1)
    aa12:	00992023          	sw	s1,0(s2)
    aa16:	05244783          	lbu	a5,82(s0)
    aa1a:	04042223          	sw	zero,68(s0)
    aa1e:	0785                	addi	a5,a5,1
    aa20:	04f40923          	sb	a5,82(s0)
    aa24:	b0df506f          	j	530 <__riscv_restore_4>
    aa28:	4b98                	lw	a4,16(a5)
    aa2a:	3348                	lbu	a0,5(a4)
    aa2c:	235c                	lbu	a5,4(a4)
    aa2e:	0522                	slli	a0,a0,0x8
    aa30:	8d5d                	or	a0,a0,a5
    aa32:	237c                	lbu	a5,6(a4)
    aa34:	07c2                	slli	a5,a5,0x10
    aa36:	8fc9                	or	a5,a5,a0
    aa38:	3368                	lbu	a0,7(a4)
    aa3a:	0562                	slli	a0,a0,0x18
    aa3c:	8d5d                	or	a0,a0,a5
    aa3e:	e2dfb0ef          	jal	ra,686a <ntohl>
    aa42:	4898                	lw	a4,16(s1)
    aa44:	89aa                	mv	s3,a0
    aa46:	3348                	lbu	a0,5(a4)
    aa48:	235c                	lbu	a5,4(a4)
    aa4a:	0522                	slli	a0,a0,0x8
    aa4c:	8d5d                	or	a0,a0,a5
    aa4e:	237c                	lbu	a5,6(a4)
    aa50:	07c2                	slli	a5,a5,0x10
    aa52:	8fc9                	or	a5,a5,a0
    aa54:	3368                	lbu	a0,7(a4)
    aa56:	0562                	slli	a0,a0,0x18
    aa58:	8d5d                	or	a0,a0,a5
    aa5a:	e11fb0ef          	jal	ra,686a <ntohl>
    aa5e:	40a98533          	sub	a0,s3,a0
    aa62:	fa0555e3          	bgez	a0,aa0c <tcp_rexmit+0x1c>
    aa66:	00092903          	lw	s2,0(s2)
    aa6a:	bf71                	j	aa06 <tcp_rexmit+0x16>

0000aa6c <tcp_rexmit_fast>:
    aa6c:	08052783          	lw	a5,128(a0)
    aa70:	cfb1                	beqz	a5,aacc <tcp_rexmit_fast+0x60>
    aa72:	aa5f52ef          	jal	t0,516 <__riscv_save_0>
    aa76:	02654783          	lbu	a5,38(a0)
    aa7a:	842a                	mv	s0,a0
    aa7c:	8b91                	andi	a5,a5,4
    aa7e:	e7a9                	bnez	a5,aac8 <tcp_rexmit_fast+0x5c>
    aa80:	f71ff0ef          	jal	ra,a9f0 <tcp_rexmit>
    aa84:	05a45683          	lhu	a3,90(s0)
    aa88:	06445783          	lhu	a5,100(s0)
    aa8c:	0016d713          	srli	a4,a3,0x1
    aa90:	00d7f463          	bgeu	a5,a3,aa98 <tcp_rexmit_fast+0x2c>
    aa94:	0017d713          	srli	a4,a5,0x1
    aa98:	04045783          	lhu	a5,64(s0)
    aa9c:	04e41e23          	sh	a4,92(s0)
    aaa0:	00179693          	slli	a3,a5,0x1
    aaa4:	00d75463          	bge	a4,a3,aaac <tcp_rexmit_fast+0x40>
    aaa8:	04d41e23          	sh	a3,92(s0)
    aaac:	470d                	li	a4,3
    aaae:	02e787b3          	mul	a5,a5,a4
    aab2:	05c45703          	lhu	a4,92(s0)
    aab6:	97ba                	add	a5,a5,a4
    aab8:	04f41d23          	sh	a5,90(s0)
    aabc:	02644783          	lbu	a5,38(s0)
    aac0:	0047e793          	ori	a5,a5,4
    aac4:	02f40323          	sb	a5,38(s0)
    aac8:	a73f506f          	j	53a <__riscv_restore_0>
    aacc:	8082                	ret

0000aace <tcp_keepalive>:
    aace:	a2ff52ef          	jal	t0,4fc <__riscv_save_4>
    aad2:	84aa                	mv	s1,a0
    aad4:	4601                	li	a2,0
    aad6:	45d1                	li	a1,20
    aad8:	4505                	li	a0,1
    aada:	97afd0ef          	jal	ra,7c54 <pbuf_alloc>
    aade:	c529                	beqz	a0,ab28 <tcp_keepalive+0x5a>
    aae0:	842a                	mv	s0,a0
    aae2:	50a8                	lw	a0,96(s1)
    aae4:	00448913          	addi	s2,s1,4
    aae8:	157d                	addi	a0,a0,-1
    aaea:	d5dfb0ef          	jal	ra,6846 <htonl>
    aaee:	404c                	lw	a1,4(s0)
    aaf0:	862a                	mv	a2,a0
    aaf2:	8526                	mv	a0,s1
    aaf4:	c84ff0ef          	jal	ra,9f78 <tcp_output_set_header.isra.0.constprop.1>
    aaf8:	241a                	lhu	a4,8(s0)
    aafa:	89aa                	mv	s3,a0
    aafc:	4699                	li	a3,6
    aafe:	864a                	mv	a2,s2
    ab00:	85a6                	mv	a1,s1
    ab02:	8522                	mv	a0,s0
    ab04:	125000ef          	jal	ra,b428 <inet_chksum_pseudo>
    ab08:	00a98823          	sb	a0,16(s3)
    ab0c:	8121                	srli	a0,a0,0x8
    ab0e:	00a988a3          	sb	a0,17(s3)
    ab12:	34b4                	lbu	a3,11(s1)
    ab14:	4799                	li	a5,6
    ab16:	4701                	li	a4,0
    ab18:	864a                	mv	a2,s2
    ab1a:	85a6                	mv	a1,s1
    ab1c:	8522                	mv	a0,s0
    ab1e:	998fc0ef          	jal	ra,6cb6 <ip_output>
    ab22:	8522                	mv	a0,s0
    ab24:	8e2fd0ef          	jal	ra,7c06 <pbuf_free>
    ab28:	a09f506f          	j	530 <__riscv_restore_4>

0000ab2c <tcp_zero_window_probe>:
    ab2c:	9d1f52ef          	jal	t0,4fc <__riscv_save_4>
    ab30:	08052403          	lw	s0,128(a0)
    ab34:	e019                	bnez	s0,ab3a <tcp_zero_window_probe+0xe>
    ab36:	5d60                	lw	s0,124(a0)
    ab38:	c45d                	beqz	s0,abe6 <tcp_zero_window_probe+0xba>
    ab3a:	481c                	lw	a5,16(s0)
    ab3c:	84aa                	mv	s1,a0
    ab3e:	27c8                	lbu	a0,12(a5)
    ab40:	37dc                	lbu	a5,13(a5)
    ab42:	07a2                	slli	a5,a5,0x8
    ab44:	8d5d                	or	a0,a0,a5
    ab46:	cf3fb0ef          	jal	ra,6838 <ntohs>
    ab4a:	8905                	andi	a0,a0,1
    ab4c:	cd59                	beqz	a0,abea <tcp_zero_window_probe+0xbe>
    ab4e:	245e                	lhu	a5,12(s0)
    ab50:	efc9                	bnez	a5,abea <tcp_zero_window_probe+0xbe>
    ab52:	4a05                	li	s4,1
    ab54:	45d1                	li	a1,20
    ab56:	4601                	li	a2,0
    ab58:	4505                	li	a0,1
    ab5a:	8fafd0ef          	jal	ra,7c54 <pbuf_alloc>
    ab5e:	892a                	mv	s2,a0
    ab60:	c159                	beqz	a0,abe6 <tcp_zero_window_probe+0xba>
    ab62:	4818                	lw	a4,16(s0)
    ab64:	414c                	lw	a1,4(a0)
    ab66:	8526                	mv	a0,s1
    ab68:	3350                	lbu	a2,5(a4)
    ab6a:	235c                	lbu	a5,4(a4)
    ab6c:	0622                	slli	a2,a2,0x8
    ab6e:	8e5d                	or	a2,a2,a5
    ab70:	237c                	lbu	a5,6(a4)
    ab72:	07c2                	slli	a5,a5,0x10
    ab74:	8fd1                	or	a5,a5,a2
    ab76:	3370                	lbu	a2,7(a4)
    ab78:	0662                	slli	a2,a2,0x18
    ab7a:	8e5d                	or	a2,a2,a5
    ab7c:	bfcff0ef          	jal	ra,9f78 <tcp_output_set_header.isra.0.constprop.1>
    ab80:	89aa                	mv	s3,a0
    ab82:	060a0763          	beqz	s4,abf0 <tcp_zero_window_probe+0xc4>
    ab86:	3540                	lbu	s0,13(a0)
    ab88:	255c                	lbu	a5,12(a0)
    ab8a:	6541                	lui	a0,0x10
    ab8c:	0422                	slli	s0,s0,0x8
    ab8e:	fc050513          	addi	a0,a0,-64 # ffc0 <_data_lma+0x32a0>
    ab92:	8c5d                	or	s0,s0,a5
    ab94:	c97fb0ef          	jal	ra,682a <htons>
    ab98:	8c69                	and	s0,s0,a0
    ab9a:	4545                	li	a0,17
    ab9c:	c8ffb0ef          	jal	ra,682a <htons>
    aba0:	8c49                	or	s0,s0,a0
    aba2:	01041793          	slli	a5,s0,0x10
    aba6:	83c1                	srli	a5,a5,0x10
    aba8:	00f98623          	sb	a5,12(s3)
    abac:	83a1                	srli	a5,a5,0x8
    abae:	00f986a3          	sb	a5,13(s3)
    abb2:	00895703          	lhu	a4,8(s2)
    abb6:	00448413          	addi	s0,s1,4
    abba:	4699                	li	a3,6
    abbc:	8622                	mv	a2,s0
    abbe:	85a6                	mv	a1,s1
    abc0:	854a                	mv	a0,s2
    abc2:	067000ef          	jal	ra,b428 <inet_chksum_pseudo>
    abc6:	00a98823          	sb	a0,16(s3)
    abca:	8121                	srli	a0,a0,0x8
    abcc:	00a988a3          	sb	a0,17(s3)
    abd0:	34b4                	lbu	a3,11(s1)
    abd2:	4799                	li	a5,6
    abd4:	4701                	li	a4,0
    abd6:	8622                	mv	a2,s0
    abd8:	85a6                	mv	a1,s1
    abda:	854a                	mv	a0,s2
    abdc:	8dafc0ef          	jal	ra,6cb6 <ip_output>
    abe0:	854a                	mv	a0,s2
    abe2:	824fd0ef          	jal	ra,7c06 <pbuf_free>
    abe6:	94bf506f          	j	530 <__riscv_restore_4>
    abea:	4a01                	li	s4,0
    abec:	45d5                	li	a1,21
    abee:	b7a5                	j	ab56 <tcp_zero_window_probe+0x2a>
    abf0:	4418                	lw	a4,8(s0)
    abf2:	00492783          	lw	a5,4(s2)
    abf6:	00070703          	lb	a4,0(a4)
    abfa:	abd8                	sb	a4,20(a5)
    abfc:	bf5d                	j	abb2 <tcp_zero_window_probe+0x86>

0000abfe <udp_input>:
    abfe:	8e9f52ef          	jal	t0,4e6 <__riscv_save_12>
    ac02:	4140                	lw	s0,4(a0)
    ac04:	2506                	lhu	s1,8(a0)
    ac06:	892a                	mv	s2,a0
    ac08:	301c                	lbu	a5,1(s0)
    ac0a:	2008                	lbu	a0,0(s0)
    ac0c:	1141                	addi	sp,sp,-16
    ac0e:	07a2                	slli	a5,a5,0x8
    ac10:	8d5d                	or	a0,a0,a5
    ac12:	8a2e                	mv	s4,a1
    ac14:	c25fb0ef          	jal	ra,6838 <ntohs>
    ac18:	8121                	srli	a0,a0,0x8
    ac1a:	893d                	andi	a0,a0,15
    ac1c:	0509                	addi	a0,a0,2
    ac1e:	050a                	slli	a0,a0,0x2
    ac20:	02a4c263          	blt	s1,a0,ac44 <udp_input+0x46>
    ac24:	301c                	lbu	a5,1(s0)
    ac26:	2008                	lbu	a0,0(s0)
    ac28:	07a2                	slli	a5,a5,0x8
    ac2a:	8d5d                	or	a0,a0,a5
    ac2c:	c0dfb0ef          	jal	ra,6838 <ntohs>
    ac30:	00655593          	srli	a1,a0,0x6
    ac34:	03c5f593          	andi	a1,a1,60
    ac38:	40b005b3          	neg	a1,a1
    ac3c:	854a                	mv	a0,s2
    ac3e:	f5bfc0ef          	jal	ra,7b98 <pbuf_header>
    ac42:	c519                	beqz	a0,ac50 <udp_input+0x52>
    ac44:	854a                	mv	a0,s2
    ac46:	fc1fc0ef          	jal	ra,7c06 <pbuf_free>
    ac4a:	0141                	addi	sp,sp,16
    ac4c:	8d7f506f          	j	522 <__riscv_restore_12>
    ac50:	00492a83          	lw	s5,4(s2)
    ac54:	01040c13          	addi	s8,s0,16
    ac58:	85d2                	mv	a1,s4
    ac5a:	8562                	mv	a0,s8
    ac5c:	890fc0ef          	jal	ra,6cec <ip_addr_isbroadcast>
    ac60:	001ac783          	lbu	a5,1(s5)
    ac64:	8b2a                	mv	s6,a0
    ac66:	000ac503          	lbu	a0,0(s5)
    ac6a:	07a2                	slli	a5,a5,0x8
    ac6c:	8d5d                	or	a0,a0,a5
    ac6e:	bcbfb0ef          	jal	ra,6838 <ntohs>
    ac72:	003ac783          	lbu	a5,3(s5)
    ac76:	8baa                	mv	s7,a0
    ac78:	002ac503          	lbu	a0,2(s5)
    ac7c:	07a2                	slli	a5,a5,0x8
    ac7e:	8d5d                	or	a0,a0,a5
    ac80:	bb9fb0ef          	jal	ra,6838 <ntohs>
    ac84:	04400793          	li	a5,68
    ac88:	86aa                	mv	a3,a0
    ac8a:	06f51d63          	bne	a0,a5,ad04 <udp_input+0x106>
    ac8e:	04300793          	li	a5,67
    ac92:	12fb9963          	bne	s7,a5,adc4 <udp_input+0x1c6>
    ac96:	020a2783          	lw	a5,32(s4)
    ac9a:	12078563          	beqz	a5,adc4 <udp_input+0x1c6>
    ac9e:	43c4                	lw	s1,4(a5)
    aca0:	12048263          	beqz	s1,adc4 <udp_input+0x1c6>
    aca4:	40d4                	lw	a3,4(s1)
    aca6:	ce89                	beqz	a3,acc0 <udp_input+0xc2>
    aca8:	3458                	lbu	a4,13(s0)
    acaa:	245c                	lbu	a5,12(s0)
    acac:	0722                	slli	a4,a4,0x8
    acae:	8f5d                	or	a4,a4,a5
    acb0:	247c                	lbu	a5,14(s0)
    acb2:	07c2                	slli	a5,a5,0x10
    acb4:	8f5d                	or	a4,a4,a5
    acb6:	347c                	lbu	a5,15(s0)
    acb8:	07e2                	slli	a5,a5,0x18
    acba:	8fd9                	or	a5,a5,a4
    acbc:	10f69463          	bne	a3,a5,adc4 <udp_input+0x1c6>
    acc0:	007ac783          	lbu	a5,7(s5)
    acc4:	006ac703          	lbu	a4,6(s5)
    acc8:	07a2                	slli	a5,a5,0x8
    acca:	8fd9                	or	a5,a5,a4
    accc:	cb99                	beqz	a5,ace2 <udp_input+0xe4>
    acce:	00895703          	lhu	a4,8(s2)
    acd2:	46c5                	li	a3,17
    acd4:	8662                	mv	a2,s8
    acd6:	00c40593          	addi	a1,s0,12
    acda:	854a                	mv	a0,s2
    acdc:	74c000ef          	jal	ra,b428 <inet_chksum_pseudo>
    ace0:	f135                	bnez	a0,ac44 <udp_input+0x46>
    ace2:	55e1                	li	a1,-8
    ace4:	854a                	mv	a0,s2
    ace6:	eb3fc0ef          	jal	ra,7b98 <pbuf_header>
    acea:	fd29                	bnez	a0,ac44 <udp_input+0x46>
    acec:	0e048c63          	beqz	s1,ade4 <udp_input+0x1e6>
    acf0:	4c9c                	lw	a5,24(s1)
    acf2:	dba9                	beqz	a5,ac44 <udp_input+0x46>
    acf4:	4cc8                	lw	a0,28(s1)
    acf6:	875e                	mv	a4,s7
    acf8:	00c40693          	addi	a3,s0,12
    acfc:	864a                	mv	a2,s2
    acfe:	85a6                	mv	a1,s1
    ad00:	9782                	jalr	a5
    ad02:	b7a1                	j	ac4a <udp_input+0x4c>
    ad04:	a1c1a483          	lw	s1,-1508(gp) # 2000031c <udp_pcbs>
    ad08:	4d01                	li	s10,0
    ad0a:	4d81                	li	s11,0
    ad0c:	a1c18c93          	addi	s9,gp,-1508 # 2000031c <udp_pcbs>
    ad10:	76c00613          	li	a2,1900
    ad14:	e489                	bnez	s1,ad1e <udp_input+0x120>
    ad16:	0a0d0763          	beqz	s10,adc4 <udp_input+0x1c6>
    ad1a:	84ea                	mv	s1,s10
    ad1c:	b755                	j	acc0 <udp_input+0xc2>
    ad1e:	28be                	lhu	a5,18(s1)
    ad20:	08d79c63          	bne	a5,a3,adb8 <udp_input+0x1ba>
    ad24:	4098                	lw	a4,0(s1)
    ad26:	040b1563          	bnez	s6,ad70 <udp_input+0x172>
    ad2a:	e339                	bnez	a4,ad70 <udp_input+0x172>
    ad2c:	000d1663          	bnez	s10,ad38 <udp_input+0x13a>
    ad30:	289c                	lbu	a5,16(s1)
    ad32:	8b91                	andi	a5,a5,4
    ad34:	e391                	bnez	a5,ad38 <udp_input+0x13a>
    ad36:	8d26                	mv	s10,s1
    ad38:	28de                	lhu	a5,20(s1)
    ad3a:	09779263          	bne	a5,s7,adbe <udp_input+0x1c0>
    ad3e:	40cc                	lw	a1,4(s1)
    ad40:	cd89                	beqz	a1,ad5a <udp_input+0x15c>
    ad42:	3458                	lbu	a4,13(s0)
    ad44:	245c                	lbu	a5,12(s0)
    ad46:	0722                	slli	a4,a4,0x8
    ad48:	8f5d                	or	a4,a4,a5
    ad4a:	247c                	lbu	a5,14(s0)
    ad4c:	07c2                	slli	a5,a5,0x10
    ad4e:	8f5d                	or	a4,a4,a5
    ad50:	347c                	lbu	a5,15(s0)
    ad52:	07e2                	slli	a5,a5,0x18
    ad54:	8fd9                	or	a5,a5,a4
    ad56:	06f59463          	bne	a1,a5,adbe <udp_input+0x1c0>
    ad5a:	f60d83e3          	beqz	s11,acc0 <udp_input+0xc2>
    ad5e:	44dc                	lw	a5,12(s1)
    ad60:	00fda623          	sw	a5,12(s11)
    ad64:	000ca783          	lw	a5,0(s9)
    ad68:	009ca023          	sw	s1,0(s9)
    ad6c:	c4dc                	sw	a5,12(s1)
    ad6e:	bf89                	j	acc0 <udp_input+0xc2>
    ad70:	381c                	lbu	a5,17(s0)
    ad72:	01044983          	lbu	s3,16(s0)
    ad76:	07a2                	slli	a5,a5,0x8
    ad78:	0137e7b3          	or	a5,a5,s3
    ad7c:	01244983          	lbu	s3,18(s0)
    ad80:	09c2                	slli	s3,s3,0x10
    ad82:	00f9e7b3          	or	a5,s3,a5
    ad86:	01344983          	lbu	s3,19(s0)
    ad8a:	09e2                	slli	s3,s3,0x18
    ad8c:	00f9e9b3          	or	s3,s3,a5
    ad90:	f8e98ee3          	beq	s3,a4,ad2c <udp_input+0x12e>
    ad94:	f0000537          	lui	a0,0xf0000
    ad98:	c636                	sw	a3,12(sp)
    ad9a:	ad1fb0ef          	jal	ra,686a <ntohl>
    ad9e:	00a9f9b3          	and	s3,s3,a0
    ada2:	e0000537          	lui	a0,0xe0000
    ada6:	ac5fb0ef          	jal	ra,686a <ntohl>
    adaa:	46b2                	lw	a3,12(sp)
    adac:	76c00613          	li	a2,1900
    adb0:	f6a98ee3          	beq	s3,a0,ad2c <udp_input+0x12e>
    adb4:	f60b1ce3          	bnez	s6,ad2c <udp_input+0x12e>
    adb8:	8da6                	mv	s11,s1
    adba:	44c4                	lw	s1,12(s1)
    adbc:	bfa1                	j	ad14 <udp_input+0x116>
    adbe:	fec69de3          	bne	a3,a2,adb8 <udp_input+0x1ba>
    adc2:	bdfd                	j	acc0 <udp_input+0xc2>
    adc4:	3818                	lbu	a4,17(s0)
    adc6:	281c                	lbu	a5,16(s0)
    adc8:	0722                	slli	a4,a4,0x8
    adca:	8f5d                	or	a4,a4,a5
    adcc:	283c                	lbu	a5,18(s0)
    adce:	07c2                	slli	a5,a5,0x10
    add0:	8f5d                	or	a4,a4,a5
    add2:	383c                	lbu	a5,19(s0)
    add4:	07e2                	slli	a5,a5,0x18
    add6:	8fd9                	or	a5,a5,a4
    add8:	004a2703          	lw	a4,4(s4)
    addc:	e6f714e3          	bne	a4,a5,ac44 <udp_input+0x46>
    ade0:	4481                	li	s1,0
    ade2:	bdf9                	j	acc0 <udp_input+0xc2>
    ade4:	e60b10e3          	bnez	s6,ac44 <udp_input+0x46>
    ade8:	381c                	lbu	a5,17(s0)
    adea:	2804                	lbu	s1,16(s0)
    adec:	f0000537          	lui	a0,0xf0000
    adf0:	07a2                	slli	a5,a5,0x8
    adf2:	8fc5                	or	a5,a5,s1
    adf4:	2824                	lbu	s1,18(s0)
    adf6:	04c2                	slli	s1,s1,0x10
    adf8:	8fc5                	or	a5,a5,s1
    adfa:	3824                	lbu	s1,19(s0)
    adfc:	04e2                	slli	s1,s1,0x18
    adfe:	8cdd                	or	s1,s1,a5
    ae00:	a6bfb0ef          	jal	ra,686a <ntohl>
    ae04:	8ce9                	and	s1,s1,a0
    ae06:	e0000537          	lui	a0,0xe0000
    ae0a:	a61fb0ef          	jal	ra,686a <ntohl>
    ae0e:	e2a48be3          	beq	s1,a0,ac44 <udp_input+0x46>
    ae12:	301c                	lbu	a5,1(s0)
    ae14:	2008                	lbu	a0,0(s0)
    ae16:	07a2                	slli	a5,a5,0x8
    ae18:	8d5d                	or	a0,a0,a5
    ae1a:	a1ffb0ef          	jal	ra,6838 <ntohs>
    ae1e:	00855593          	srli	a1,a0,0x8
    ae22:	89bd                	andi	a1,a1,15
    ae24:	0589                	addi	a1,a1,2
    ae26:	058a                	slli	a1,a1,0x2
    ae28:	854a                	mv	a0,s2
    ae2a:	d6ffc0ef          	jal	ra,7b98 <pbuf_header>
    ae2e:	458d                	li	a1,3
    ae30:	854a                	mv	a0,s2
    ae32:	2b81                	jal	b382 <icmp_dest_unreach>
    ae34:	bd01                	j	ac44 <udp_input+0x46>

0000ae36 <udp_bind>:
    ae36:	a1c1a883          	lw	a7,-1508(gp) # 2000031c <udp_pcbs>
    ae3a:	86aa                	mv	a3,a0
    ae3c:	4301                	li	t1,0
    ae3e:	87c6                	mv	a5,a7
    ae40:	a1c18813          	addi	a6,gp,-1508 # 2000031c <udp_pcbs>
    ae44:	e79d                	bnez	a5,ae72 <udp_bind+0x3c>
    ae46:	c999                	beqz	a1,ae5c <udp_bind+0x26>
    ae48:	3198                	lbu	a4,1(a1)
    ae4a:	219c                	lbu	a5,0(a1)
    ae4c:	0722                	slli	a4,a4,0x8
    ae4e:	8f5d                	or	a4,a4,a5
    ae50:	21bc                	lbu	a5,2(a1)
    ae52:	07c2                	slli	a5,a5,0x10
    ae54:	8f5d                	or	a4,a4,a5
    ae56:	31bc                	lbu	a5,3(a1)
    ae58:	07e2                	slli	a5,a5,0x18
    ae5a:	8fd9                	or	a5,a5,a4
    ae5c:	c29c                	sw	a5,0(a3)
    ae5e:	c625                	beqz	a2,aec6 <udp_bind+0x90>
    ae60:	aab2                	sh	a2,18(a3)
    ae62:	4501                	li	a0,0
    ae64:	00031663          	bnez	t1,ae70 <udp_bind+0x3a>
    ae68:	0116a623          	sw	a7,12(a3)
    ae6c:	00d82023          	sw	a3,0(a6)
    ae70:	8082                	ret
    ae72:	02d78b63          	beq	a5,a3,aea8 <udp_bind+0x72>
    ae76:	2bba                	lhu	a4,18(a5)
    ae78:	02c71663          	bne	a4,a2,aea4 <udp_bind+0x6e>
    ae7c:	0007ae03          	lw	t3,0(a5) # 5000 <SocketUdpReceive+0x1a>
    ae80:	000e1463          	bnez	t3,ae88 <udp_bind+0x52>
    ae84:	5555                	li	a0,-11
    ae86:	8082                	ret
    ae88:	ddf5                	beqz	a1,ae84 <udp_bind+0x4e>
    ae8a:	3188                	lbu	a0,1(a1)
    ae8c:	2198                	lbu	a4,0(a1)
    ae8e:	0522                	slli	a0,a0,0x8
    ae90:	8d59                	or	a0,a0,a4
    ae92:	21b8                	lbu	a4,2(a1)
    ae94:	0742                	slli	a4,a4,0x10
    ae96:	8d59                	or	a0,a0,a4
    ae98:	31b8                	lbu	a4,3(a1)
    ae9a:	0762                	slli	a4,a4,0x18
    ae9c:	8f49                	or	a4,a4,a0
    ae9e:	d37d                	beqz	a4,ae84 <udp_bind+0x4e>
    aea0:	feee02e3          	beq	t3,a4,ae84 <udp_bind+0x4e>
    aea4:	47dc                	lw	a5,12(a5)
    aea6:	bf79                	j	ae44 <udp_bind+0xe>
    aea8:	4305                	li	t1,1
    aeaa:	bfed                	j	aea4 <udp_bind+0x6e>
    aeac:	2bae                	lhu	a1,18(a5)
    aeae:	00c59a63          	bne	a1,a2,aec2 <udp_bind+0x8c>
    aeb2:	0605                	addi	a2,a2,1
    aeb4:	0642                	slli	a2,a2,0x10
    aeb6:	8241                	srli	a2,a2,0x10
    aeb8:	87c6                	mv	a5,a7
    aeba:	d3dd                	beqz	a5,ae60 <udp_bind+0x2a>
    aebc:	fee618e3          	bne	a2,a4,aeac <udp_bind+0x76>
    aec0:	b7d1                	j	ae84 <udp_bind+0x4e>
    aec2:	47dc                	lw	a5,12(a5)
    aec4:	bfdd                	j	aeba <udp_bind+0x84>
    aec6:	6721                	lui	a4,0x8
    aec8:	87c6                	mv	a5,a7
    aeca:	6605                	lui	a2,0x1
    aecc:	177d                	addi	a4,a4,-1
    aece:	b7f5                	j	aeba <udp_bind+0x84>

0000aed0 <udp_sendto_if>:
    aed0:	e2cf52ef          	jal	t0,4fc <__riscv_save_4>
    aed4:	293e                	lhu	a5,18(a0)
    aed6:	892a                	mv	s2,a0
    aed8:	89ae                	mv	s3,a1
    aeda:	8ab2                	mv	s5,a2
    aedc:	8b36                	mv	s6,a3
    aede:	8a3a                	mv	s4,a4
    aee0:	c7ad                	beqz	a5,af4a <udp_sendto_if+0x7a>
    aee2:	45a1                	li	a1,8
    aee4:	854e                	mv	a0,s3
    aee6:	cb3fc0ef          	jal	ra,7b98 <pbuf_header>
    aeea:	84ce                	mv	s1,s3
    aeec:	cd01                	beqz	a0,af04 <udp_sendto_if+0x34>
    aeee:	4601                	li	a2,0
    aef0:	45a1                	li	a1,8
    aef2:	4505                	li	a0,1
    aef4:	d61fc0ef          	jal	ra,7c54 <pbuf_alloc>
    aef8:	84aa                	mv	s1,a0
    aefa:	547d                	li	s0,-1
    aefc:	cd29                	beqz	a0,af56 <udp_sendto_if+0x86>
    aefe:	85ce                	mv	a1,s3
    af00:	f25fc0ef          	jal	ra,7e24 <pbuf_chain>
    af04:	01295503          	lhu	a0,18(s2)
    af08:	40c0                	lw	s0,4(s1)
    af0a:	921fb0ef          	jal	ra,682a <htons>
    af0e:	a008                	sb	a0,0(s0)
    af10:	8121                	srli	a0,a0,0x8
    af12:	b008                	sb	a0,1(s0)
    af14:	855a                	mv	a0,s6
    af16:	915fb0ef          	jal	ra,682a <htons>
    af1a:	00092783          	lw	a5,0(s2)
    af1e:	a028                	sb	a0,2(s0)
    af20:	8121                	srli	a0,a0,0x8
    af22:	b028                	sb	a0,3(s0)
    af24:	00040323          	sb	zero,6(s0)
    af28:	000403a3          	sb	zero,7(s0)
    af2c:	004a0b13          	addi	s6,s4,4
    af30:	c795                	beqz	a5,af5c <udp_sendto_if+0x8c>
    af32:	004a2703          	lw	a4,4(s4)
    af36:	8b4a                	mv	s6,s2
    af38:	02e78263          	beq	a5,a4,af5c <udp_sendto_if+0x8c>
    af3c:	545d                	li	s0,-9
    af3e:	01348c63          	beq	s1,s3,af56 <udp_sendto_if+0x86>
    af42:	8526                	mv	a0,s1
    af44:	cc3fc0ef          	jal	ra,7c06 <pbuf_free>
    af48:	a039                	j	af56 <udp_sendto_if+0x86>
    af4a:	4601                	li	a2,0
    af4c:	85aa                	mv	a1,a0
    af4e:	ee9ff0ef          	jal	ra,ae36 <udp_bind>
    af52:	842a                	mv	s0,a0
    af54:	d559                	beqz	a0,aee2 <udp_sendto_if+0x12>
    af56:	8522                	mv	a0,s0
    af58:	dd8f506f          	j	530 <__riscv_restore_4>
    af5c:	248a                	lhu	a0,8(s1)
    af5e:	8cdfb0ef          	jal	ra,682a <htons>
    af62:	a048                	sb	a0,4(s0)
    af64:	8121                	srli	a0,a0,0x8
    af66:	b048                	sb	a0,5(s0)
    af68:	01094783          	lbu	a5,16(s2)
    af6c:	8b85                	andi	a5,a5,1
    af6e:	eb99                	bnez	a5,af84 <udp_sendto_if+0xb4>
    af70:	249a                	lhu	a4,8(s1)
    af72:	46c5                	li	a3,17
    af74:	8656                	mv	a2,s5
    af76:	85da                	mv	a1,s6
    af78:	8526                	mv	a0,s1
    af7a:	217d                	jal	b428 <inet_chksum_pseudo>
    af7c:	c10d                	beqz	a0,af9e <udp_sendto_if+0xce>
    af7e:	a068                	sb	a0,6(s0)
    af80:	8121                	srli	a0,a0,0x8
    af82:	b068                	sb	a0,7(s0)
    af84:	00a94703          	lbu	a4,10(s2)
    af88:	00b94683          	lbu	a3,11(s2)
    af8c:	8852                	mv	a6,s4
    af8e:	47c5                	li	a5,17
    af90:	8656                	mv	a2,s5
    af92:	85da                	mv	a1,s6
    af94:	8526                	mv	a0,s1
    af96:	bc7fb0ef          	jal	ra,6b5c <ip_output_if>
    af9a:	842a                	mv	s0,a0
    af9c:	b74d                	j	af3e <udp_sendto_if+0x6e>
    af9e:	57fd                	li	a5,-1
    afa0:	a07c                	sb	a5,6(s0)
    afa2:	b07c                	sb	a5,7(s0)
    afa4:	b7c5                	j	af84 <udp_sendto_if+0xb4>

0000afa6 <udp_sendto>:
    afa6:	d70f52ef          	jal	t0,516 <__riscv_save_0>
    afaa:	1141                	addi	sp,sp,-16
    afac:	842a                	mv	s0,a0
    afae:	8532                	mv	a0,a2
    afb0:	c62e                	sw	a1,12(sp)
    afb2:	c436                	sw	a3,8(sp)
    afb4:	c232                	sw	a2,4(sp)
    afb6:	8c1fb0ef          	jal	ra,6876 <ip_route>
    afba:	c919                	beqz	a0,afd0 <udp_sendto+0x2a>
    afbc:	46a2                	lw	a3,8(sp)
    afbe:	4612                	lw	a2,4(sp)
    afc0:	45b2                	lw	a1,12(sp)
    afc2:	872a                	mv	a4,a0
    afc4:	8522                	mv	a0,s0
    afc6:	f0bff0ef          	jal	ra,aed0 <udp_sendto_if>
    afca:	0141                	addi	sp,sp,16
    afcc:	d6ef506f          	j	53a <__riscv_restore_0>
    afd0:	5571                	li	a0,-4
    afd2:	bfe5                	j	afca <udp_sendto+0x24>

0000afd4 <udp_send>:
    afd4:	d42f52ef          	jal	t0,516 <__riscv_save_0>
    afd8:	2956                	lhu	a3,20(a0)
    afda:	00450613          	addi	a2,a0,4 # e0000004 <__freertos_irq_stack_top+0xbfff0004>
    afde:	fc9ff0ef          	jal	ra,afa6 <udp_sendto>
    afe2:	d58f506f          	j	53a <__riscv_restore_0>

0000afe6 <udp_connect>:
    afe6:	d30f52ef          	jal	t0,516 <__riscv_save_0>
    afea:	293e                	lhu	a5,18(a0)
    afec:	842a                	mv	s0,a0
    afee:	84ae                	mv	s1,a1
    aff0:	8932                	mv	s2,a2
    aff2:	cbb1                	beqz	a5,b046 <udp_connect+0x60>
    aff4:	4781                	li	a5,0
    aff6:	c899                	beqz	s1,b00c <udp_connect+0x26>
    aff8:	3098                	lbu	a4,1(s1)
    affa:	209c                	lbu	a5,0(s1)
    affc:	0722                	slli	a4,a4,0x8
    affe:	8f5d                	or	a4,a4,a5
    b000:	20bc                	lbu	a5,2(s1)
    b002:	07c2                	slli	a5,a5,0x10
    b004:	8f5d                	or	a4,a4,a5
    b006:	30bc                	lbu	a5,3(s1)
    b008:	07e2                	slli	a5,a5,0x18
    b00a:	8fd9                	or	a5,a5,a4
    b00c:	2818                	lbu	a4,16(s0)
    b00e:	c05c                	sw	a5,4(s0)
    b010:	01241a23          	sh	s2,20(s0)
    b014:	00476713          	ori	a4,a4,4
    b018:	a818                	sb	a4,16(s0)
    b01a:	4018                	lw	a4,0(s0)
    b01c:	ef05                	bnez	a4,b054 <udp_connect+0x6e>
    b01e:	cf85                	beqz	a5,b056 <udp_connect+0x70>
    b020:	00440513          	addi	a0,s0,4
    b024:	853fb0ef          	jal	ra,6876 <ip_route>
    b028:	87aa                	mv	a5,a0
    b02a:	5571                	li	a0,-4
    b02c:	c395                	beqz	a5,b050 <udp_connect+0x6a>
    b02e:	43dc                	lw	a5,4(a5)
    b030:	c01c                	sw	a5,0(s0)
    b032:	a1c1a683          	lw	a3,-1508(gp) # 2000031c <udp_pcbs>
    b036:	a1c18793          	addi	a5,gp,-1508 # 2000031c <udp_pcbs>
    b03a:	8736                	mv	a4,a3
    b03c:	e305                	bnez	a4,b05c <udp_connect+0x76>
    b03e:	c454                	sw	a3,12(s0)
    b040:	c380                	sw	s0,0(a5)
    b042:	4501                	li	a0,0
    b044:	a031                	j	b050 <udp_connect+0x6a>
    b046:	4601                	li	a2,0
    b048:	85aa                	mv	a1,a0
    b04a:	dedff0ef          	jal	ra,ae36 <udp_bind>
    b04e:	d15d                	beqz	a0,aff4 <udp_connect+0xe>
    b050:	ceaf506f          	j	53a <__riscv_restore_0>
    b054:	fff9                	bnez	a5,b032 <udp_connect+0x4c>
    b056:	00042023          	sw	zero,0(s0)
    b05a:	bfe1                	j	b032 <udp_connect+0x4c>
    b05c:	fe8703e3          	beq	a4,s0,b042 <udp_connect+0x5c>
    b060:	4758                	lw	a4,12(a4)
    b062:	bfe9                	j	b03c <udp_connect+0x56>

0000b064 <udp_recv>:
    b064:	cd0c                	sw	a1,24(a0)
    b066:	cd50                	sw	a2,28(a0)
    b068:	8082                	ret

0000b06a <udp_remove>:
    b06a:	cacf52ef          	jal	t0,516 <__riscv_save_0>
    b06e:	a1c18713          	addi	a4,gp,-1508 # 2000031c <udp_pcbs>
    b072:	431c                	lw	a5,0(a4)
    b074:	85aa                	mv	a1,a0
    b076:	02a79063          	bne	a5,a0,b096 <udp_remove+0x2c>
    b07a:	455c                	lw	a5,12(a0)
    b07c:	c31c                	sw	a5,0(a4)
    b07e:	4505                	li	a0,1
    b080:	9b5fc0ef          	jal	ra,7a34 <memp_free>
    b084:	cb6f506f          	j	53a <__riscv_restore_0>
    b088:	47d8                	lw	a4,12(a5)
    b08a:	c709                	beqz	a4,b094 <udp_remove+0x2a>
    b08c:	00b71463          	bne	a4,a1,b094 <udp_remove+0x2a>
    b090:	45d8                	lw	a4,12(a1)
    b092:	c7d8                	sw	a4,12(a5)
    b094:	47dc                	lw	a5,12(a5)
    b096:	fbed                	bnez	a5,b088 <udp_remove+0x1e>
    b098:	b7dd                	j	b07e <udp_remove+0x14>

0000b09a <udp_new>:
    b09a:	c7cf52ef          	jal	t0,516 <__riscv_save_0>
    b09e:	4505                	li	a0,1
    b0a0:	975fc0ef          	jal	ra,7a14 <memp_malloc>
    b0a4:	842a                	mv	s0,a0
    b0a6:	c909                	beqz	a0,b0b8 <udp_new+0x1e>
    b0a8:	02000613          	li	a2,32
    b0ac:	4581                	li	a1,0
    b0ae:	c98f50ef          	jal	ra,546 <memset>
    b0b2:	f8000793          	li	a5,-128
    b0b6:	b43c                	sb	a5,11(s0)
    b0b8:	8522                	mv	a0,s0
    b0ba:	c80f506f          	j	53a <__riscv_restore_0>

0000b0be <icmp_send_response.isra.0>:
    b0be:	c3ef52ef          	jal	t0,4fc <__riscv_save_4>
    b0c2:	842a                	mv	s0,a0
    b0c4:	8a2e                	mv	s4,a1
    b0c6:	89b2                	mv	s3,a2
    b0c8:	02400593          	li	a1,36
    b0cc:	4601                	li	a2,0
    b0ce:	4505                	li	a0,1
    b0d0:	b85fc0ef          	jal	ra,7c54 <pbuf_alloc>
    b0d4:	cd29                	beqz	a0,b12e <icmp_send_response.isra.0+0x70>
    b0d6:	00042903          	lw	s2,0(s0)
    b0da:	4140                	lw	s0,4(a0)
    b0dc:	84aa                	mv	s1,a0
    b0de:	4671                	li	a2,28
    b0e0:	85ca                	mv	a1,s2
    b0e2:	01440023          	sb	s4,0(s0)
    b0e6:	013400a3          	sb	s3,1(s0)
    b0ea:	00040223          	sb	zero,4(s0)
    b0ee:	000402a3          	sb	zero,5(s0)
    b0f2:	00040323          	sb	zero,6(s0)
    b0f6:	000403a3          	sb	zero,7(s0)
    b0fa:	00840513          	addi	a0,s0,8
    b0fe:	29e1                	jal	b5d6 <memcpy>
    b100:	24ae                	lhu	a1,10(s1)
    b102:	00040123          	sb	zero,2(s0)
    b106:	000401a3          	sb	zero,3(s0)
    b10a:	8522                	mv	a0,s0
    b10c:	211d                	jal	b532 <inet_chksum>
    b10e:	a028                	sb	a0,2(s0)
    b110:	8121                	srli	a0,a0,0x8
    b112:	b028                	sb	a0,3(s0)
    b114:	4785                	li	a5,1
    b116:	4701                	li	a4,0
    b118:	08000693          	li	a3,128
    b11c:	00c90613          	addi	a2,s2,12
    b120:	4581                	li	a1,0
    b122:	8526                	mv	a0,s1
    b124:	b93fb0ef          	jal	ra,6cb6 <ip_output>
    b128:	8526                	mv	a0,s1
    b12a:	addfc0ef          	jal	ra,7c06 <pbuf_free>
    b12e:	c02f506f          	j	530 <__riscv_restore_4>

0000b132 <icmp_input>:
    b132:	bbcf52ef          	jal	t0,4ee <__riscv_save_10>
    b136:	4140                	lw	s0,4(a0)
    b138:	84aa                	mv	s1,a0
    b13a:	1141                	addi	sp,sp,-16
    b13c:	301c                	lbu	a5,1(s0)
    b13e:	2008                	lbu	a0,0(s0)
    b140:	89ae                	mv	s3,a1
    b142:	07a2                	slli	a5,a5,0x8
    b144:	8d5d                	or	a0,a0,a5
    b146:	ef2fb0ef          	jal	ra,6838 <ntohs>
    b14a:	00655913          	srli	s2,a0,0x6
    b14e:	03c97913          	andi	s2,s2,60
    b152:	41200ab3          	neg	s5,s2
    b156:	0ac2                	slli	s5,s5,0x10
    b158:	410ada93          	srai	s5,s5,0x10
    b15c:	85d6                	mv	a1,s5
    b15e:	8526                	mv	a0,s1
    b160:	a39fc0ef          	jal	ra,7b98 <pbuf_header>
    b164:	e139                	bnez	a0,b1aa <icmp_input+0x78>
    b166:	249e                	lhu	a5,8(s1)
    b168:	468d                	li	a3,3
    b16a:	04f6f063          	bgeu	a3,a5,b1aa <icmp_input+0x78>
    b16e:	40dc                	lw	a5,4(s1)
    b170:	2398                	lbu	a4,0(a5)
    b172:	04d71263          	bne	a4,a3,b1b6 <icmp_input+0x84>
    b176:	2798                	lbu	a4,8(a5)
    b178:	00878693          	addi	a3,a5,8
    b17c:	3f88                	lbu	a0,25(a5)
    b17e:	8b3d                	andi	a4,a4,15
    b180:	070a                	slli	a4,a4,0x2
    b182:	9736                	add	a4,a4,a3
    b184:	232c                	lbu	a1,2(a4)
    b186:	00374803          	lbu	a6,3(a4) # 8003 <raw_send+0x7>
    b18a:	2f98                	lbu	a4,24(a5)
    b18c:	0522                	slli	a0,a0,0x8
    b18e:	3394                	lbu	a3,1(a5)
    b190:	8d59                	or	a0,a0,a4
    b192:	2fb8                	lbu	a4,26(a5)
    b194:	3b90                	lbu	a2,17(a5)
    b196:	05a2                	slli	a1,a1,0x8
    b198:	0742                	slli	a4,a4,0x10
    b19a:	8f49                	or	a4,a4,a0
    b19c:	3fa8                	lbu	a0,27(a5)
    b19e:	0105e5b3          	or	a1,a1,a6
    b1a2:	0562                	slli	a0,a0,0x18
    b1a4:	8d59                	or	a0,a0,a4
    b1a6:	d19fa0ef          	jal	ra,5ebe <LwipUnreachPort>
    b1aa:	8526                	mv	a0,s1
    b1ac:	a5bfc0ef          	jal	ra,7c06 <pbuf_free>
    b1b0:	0141                	addi	sp,sp,16
    b1b2:	b74f506f          	j	526 <__riscv_restore_10>
    b1b6:	47a1                	li	a5,8
    b1b8:	fef719e3          	bne	a4,a5,b1aa <icmp_input+0x78>
    b1bc:	381c                	lbu	a5,17(s0)
    b1be:	01044a03          	lbu	s4,16(s0)
    b1c2:	f0000537          	lui	a0,0xf0000
    b1c6:	07a2                	slli	a5,a5,0x8
    b1c8:	0147e7b3          	or	a5,a5,s4
    b1cc:	01244a03          	lbu	s4,18(s0)
    b1d0:	4b01                	li	s6,0
    b1d2:	0a42                	slli	s4,s4,0x10
    b1d4:	00fa67b3          	or	a5,s4,a5
    b1d8:	01344a03          	lbu	s4,19(s0)
    b1dc:	0a62                	slli	s4,s4,0x18
    b1de:	00fa6a33          	or	s4,s4,a5
    b1e2:	e88fb0ef          	jal	ra,686a <ntohl>
    b1e6:	8c2a                	mv	s8,a0
    b1e8:	e0000537          	lui	a0,0xe0000
    b1ec:	e7efb0ef          	jal	ra,686a <ntohl>
    b1f0:	8baa                	mv	s7,a0
    b1f2:	85ce                	mv	a1,s3
    b1f4:	01040513          	addi	a0,s0,16
    b1f8:	af5fb0ef          	jal	ra,6cec <ip_addr_isbroadcast>
    b1fc:	e519                	bnez	a0,b20a <icmp_input+0xd8>
    b1fe:	018a7533          	and	a0,s4,s8
    b202:	41750533          	sub	a0,a0,s7
    b206:	00a03b33          	snez	s6,a0
    b20a:	ca7fa0ef          	jal	ra,5eb0 <QueryPingEnable>
    b20e:	dd51                	beqz	a0,b1aa <icmp_input+0x78>
    b210:	f80b0de3          	beqz	s6,b1aa <icmp_input+0x78>
    b214:	249a                	lhu	a4,8(s1)
    b216:	479d                	li	a5,7
    b218:	f8e7f9e3          	bgeu	a5,a4,b1aa <icmp_input+0x78>
    b21c:	8526                	mv	a0,s1
    b21e:	2625                	jal	b546 <inet_chksum_pbuf>
    b220:	f549                	bnez	a0,b1aa <icmp_input+0x78>
    b222:	0942                	slli	s2,s2,0x10
    b224:	02200593          	li	a1,34
    b228:	8526                	mv	a0,s1
    b22a:	41095913          	srai	s2,s2,0x10
    b22e:	96bfc0ef          	jal	ra,7b98 <pbuf_header>
    b232:	12050463          	beqz	a0,b35a <icmp_input+0x228>
    b236:	85ca                	mv	a1,s2
    b238:	8526                	mv	a0,s1
    b23a:	95ffc0ef          	jal	ra,7b98 <pbuf_header>
    b23e:	f535                	bnez	a0,b1aa <icmp_input+0x78>
    b240:	248e                	lhu	a1,8(s1)
    b242:	4601                	li	a2,0
    b244:	4509                	li	a0,2
    b246:	a0ffc0ef          	jal	ra,7c54 <pbuf_alloc>
    b24a:	8a2a                	mv	s4,a0
    b24c:	dd39                	beqz	a0,b1aa <icmp_input+0x78>
    b24e:	85a6                	mv	a1,s1
    b250:	be9fc0ef          	jal	ra,7e38 <pbuf_copy>
    b254:	f939                	bnez	a0,b1aa <icmp_input+0x78>
    b256:	85d6                	mv	a1,s5
    b258:	8552                	mv	a0,s4
    b25a:	004a2403          	lw	s0,4(s4)
    b25e:	93bfc0ef          	jal	ra,7b98 <pbuf_header>
    b262:	f521                	bnez	a0,b1aa <icmp_input+0x78>
    b264:	8526                	mv	a0,s1
    b266:	9a1fc0ef          	jal	ra,7c06 <pbuf_free>
    b26a:	84d2                	mv	s1,s4
    b26c:	3458                	lbu	a4,13(s0)
    b26e:	245c                	lbu	a5,12(s0)
    b270:	3814                	lbu	a3,17(s0)
    b272:	0722                	slli	a4,a4,0x8
    b274:	8f5d                	or	a4,a4,a5
    b276:	247c                	lbu	a5,14(s0)
    b278:	06a2                	slli	a3,a3,0x8
    b27a:	0044aa03          	lw	s4,4(s1)
    b27e:	07c2                	slli	a5,a5,0x10
    b280:	8f5d                	or	a4,a4,a5
    b282:	347c                	lbu	a5,15(s0)
    b284:	653d                	lui	a0,0xf
    b286:	7ff50513          	addi	a0,a0,2047 # f7ff <_data_lma+0x2adf>
    b28a:	07e2                	slli	a5,a5,0x18
    b28c:	8fd9                	or	a5,a5,a4
    b28e:	2818                	lbu	a4,16(s0)
    b290:	a81c                	sb	a5,16(s0)
    b292:	8ed9                	or	a3,a3,a4
    b294:	2838                	lbu	a4,18(s0)
    b296:	0742                	slli	a4,a4,0x10
    b298:	8ed9                	or	a3,a3,a4
    b29a:	3838                	lbu	a4,19(s0)
    b29c:	0762                	slli	a4,a4,0x18
    b29e:	8f55                	or	a4,a4,a3
    b2a0:	00875693          	srli	a3,a4,0x8
    b2a4:	a458                	sb	a4,12(s0)
    b2a6:	b454                	sb	a3,13(s0)
    b2a8:	01075693          	srli	a3,a4,0x10
    b2ac:	8361                	srli	a4,a4,0x18
    b2ae:	b478                	sb	a4,15(s0)
    b2b0:	0087d713          	srli	a4,a5,0x8
    b2b4:	b818                	sb	a4,17(s0)
    b2b6:	0107d713          	srli	a4,a5,0x10
    b2ba:	83e1                	srli	a5,a5,0x18
    b2bc:	a474                	sb	a3,14(s0)
    b2be:	a838                	sb	a4,18(s0)
    b2c0:	b83c                	sb	a5,19(s0)
    b2c2:	003a4a83          	lbu	s5,3(s4)
    b2c6:	002a4783          	lbu	a5,2(s4)
    b2ca:	000a0023          	sb	zero,0(s4)
    b2ce:	0aa2                	slli	s5,s5,0x8
    b2d0:	00faeab3          	or	s5,s5,a5
    b2d4:	d56fb0ef          	jal	ra,682a <htons>
    b2d8:	08aae963          	bltu	s5,a0,b36a <icmp_input+0x238>
    b2dc:	6505                	lui	a0,0x1
    b2de:	80050513          	addi	a0,a0,-2048 # 800 <__stack_size>
    b2e2:	d48fb0ef          	jal	ra,682a <htons>
    b2e6:	003a4783          	lbu	a5,3(s4)
    b2ea:	002a4703          	lbu	a4,2(s4)
    b2ee:	07a2                	slli	a5,a5,0x8
    b2f0:	8fd9                	or	a5,a5,a4
    b2f2:	0785                	addi	a5,a5,1
    b2f4:	953e                	add	a0,a0,a5
    b2f6:	0542                	slli	a0,a0,0x10
    b2f8:	8141                	srli	a0,a0,0x10
    b2fa:	00aa0123          	sb	a0,2(s4)
    b2fe:	8121                	srli	a0,a0,0x8
    b300:	00aa01a3          	sb	a0,3(s4)
    b304:	341c                	lbu	a5,9(s0)
    b306:	2408                	lbu	a0,8(s0)
    b308:	07a2                	slli	a5,a5,0x8
    b30a:	8d5d                	or	a0,a0,a5
    b30c:	d2cfb0ef          	jal	ra,6838 <ntohs>
    b310:	67a1                	lui	a5,0x8
    b312:	0ff57513          	andi	a0,a0,255
    b316:	8d5d                	or	a0,a0,a5
    b318:	d12fb0ef          	jal	ra,682a <htons>
    b31c:	a408                	sb	a0,8(s0)
    b31e:	8121                	srli	a0,a0,0x8
    b320:	b408                	sb	a0,9(s0)
    b322:	45d1                	li	a1,20
    b324:	00040523          	sb	zero,10(s0)
    b328:	000405a3          	sb	zero,11(s0)
    b32c:	8522                	mv	a0,s0
    b32e:	2411                	jal	b532 <inet_chksum>
    b330:	a428                	sb	a0,10(s0)
    b332:	8121                	srli	a0,a0,0x8
    b334:	b428                	sb	a0,11(s0)
    b336:	85ca                	mv	a1,s2
    b338:	8526                	mv	a0,s1
    b33a:	85ffc0ef          	jal	ra,7b98 <pbuf_header>
    b33e:	e60516e3          	bnez	a0,b1aa <icmp_input+0x78>
    b342:	884e                	mv	a6,s3
    b344:	4785                	li	a5,1
    b346:	4701                	li	a4,0
    b348:	08000693          	li	a3,128
    b34c:	4601                	li	a2,0
    b34e:	00c40593          	addi	a1,s0,12
    b352:	8526                	mv	a0,s1
    b354:	809fb0ef          	jal	ra,6b5c <ip_output_if>
    b358:	bd89                	j	b1aa <icmp_input+0x78>
    b35a:	fde00593          	li	a1,-34
    b35e:	8526                	mv	a0,s1
    b360:	839fc0ef          	jal	ra,7b98 <pbuf_header>
    b364:	f00504e3          	beqz	a0,b26c <icmp_input+0x13a>
    b368:	b589                	j	b1aa <icmp_input+0x78>
    b36a:	6505                	lui	a0,0x1
    b36c:	80050513          	addi	a0,a0,-2048 # 800 <__stack_size>
    b370:	cbafb0ef          	jal	ra,682a <htons>
    b374:	003a4783          	lbu	a5,3(s4)
    b378:	002a4703          	lbu	a4,2(s4)
    b37c:	07a2                	slli	a5,a5,0x8
    b37e:	8fd9                	or	a5,a5,a4
    b380:	bf95                	j	b2f4 <icmp_input+0x1c2>

0000b382 <icmp_dest_unreach>:
    b382:	994f52ef          	jal	t0,516 <__riscv_save_0>
    b386:	0ff5f613          	andi	a2,a1,255
    b38a:	0511                	addi	a0,a0,4
    b38c:	458d                	li	a1,3
    b38e:	d31ff0ef          	jal	ra,b0be <icmp_send_response.isra.0>
    b392:	9a8f506f          	j	53a <__riscv_restore_0>

0000b396 <icmp_time_exceeded>:
    b396:	980f52ef          	jal	t0,516 <__riscv_save_0>
    b39a:	0ff5f613          	andi	a2,a1,255
    b39e:	0511                	addi	a0,a0,4
    b3a0:	45ad                	li	a1,11
    b3a2:	d1dff0ef          	jal	ra,b0be <icmp_send_response.isra.0>
    b3a6:	994f506f          	j	53a <__riscv_restore_0>

0000b3aa <lwip_standard_chksum>:
    b3aa:	96cf52ef          	jal	t0,516 <__riscv_save_0>
    b3ae:	00b50833          	add	a6,a0,a1
    b3b2:	0842                	slli	a6,a6,0x10
    b3b4:	86aa                	mv	a3,a0
    b3b6:	4701                	li	a4,0
    b3b8:	01085813          	srli	a6,a6,0x10
    b3bc:	4885                	li	a7,1
    b3be:	40d807b3          	sub	a5,a6,a3
    b3c2:	07c2                	slli	a5,a5,0x10
    b3c4:	83c1                	srli	a5,a5,0x10
    b3c6:	04f8e463          	bltu	a7,a5,b40e <lwip_standard_chksum+0x64>
    b3ca:	0015d793          	srli	a5,a1,0x1
    b3ce:	00179693          	slli	a3,a5,0x1
    b3d2:	9536                	add	a0,a0,a3
    b3d4:	56f9                	li	a3,-2
    b3d6:	02d787b3          	mul	a5,a5,a3
    b3da:	95be                	add	a1,a1,a5
    b3dc:	05c2                	slli	a1,a1,0x10
    b3de:	81c1                	srli	a1,a1,0x10
    b3e0:	c581                	beqz	a1,b3e8 <lwip_standard_chksum+0x3e>
    b3e2:	211c                	lbu	a5,0(a0)
    b3e4:	07a2                	slli	a5,a5,0x8
    b3e6:	973e                	add	a4,a4,a5
    b3e8:	6541                	lui	a0,0x10
    b3ea:	fff50693          	addi	a3,a0,-1 # ffff <_data_lma+0x32df>
    b3ee:	01075793          	srli	a5,a4,0x10
    b3f2:	8f75                	and	a4,a4,a3
    b3f4:	00e78533          	add	a0,a5,a4
    b3f8:	77c1                	lui	a5,0xffff0
    b3fa:	8fe9                	and	a5,a5,a0
    b3fc:	c399                	beqz	a5,b402 <lwip_standard_chksum+0x58>
    b3fe:	8d75                	and	a0,a0,a3
    b400:	0505                	addi	a0,a0,1
    b402:	0542                	slli	a0,a0,0x10
    b404:	8141                	srli	a0,a0,0x10
    b406:	c24fb0ef          	jal	ra,682a <htons>
    b40a:	930f506f          	j	53a <__riscv_restore_0>
    b40e:	329c                	lbu	a5,1(a3)
    b410:	2290                	lbu	a2,0(a3)
    b412:	0689                	addi	a3,a3,2
    b414:	07a2                	slli	a5,a5,0x8
    b416:	8fd1                	or	a5,a5,a2
    b418:	00879613          	slli	a2,a5,0x8
    b41c:	83a1                	srli	a5,a5,0x8
    b41e:	8fd1                	or	a5,a5,a2
    b420:	07c2                	slli	a5,a5,0x10
    b422:	83c1                	srli	a5,a5,0x10
    b424:	973e                	add	a4,a4,a5
    b426:	bf61                	j	b3be <lwip_standard_chksum+0x14>

0000b428 <inet_chksum_pseudo>:
    b428:	8c6f52ef          	jal	t0,4ee <__riscv_save_10>
    b42c:	2000a7b7          	lui	a5,0x2000a
    b430:	3707a783          	lw	a5,880(a5) # 2000a370 <WCHCfg+0x14>
    b434:	84ba                	mv	s1,a4
    b436:	1141                	addi	sp,sp,-16
    b438:	00579713          	slli	a4,a5,0x5
    b43c:	0e074963          	bltz	a4,b52e <inet_chksum_pseudo+0x106>
    b440:	6b41                	lui	s6,0x10
    b442:	892a                	mv	s2,a0
    b444:	8aae                	mv	s5,a1
    b446:	8a32                	mv	s4,a2
    b448:	4981                	li	s3,0
    b44a:	4401                	li	s0,0
    b44c:	1b7d                	addi	s6,s6,-1
    b44e:	4b85                	li	s7,1
    b450:	08091e63          	bnez	s2,b4ec <inet_chksum_pseudo+0xc4>
    b454:	00098b63          	beqz	s3,b46a <inet_chksum_pseudo+0x42>
    b458:	6741                	lui	a4,0x10
    b45a:	00841793          	slli	a5,s0,0x8
    b45e:	177d                	addi	a4,a4,-1
    b460:	8021                	srli	s0,s0,0x8
    b462:	8ff9                	and	a5,a5,a4
    b464:	0ff47413          	andi	s0,s0,255
    b468:	8c5d                	or	s0,s0,a5
    b46a:	001ac503          	lbu	a0,1(s5)
    b46e:	000ac783          	lbu	a5,0(s5)
    b472:	000a4703          	lbu	a4,0(s4)
    b476:	0522                	slli	a0,a0,0x8
    b478:	8d5d                	or	a0,a0,a5
    b47a:	002ac783          	lbu	a5,2(s5)
    b47e:	003a4603          	lbu	a2,3(s4)
    b482:	6941                	lui	s2,0x10
    b484:	07c2                	slli	a5,a5,0x10
    b486:	8d5d                	or	a0,a0,a5
    b488:	003ac783          	lbu	a5,3(s5)
    b48c:	0662                	slli	a2,a2,0x18
    b48e:	197d                	addi	s2,s2,-1
    b490:	07e2                	slli	a5,a5,0x18
    b492:	8fc9                	or	a5,a5,a0
    b494:	001a4503          	lbu	a0,1(s4)
    b498:	0522                	slli	a0,a0,0x8
    b49a:	8f49                	or	a4,a4,a0
    b49c:	002a4503          	lbu	a0,2(s4)
    b4a0:	0542                	slli	a0,a0,0x10
    b4a2:	8d59                	or	a0,a0,a4
    b4a4:	8e49                	or	a2,a2,a0
    b4a6:	01267533          	and	a0,a2,s2
    b4aa:	8241                	srli	a2,a2,0x10
    b4ac:	0127f733          	and	a4,a5,s2
    b4b0:	9532                	add	a0,a0,a2
    b4b2:	953a                	add	a0,a0,a4
    b4b4:	83c1                	srli	a5,a5,0x10
    b4b6:	953e                	add	a0,a0,a5
    b4b8:	942a                	add	s0,s0,a0
    b4ba:	8536                	mv	a0,a3
    b4bc:	b6efb0ef          	jal	ra,682a <htons>
    b4c0:	942a                	add	s0,s0,a0
    b4c2:	8526                	mv	a0,s1
    b4c4:	b66fb0ef          	jal	ra,682a <htons>
    b4c8:	9522                	add	a0,a0,s0
    b4ca:	01055413          	srli	s0,a0,0x10
    b4ce:	01257533          	and	a0,a0,s2
    b4d2:	942a                	add	s0,s0,a0
    b4d4:	01045513          	srli	a0,s0,0x10
    b4d8:	01247433          	and	s0,s0,s2
    b4dc:	9522                	add	a0,a0,s0
    b4de:	fff54513          	not	a0,a0
    b4e2:	0542                	slli	a0,a0,0x10
    b4e4:	8141                	srli	a0,a0,0x10
    b4e6:	0141                	addi	sp,sp,16
    b4e8:	83ef506f          	j	526 <__riscv_restore_10>
    b4ec:	00a95583          	lhu	a1,10(s2) # 1000a <_data_lma+0x32ea>
    b4f0:	00492503          	lw	a0,4(s2)
    b4f4:	c636                	sw	a3,12(sp)
    b4f6:	eb5ff0ef          	jal	ra,b3aa <lwip_standard_chksum>
    b4fa:	942a                	add	s0,s0,a0
    b4fc:	01045793          	srli	a5,s0,0x10
    b500:	01647433          	and	s0,s0,s6
    b504:	943e                	add	s0,s0,a5
    b506:	00a95783          	lhu	a5,10(s2)
    b50a:	46b2                	lw	a3,12(sp)
    b50c:	8b85                	andi	a5,a5,1
    b50e:	cf89                	beqz	a5,b528 <inet_chksum_pseudo+0x100>
    b510:	00841793          	slli	a5,s0,0x8
    b514:	8021                	srli	s0,s0,0x8
    b516:	413b89b3          	sub	s3,s7,s3
    b51a:	0167f7b3          	and	a5,a5,s6
    b51e:	0ff47413          	andi	s0,s0,255
    b522:	0ff9f993          	andi	s3,s3,255
    b526:	8c5d                	or	s0,s0,a5
    b528:	00092903          	lw	s2,0(s2)
    b52c:	b715                	j	b450 <inet_chksum_pseudo+0x28>
    b52e:	4501                	li	a0,0
    b530:	bf5d                	j	b4e6 <inet_chksum_pseudo+0xbe>

0000b532 <inet_chksum>:
    b532:	fe5f42ef          	jal	t0,516 <__riscv_save_0>
    b536:	e75ff0ef          	jal	ra,b3aa <lwip_standard_chksum>
    b53a:	fff54513          	not	a0,a0
    b53e:	0542                	slli	a0,a0,0x10
    b540:	8141                	srli	a0,a0,0x10
    b542:	ff9f406f          	j	53a <__riscv_restore_0>

0000b546 <inet_chksum_pbuf>:
    b546:	fb7f42ef          	jal	t0,4fc <__riscv_save_4>
    b54a:	69c1                	lui	s3,0x10
    b54c:	84aa                	mv	s1,a0
    b54e:	4901                	li	s2,0
    b550:	4401                	li	s0,0
    b552:	19fd                	addi	s3,s3,-1
    b554:	4a05                	li	s4,1
    b556:	e095                	bnez	s1,b57a <inet_chksum_pbuf+0x34>
    b558:	00090b63          	beqz	s2,b56e <inet_chksum_pbuf+0x28>
    b55c:	6741                	lui	a4,0x10
    b55e:	00841793          	slli	a5,s0,0x8
    b562:	177d                	addi	a4,a4,-1
    b564:	8021                	srli	s0,s0,0x8
    b566:	8ff9                	and	a5,a5,a4
    b568:	0ff47413          	andi	s0,s0,255
    b56c:	8c5d                	or	s0,s0,a5
    b56e:	fff44513          	not	a0,s0
    b572:	0542                	slli	a0,a0,0x10
    b574:	8141                	srli	a0,a0,0x10
    b576:	fbbf406f          	j	530 <__riscv_restore_4>
    b57a:	24ae                	lhu	a1,10(s1)
    b57c:	40c8                	lw	a0,4(s1)
    b57e:	e2dff0ef          	jal	ra,b3aa <lwip_standard_chksum>
    b582:	942a                	add	s0,s0,a0
    b584:	01045793          	srli	a5,s0,0x10
    b588:	01347433          	and	s0,s0,s3
    b58c:	943e                	add	s0,s0,a5
    b58e:	24be                	lhu	a5,10(s1)
    b590:	8b85                	andi	a5,a5,1
    b592:	cf89                	beqz	a5,b5ac <inet_chksum_pbuf+0x66>
    b594:	00841793          	slli	a5,s0,0x8
    b598:	8021                	srli	s0,s0,0x8
    b59a:	412a0933          	sub	s2,s4,s2
    b59e:	0137f7b3          	and	a5,a5,s3
    b5a2:	0ff47413          	andi	s0,s0,255
    b5a6:	0ff97913          	andi	s2,s2,255
    b5aa:	8c5d                	or	s0,s0,a5
    b5ac:	4084                	lw	s1,0(s1)
    b5ae:	b765                	j	b556 <inet_chksum_pbuf+0x10>

0000b5b0 <fiprintf>:
    b5b0:	7139                	addi	sp,sp,-64
    b5b2:	d432                	sw	a2,40(sp)
    b5b4:	d636                	sw	a3,44(sp)
    b5b6:	da3e                	sw	a5,52(sp)
    b5b8:	d83a                	sw	a4,48(sp)
    b5ba:	dc42                	sw	a6,56(sp)
    b5bc:	de46                	sw	a7,60(sp)
    b5be:	84818793          	addi	a5,gp,-1976 # 20000148 <_impure_ptr>
    b5c2:	862e                	mv	a2,a1
    b5c4:	85aa                	mv	a1,a0
    b5c6:	4388                	lw	a0,0(a5)
    b5c8:	1034                	addi	a3,sp,40
    b5ca:	ce06                	sw	ra,28(sp)
    b5cc:	c636                	sw	a3,12(sp)
    b5ce:	2215                	jal	b6f2 <_vfiprintf_r>
    b5d0:	40f2                	lw	ra,28(sp)
    b5d2:	6121                	addi	sp,sp,64
    b5d4:	8082                	ret

0000b5d6 <memcpy>:
    b5d6:	00a5c7b3          	xor	a5,a1,a0
    b5da:	8b8d                	andi	a5,a5,3
    b5dc:	00c50733          	add	a4,a0,a2
    b5e0:	e781                	bnez	a5,b5e8 <memcpy+0x12>
    b5e2:	478d                	li	a5,3
    b5e4:	00c7ed63          	bltu	a5,a2,b5fe <memcpy+0x28>
    b5e8:	87aa                	mv	a5,a0
    b5ea:	08e57e63          	bgeu	a0,a4,b686 <memcpy+0xb0>
    b5ee:	2194                	lbu	a3,0(a1)
    b5f0:	0785                	addi	a5,a5,1
    b5f2:	0585                	addi	a1,a1,1
    b5f4:	fed78fa3          	sb	a3,-1(a5)
    b5f8:	fee7ebe3          	bltu	a5,a4,b5ee <memcpy+0x18>
    b5fc:	8082                	ret
    b5fe:	00357693          	andi	a3,a0,3
    b602:	87aa                	mv	a5,a0
    b604:	ca89                	beqz	a3,b616 <memcpy+0x40>
    b606:	2194                	lbu	a3,0(a1)
    b608:	0785                	addi	a5,a5,1
    b60a:	0585                	addi	a1,a1,1
    b60c:	fed78fa3          	sb	a3,-1(a5)
    b610:	0037f693          	andi	a3,a5,3
    b614:	bfc5                	j	b604 <memcpy+0x2e>
    b616:	ffc77693          	andi	a3,a4,-4
    b61a:	fe068613          	addi	a2,a3,-32
    b61e:	06c7f063          	bgeu	a5,a2,b67e <memcpy+0xa8>
    b622:	0005a383          	lw	t2,0(a1)
    b626:	0045a283          	lw	t0,4(a1)
    b62a:	0085af83          	lw	t6,8(a1)
    b62e:	00c5af03          	lw	t5,12(a1)
    b632:	0105ae83          	lw	t4,16(a1)
    b636:	0145ae03          	lw	t3,20(a1)
    b63a:	0185a303          	lw	t1,24(a1)
    b63e:	01c5a883          	lw	a7,28(a1)
    b642:	02458593          	addi	a1,a1,36
    b646:	0077a023          	sw	t2,0(a5)
    b64a:	ffc5a803          	lw	a6,-4(a1)
    b64e:	0057a223          	sw	t0,4(a5)
    b652:	01f7a423          	sw	t6,8(a5)
    b656:	01e7a623          	sw	t5,12(a5)
    b65a:	01d7a823          	sw	t4,16(a5)
    b65e:	01c7aa23          	sw	t3,20(a5)
    b662:	0067ac23          	sw	t1,24(a5)
    b666:	0117ae23          	sw	a7,28(a5)
    b66a:	02478793          	addi	a5,a5,36
    b66e:	ff07ae23          	sw	a6,-4(a5)
    b672:	b775                	j	b61e <memcpy+0x48>
    b674:	4190                	lw	a2,0(a1)
    b676:	0791                	addi	a5,a5,4
    b678:	0591                	addi	a1,a1,4
    b67a:	fec7ae23          	sw	a2,-4(a5)
    b67e:	fed7ebe3          	bltu	a5,a3,b674 <memcpy+0x9e>
    b682:	f6e7e6e3          	bltu	a5,a4,b5ee <memcpy+0x18>
    b686:	8082                	ret

0000b688 <__sfputc_r>:
    b688:	461c                	lw	a5,8(a2)
    b68a:	17fd                	addi	a5,a5,-1
    b68c:	c61c                	sw	a5,8(a2)
    b68e:	0007da63          	bgez	a5,b6a2 <__sfputc_r+0x1a>
    b692:	4e18                	lw	a4,24(a2)
    b694:	00e7c563          	blt	a5,a4,b69e <__sfputc_r+0x16>
    b698:	47a9                	li	a5,10
    b69a:	00f59463          	bne	a1,a5,b6a2 <__sfputc_r+0x1a>
    b69e:	7da0006f          	j	be78 <__swbuf_r>
    b6a2:	421c                	lw	a5,0(a2)
    b6a4:	852e                	mv	a0,a1
    b6a6:	00178713          	addi	a4,a5,1
    b6aa:	c218                	sw	a4,0(a2)
    b6ac:	a38c                	sb	a1,0(a5)
    b6ae:	8082                	ret

0000b6b0 <__sfputs_r>:
    b6b0:	1101                	addi	sp,sp,-32
    b6b2:	cc22                	sw	s0,24(sp)
    b6b4:	ca26                	sw	s1,20(sp)
    b6b6:	c84a                	sw	s2,16(sp)
    b6b8:	c64e                	sw	s3,12(sp)
    b6ba:	c452                	sw	s4,8(sp)
    b6bc:	ce06                	sw	ra,28(sp)
    b6be:	892a                	mv	s2,a0
    b6c0:	89ae                	mv	s3,a1
    b6c2:	8432                	mv	s0,a2
    b6c4:	00d604b3          	add	s1,a2,a3
    b6c8:	5a7d                	li	s4,-1
    b6ca:	00941463          	bne	s0,s1,b6d2 <__sfputs_r+0x22>
    b6ce:	4501                	li	a0,0
    b6d0:	a809                	j	b6e2 <__sfputs_r+0x32>
    b6d2:	200c                	lbu	a1,0(s0)
    b6d4:	864e                	mv	a2,s3
    b6d6:	854a                	mv	a0,s2
    b6d8:	fb1ff0ef          	jal	ra,b688 <__sfputc_r>
    b6dc:	0405                	addi	s0,s0,1
    b6de:	ff4516e3          	bne	a0,s4,b6ca <__sfputs_r+0x1a>
    b6e2:	40f2                	lw	ra,28(sp)
    b6e4:	4462                	lw	s0,24(sp)
    b6e6:	44d2                	lw	s1,20(sp)
    b6e8:	4942                	lw	s2,16(sp)
    b6ea:	49b2                	lw	s3,12(sp)
    b6ec:	4a22                	lw	s4,8(sp)
    b6ee:	6105                	addi	sp,sp,32
    b6f0:	8082                	ret

0000b6f2 <_vfiprintf_r>:
    b6f2:	7135                	addi	sp,sp,-160
    b6f4:	cd22                	sw	s0,152(sp)
    b6f6:	cb26                	sw	s1,148(sp)
    b6f8:	c94a                	sw	s2,144(sp)
    b6fa:	c74e                	sw	s3,140(sp)
    b6fc:	cf06                	sw	ra,156(sp)
    b6fe:	c552                	sw	s4,136(sp)
    b700:	c356                	sw	s5,132(sp)
    b702:	c15a                	sw	s6,128(sp)
    b704:	dede                	sw	s7,124(sp)
    b706:	dce2                	sw	s8,120(sp)
    b708:	dae6                	sw	s9,116(sp)
    b70a:	89aa                	mv	s3,a0
    b70c:	84ae                	mv	s1,a1
    b70e:	8932                	mv	s2,a2
    b710:	8436                	mv	s0,a3
    b712:	c509                	beqz	a0,b71c <_vfiprintf_r+0x2a>
    b714:	4d1c                	lw	a5,24(a0)
    b716:	e399                	bnez	a5,b71c <_vfiprintf_r+0x2a>
    b718:	365000ef          	jal	ra,c27c <__sinit>
    b71c:	00001797          	auipc	a5,0x1
    b720:	5c478793          	addi	a5,a5,1476 # cce0 <__sf_fake_stdin>
    b724:	0cf49963          	bne	s1,a5,b7f6 <_vfiprintf_r+0x104>
    b728:	0049a483          	lw	s1,4(s3) # 10004 <_data_lma+0x32e4>
    b72c:	24de                	lhu	a5,12(s1)
    b72e:	8ba1                	andi	a5,a5,8
    b730:	c7ed                	beqz	a5,b81a <_vfiprintf_r+0x128>
    b732:	489c                	lw	a5,16(s1)
    b734:	c3fd                	beqz	a5,b81a <_vfiprintf_r+0x128>
    b736:	02000793          	li	a5,32
    b73a:	02f104a3          	sb	a5,41(sp)
    b73e:	03000793          	li	a5,48
    b742:	d202                	sw	zero,36(sp)
    b744:	02f10523          	sb	a5,42(sp)
    b748:	c622                	sw	s0,12(sp)
    b74a:	02500b93          	li	s7,37
    b74e:	00001a97          	auipc	s5,0x1
    b752:	536a8a93          	addi	s5,s5,1334 # cc84 <tcp_backoff+0x30>
    b756:	4c05                	li	s8,1
    b758:	4b29                	li	s6,10
    b75a:	844a                	mv	s0,s2
    b75c:	201c                	lbu	a5,0(s0)
    b75e:	c399                	beqz	a5,b764 <_vfiprintf_r+0x72>
    b760:	0d779f63          	bne	a5,s7,b83e <_vfiprintf_r+0x14c>
    b764:	41240cb3          	sub	s9,s0,s2
    b768:	000c8e63          	beqz	s9,b784 <_vfiprintf_r+0x92>
    b76c:	86e6                	mv	a3,s9
    b76e:	864a                	mv	a2,s2
    b770:	85a6                	mv	a1,s1
    b772:	854e                	mv	a0,s3
    b774:	f3dff0ef          	jal	ra,b6b0 <__sfputs_r>
    b778:	57fd                	li	a5,-1
    b77a:	1ef50163          	beq	a0,a5,b95c <_vfiprintf_r+0x26a>
    b77e:	5692                	lw	a3,36(sp)
    b780:	96e6                	add	a3,a3,s9
    b782:	d236                	sw	a3,36(sp)
    b784:	201c                	lbu	a5,0(s0)
    b786:	1c078b63          	beqz	a5,b95c <_vfiprintf_r+0x26a>
    b78a:	57fd                	li	a5,-1
    b78c:	00140913          	addi	s2,s0,1
    b790:	c802                	sw	zero,16(sp)
    b792:	ce02                	sw	zero,28(sp)
    b794:	ca3e                	sw	a5,20(sp)
    b796:	cc02                	sw	zero,24(sp)
    b798:	040109a3          	sb	zero,83(sp)
    b79c:	d482                	sw	zero,104(sp)
    b79e:	00094583          	lbu	a1,0(s2)
    b7a2:	4615                	li	a2,5
    b7a4:	8556                	mv	a0,s5
    b7a6:	533000ef          	jal	ra,c4d8 <memchr>
    b7aa:	00190413          	addi	s0,s2,1
    b7ae:	47c2                	lw	a5,16(sp)
    b7b0:	e949                	bnez	a0,b842 <_vfiprintf_r+0x150>
    b7b2:	0107f713          	andi	a4,a5,16
    b7b6:	c709                	beqz	a4,b7c0 <_vfiprintf_r+0xce>
    b7b8:	02000713          	li	a4,32
    b7bc:	04e109a3          	sb	a4,83(sp)
    b7c0:	0087f713          	andi	a4,a5,8
    b7c4:	c709                	beqz	a4,b7ce <_vfiprintf_r+0xdc>
    b7c6:	02b00713          	li	a4,43
    b7ca:	04e109a3          	sb	a4,83(sp)
    b7ce:	00094683          	lbu	a3,0(s2)
    b7d2:	02a00713          	li	a4,42
    b7d6:	06e68e63          	beq	a3,a4,b852 <_vfiprintf_r+0x160>
    b7da:	47f2                	lw	a5,28(sp)
    b7dc:	844a                	mv	s0,s2
    b7de:	4681                	li	a3,0
    b7e0:	4625                	li	a2,9
    b7e2:	2018                	lbu	a4,0(s0)
    b7e4:	00140593          	addi	a1,s0,1
    b7e8:	fd070713          	addi	a4,a4,-48 # ffd0 <_data_lma+0x32b0>
    b7ec:	0ae67663          	bgeu	a2,a4,b898 <_vfiprintf_r+0x1a6>
    b7f0:	caad                	beqz	a3,b862 <_vfiprintf_r+0x170>
    b7f2:	ce3e                	sw	a5,28(sp)
    b7f4:	a0bd                	j	b862 <_vfiprintf_r+0x170>
    b7f6:	00001797          	auipc	a5,0x1
    b7fa:	50a78793          	addi	a5,a5,1290 # cd00 <__sf_fake_stdout>
    b7fe:	00f49563          	bne	s1,a5,b808 <_vfiprintf_r+0x116>
    b802:	0089a483          	lw	s1,8(s3)
    b806:	b71d                	j	b72c <_vfiprintf_r+0x3a>
    b808:	00001797          	auipc	a5,0x1
    b80c:	4b878793          	addi	a5,a5,1208 # ccc0 <__sf_fake_stderr>
    b810:	f0f49ee3          	bne	s1,a5,b72c <_vfiprintf_r+0x3a>
    b814:	00c9a483          	lw	s1,12(s3)
    b818:	bf11                	j	b72c <_vfiprintf_r+0x3a>
    b81a:	85a6                	mv	a1,s1
    b81c:	854e                	mv	a0,s3
    b81e:	2f19                	jal	bf34 <__swsetup_r>
    b820:	d919                	beqz	a0,b736 <_vfiprintf_r+0x44>
    b822:	557d                	li	a0,-1
    b824:	40fa                	lw	ra,156(sp)
    b826:	446a                	lw	s0,152(sp)
    b828:	44da                	lw	s1,148(sp)
    b82a:	494a                	lw	s2,144(sp)
    b82c:	49ba                	lw	s3,140(sp)
    b82e:	4a2a                	lw	s4,136(sp)
    b830:	4a9a                	lw	s5,132(sp)
    b832:	4b0a                	lw	s6,128(sp)
    b834:	5bf6                	lw	s7,124(sp)
    b836:	5c66                	lw	s8,120(sp)
    b838:	5cd6                	lw	s9,116(sp)
    b83a:	610d                	addi	sp,sp,160
    b83c:	8082                	ret
    b83e:	0405                	addi	s0,s0,1
    b840:	bf31                	j	b75c <_vfiprintf_r+0x6a>
    b842:	41550533          	sub	a0,a0,s5
    b846:	00ac1533          	sll	a0,s8,a0
    b84a:	8fc9                	or	a5,a5,a0
    b84c:	c83e                	sw	a5,16(sp)
    b84e:	8922                	mv	s2,s0
    b850:	b7b9                	j	b79e <_vfiprintf_r+0xac>
    b852:	4732                	lw	a4,12(sp)
    b854:	00470693          	addi	a3,a4,4
    b858:	4318                	lw	a4,0(a4)
    b85a:	c636                	sw	a3,12(sp)
    b85c:	02074763          	bltz	a4,b88a <_vfiprintf_r+0x198>
    b860:	ce3a                	sw	a4,28(sp)
    b862:	2018                	lbu	a4,0(s0)
    b864:	02e00793          	li	a5,46
    b868:	04f71d63          	bne	a4,a5,b8c2 <_vfiprintf_r+0x1d0>
    b86c:	3018                	lbu	a4,1(s0)
    b86e:	02a00793          	li	a5,42
    b872:	02f71b63          	bne	a4,a5,b8a8 <_vfiprintf_r+0x1b6>
    b876:	47b2                	lw	a5,12(sp)
    b878:	0409                	addi	s0,s0,2
    b87a:	00478713          	addi	a4,a5,4
    b87e:	439c                	lw	a5,0(a5)
    b880:	c63a                	sw	a4,12(sp)
    b882:	0207c163          	bltz	a5,b8a4 <_vfiprintf_r+0x1b2>
    b886:	ca3e                	sw	a5,20(sp)
    b888:	a82d                	j	b8c2 <_vfiprintf_r+0x1d0>
    b88a:	40e00733          	neg	a4,a4
    b88e:	0027e793          	ori	a5,a5,2
    b892:	ce3a                	sw	a4,28(sp)
    b894:	c83e                	sw	a5,16(sp)
    b896:	b7f1                	j	b862 <_vfiprintf_r+0x170>
    b898:	036787b3          	mul	a5,a5,s6
    b89c:	4685                	li	a3,1
    b89e:	842e                	mv	s0,a1
    b8a0:	97ba                	add	a5,a5,a4
    b8a2:	b781                	j	b7e2 <_vfiprintf_r+0xf0>
    b8a4:	57fd                	li	a5,-1
    b8a6:	b7c5                	j	b886 <_vfiprintf_r+0x194>
    b8a8:	0405                	addi	s0,s0,1
    b8aa:	ca02                	sw	zero,20(sp)
    b8ac:	4681                	li	a3,0
    b8ae:	4781                	li	a5,0
    b8b0:	4625                	li	a2,9
    b8b2:	2018                	lbu	a4,0(s0)
    b8b4:	00140593          	addi	a1,s0,1
    b8b8:	fd070713          	addi	a4,a4,-48
    b8bc:	06e67663          	bgeu	a2,a4,b928 <_vfiprintf_r+0x236>
    b8c0:	f2f9                	bnez	a3,b886 <_vfiprintf_r+0x194>
    b8c2:	200c                	lbu	a1,0(s0)
    b8c4:	460d                	li	a2,3
    b8c6:	00001517          	auipc	a0,0x1
    b8ca:	3c650513          	addi	a0,a0,966 # cc8c <tcp_backoff+0x38>
    b8ce:	40b000ef          	jal	ra,c4d8 <memchr>
    b8d2:	cd11                	beqz	a0,b8ee <_vfiprintf_r+0x1fc>
    b8d4:	00001797          	auipc	a5,0x1
    b8d8:	3b878793          	addi	a5,a5,952 # cc8c <tcp_backoff+0x38>
    b8dc:	8d1d                	sub	a0,a0,a5
    b8de:	04000793          	li	a5,64
    b8e2:	00a797b3          	sll	a5,a5,a0
    b8e6:	4542                	lw	a0,16(sp)
    b8e8:	0405                	addi	s0,s0,1
    b8ea:	8d5d                	or	a0,a0,a5
    b8ec:	c82a                	sw	a0,16(sp)
    b8ee:	200c                	lbu	a1,0(s0)
    b8f0:	4619                	li	a2,6
    b8f2:	00001517          	auipc	a0,0x1
    b8f6:	39e50513          	addi	a0,a0,926 # cc90 <tcp_backoff+0x3c>
    b8fa:	00140913          	addi	s2,s0,1
    b8fe:	02b10423          	sb	a1,40(sp)
    b902:	3d7000ef          	jal	ra,c4d8 <memchr>
    b906:	c135                	beqz	a0,b96a <_vfiprintf_r+0x278>
    b908:	ffff4797          	auipc	a5,0xffff4
    b90c:	6f878793          	addi	a5,a5,1784 # 0 <_sinit>
    b910:	e795                	bnez	a5,b93c <_vfiprintf_r+0x24a>
    b912:	4742                	lw	a4,16(sp)
    b914:	47b2                	lw	a5,12(sp)
    b916:	10077713          	andi	a4,a4,256
    b91a:	cf09                	beqz	a4,b934 <_vfiprintf_r+0x242>
    b91c:	0791                	addi	a5,a5,4
    b91e:	c63e                	sw	a5,12(sp)
    b920:	5792                	lw	a5,36(sp)
    b922:	97d2                	add	a5,a5,s4
    b924:	d23e                	sw	a5,36(sp)
    b926:	bd15                	j	b75a <_vfiprintf_r+0x68>
    b928:	036787b3          	mul	a5,a5,s6
    b92c:	4685                	li	a3,1
    b92e:	842e                	mv	s0,a1
    b930:	97ba                	add	a5,a5,a4
    b932:	b741                	j	b8b2 <_vfiprintf_r+0x1c0>
    b934:	079d                	addi	a5,a5,7
    b936:	9be1                	andi	a5,a5,-8
    b938:	07a1                	addi	a5,a5,8
    b93a:	b7d5                	j	b91e <_vfiprintf_r+0x22c>
    b93c:	0078                	addi	a4,sp,12
    b93e:	00000697          	auipc	a3,0x0
    b942:	d7268693          	addi	a3,a3,-654 # b6b0 <__sfputs_r>
    b946:	8626                	mv	a2,s1
    b948:	080c                	addi	a1,sp,16
    b94a:	854e                	mv	a0,s3
    b94c:	00000097          	auipc	ra,0x0
    b950:	000000e7          	jalr	zero # 0 <_sinit>
    b954:	57fd                	li	a5,-1
    b956:	8a2a                	mv	s4,a0
    b958:	fcf514e3          	bne	a0,a5,b920 <_vfiprintf_r+0x22e>
    b95c:	24de                	lhu	a5,12(s1)
    b95e:	0407f793          	andi	a5,a5,64
    b962:	ec0790e3          	bnez	a5,b822 <_vfiprintf_r+0x130>
    b966:	5512                	lw	a0,36(sp)
    b968:	bd75                	j	b824 <_vfiprintf_r+0x132>
    b96a:	0078                	addi	a4,sp,12
    b96c:	00000697          	auipc	a3,0x0
    b970:	d4468693          	addi	a3,a3,-700 # b6b0 <__sfputs_r>
    b974:	8626                	mv	a2,s1
    b976:	080c                	addi	a1,sp,16
    b978:	854e                	mv	a0,s3
    b97a:	2a01                	jal	ba8a <_printf_i>
    b97c:	bfe1                	j	b954 <_vfiprintf_r+0x262>

0000b97e <_printf_common>:
    b97e:	7179                	addi	sp,sp,-48
    b980:	ca56                	sw	s5,20(sp)
    b982:	499c                	lw	a5,16(a1)
    b984:	8aba                	mv	s5,a4
    b986:	4598                	lw	a4,8(a1)
    b988:	d422                	sw	s0,40(sp)
    b98a:	d226                	sw	s1,36(sp)
    b98c:	ce4e                	sw	s3,28(sp)
    b98e:	cc52                	sw	s4,24(sp)
    b990:	d606                	sw	ra,44(sp)
    b992:	d04a                	sw	s2,32(sp)
    b994:	c85a                	sw	s6,16(sp)
    b996:	c65e                	sw	s7,12(sp)
    b998:	89aa                	mv	s3,a0
    b99a:	842e                	mv	s0,a1
    b99c:	84b2                	mv	s1,a2
    b99e:	8a36                	mv	s4,a3
    b9a0:	00e7d363          	bge	a5,a4,b9a6 <_printf_common+0x28>
    b9a4:	87ba                	mv	a5,a4
    b9a6:	c09c                	sw	a5,0(s1)
    b9a8:	04344703          	lbu	a4,67(s0)
    b9ac:	c319                	beqz	a4,b9b2 <_printf_common+0x34>
    b9ae:	0785                	addi	a5,a5,1
    b9b0:	c09c                	sw	a5,0(s1)
    b9b2:	401c                	lw	a5,0(s0)
    b9b4:	0207f793          	andi	a5,a5,32
    b9b8:	c781                	beqz	a5,b9c0 <_printf_common+0x42>
    b9ba:	409c                	lw	a5,0(s1)
    b9bc:	0789                	addi	a5,a5,2
    b9be:	c09c                	sw	a5,0(s1)
    b9c0:	00042903          	lw	s2,0(s0)
    b9c4:	00697913          	andi	s2,s2,6
    b9c8:	00091a63          	bnez	s2,b9dc <_printf_common+0x5e>
    b9cc:	01940b13          	addi	s6,s0,25
    b9d0:	5bfd                	li	s7,-1
    b9d2:	445c                	lw	a5,12(s0)
    b9d4:	4098                	lw	a4,0(s1)
    b9d6:	8f99                	sub	a5,a5,a4
    b9d8:	04f94c63          	blt	s2,a5,ba30 <_printf_common+0xb2>
    b9dc:	401c                	lw	a5,0(s0)
    b9de:	04344683          	lbu	a3,67(s0)
    b9e2:	0207f793          	andi	a5,a5,32
    b9e6:	00d036b3          	snez	a3,a3
    b9ea:	eba5                	bnez	a5,ba5a <_printf_common+0xdc>
    b9ec:	04340613          	addi	a2,s0,67
    b9f0:	85d2                	mv	a1,s4
    b9f2:	854e                	mv	a0,s3
    b9f4:	9a82                	jalr	s5
    b9f6:	57fd                	li	a5,-1
    b9f8:	04f50363          	beq	a0,a5,ba3e <_printf_common+0xc0>
    b9fc:	401c                	lw	a5,0(s0)
    b9fe:	4611                	li	a2,4
    ba00:	4098                	lw	a4,0(s1)
    ba02:	8b99                	andi	a5,a5,6
    ba04:	4454                	lw	a3,12(s0)
    ba06:	4481                	li	s1,0
    ba08:	00c79763          	bne	a5,a2,ba16 <_printf_common+0x98>
    ba0c:	40e684b3          	sub	s1,a3,a4
    ba10:	0004d363          	bgez	s1,ba16 <_printf_common+0x98>
    ba14:	4481                	li	s1,0
    ba16:	441c                	lw	a5,8(s0)
    ba18:	4818                	lw	a4,16(s0)
    ba1a:	00f75463          	bge	a4,a5,ba22 <_printf_common+0xa4>
    ba1e:	8f99                	sub	a5,a5,a4
    ba20:	94be                	add	s1,s1,a5
    ba22:	4901                	li	s2,0
    ba24:	0469                	addi	s0,s0,26
    ba26:	5b7d                	li	s6,-1
    ba28:	05249863          	bne	s1,s2,ba78 <_printf_common+0xfa>
    ba2c:	4501                	li	a0,0
    ba2e:	a809                	j	ba40 <_printf_common+0xc2>
    ba30:	4685                	li	a3,1
    ba32:	865a                	mv	a2,s6
    ba34:	85d2                	mv	a1,s4
    ba36:	854e                	mv	a0,s3
    ba38:	9a82                	jalr	s5
    ba3a:	01751e63          	bne	a0,s7,ba56 <_printf_common+0xd8>
    ba3e:	557d                	li	a0,-1
    ba40:	50b2                	lw	ra,44(sp)
    ba42:	5422                	lw	s0,40(sp)
    ba44:	5492                	lw	s1,36(sp)
    ba46:	5902                	lw	s2,32(sp)
    ba48:	49f2                	lw	s3,28(sp)
    ba4a:	4a62                	lw	s4,24(sp)
    ba4c:	4ad2                	lw	s5,20(sp)
    ba4e:	4b42                	lw	s6,16(sp)
    ba50:	4bb2                	lw	s7,12(sp)
    ba52:	6145                	addi	sp,sp,48
    ba54:	8082                	ret
    ba56:	0905                	addi	s2,s2,1
    ba58:	bfad                	j	b9d2 <_printf_common+0x54>
    ba5a:	00d40733          	add	a4,s0,a3
    ba5e:	03000613          	li	a2,48
    ba62:	04c701a3          	sb	a2,67(a4)
    ba66:	04544703          	lbu	a4,69(s0)
    ba6a:	00168793          	addi	a5,a3,1
    ba6e:	97a2                	add	a5,a5,s0
    ba70:	0689                	addi	a3,a3,2
    ba72:	04e781a3          	sb	a4,67(a5)
    ba76:	bf9d                	j	b9ec <_printf_common+0x6e>
    ba78:	4685                	li	a3,1
    ba7a:	8622                	mv	a2,s0
    ba7c:	85d2                	mv	a1,s4
    ba7e:	854e                	mv	a0,s3
    ba80:	9a82                	jalr	s5
    ba82:	fb650ee3          	beq	a0,s6,ba3e <_printf_common+0xc0>
    ba86:	0905                	addi	s2,s2,1
    ba88:	b745                	j	ba28 <_printf_common+0xaa>

0000ba8a <_printf_i>:
    ba8a:	7179                	addi	sp,sp,-48
    ba8c:	d422                	sw	s0,40(sp)
    ba8e:	d226                	sw	s1,36(sp)
    ba90:	d04a                	sw	s2,32(sp)
    ba92:	ce4e                	sw	s3,28(sp)
    ba94:	d606                	sw	ra,44(sp)
    ba96:	cc52                	sw	s4,24(sp)
    ba98:	ca56                	sw	s5,20(sp)
    ba9a:	c85a                	sw	s6,16(sp)
    ba9c:	89b6                	mv	s3,a3
    ba9e:	2d94                	lbu	a3,24(a1)
    baa0:	06900793          	li	a5,105
    baa4:	8932                	mv	s2,a2
    baa6:	84aa                	mv	s1,a0
    baa8:	842e                	mv	s0,a1
    baaa:	04358613          	addi	a2,a1,67
    baae:	02f68d63          	beq	a3,a5,bae8 <_printf_i+0x5e>
    bab2:	06d7e263          	bltu	a5,a3,bb16 <_printf_i+0x8c>
    bab6:	05800793          	li	a5,88
    baba:	18f68763          	beq	a3,a5,bc48 <_printf_i+0x1be>
    babe:	00d7ed63          	bltu	a5,a3,bad8 <_printf_i+0x4e>
    bac2:	20068f63          	beqz	a3,bce0 <_printf_i+0x256>
    bac6:	04300793          	li	a5,67
    baca:	0af68f63          	beq	a3,a5,bb88 <_printf_i+0xfe>
    bace:	04240a93          	addi	s5,s0,66
    bad2:	04d40123          	sb	a3,66(s0)
    bad6:	a0d1                	j	bb9a <_printf_i+0x110>
    bad8:	06300793          	li	a5,99
    badc:	0af68663          	beq	a3,a5,bb88 <_printf_i+0xfe>
    bae0:	06400793          	li	a5,100
    bae4:	fef695e3          	bne	a3,a5,bace <_printf_i+0x44>
    bae8:	401c                	lw	a5,0(s0)
    baea:	4308                	lw	a0,0(a4)
    baec:	0807f693          	andi	a3,a5,128
    baf0:	00450593          	addi	a1,a0,4
    baf4:	c6cd                	beqz	a3,bb9e <_printf_i+0x114>
    baf6:	411c                	lw	a5,0(a0)
    baf8:	c30c                	sw	a1,0(a4)
    bafa:	0007d863          	bgez	a5,bb0a <_printf_i+0x80>
    bafe:	02d00713          	li	a4,45
    bb02:	40f007b3          	neg	a5,a5
    bb06:	04e401a3          	sb	a4,67(s0)
    bb0a:	00001697          	auipc	a3,0x1
    bb0e:	18e68693          	addi	a3,a3,398 # cc98 <tcp_backoff+0x44>
    bb12:	4729                	li	a4,10
    bb14:	a86d                	j	bbce <_printf_i+0x144>
    bb16:	07000793          	li	a5,112
    bb1a:	16f68363          	beq	a3,a5,bc80 <_printf_i+0x1f6>
    bb1e:	02d7e563          	bltu	a5,a3,bb48 <_printf_i+0xbe>
    bb22:	06e00793          	li	a5,110
    bb26:	18f68a63          	beq	a3,a5,bcba <_printf_i+0x230>
    bb2a:	06f00793          	li	a5,111
    bb2e:	faf690e3          	bne	a3,a5,bace <_printf_i+0x44>
    bb32:	400c                	lw	a1,0(s0)
    bb34:	431c                	lw	a5,0(a4)
    bb36:	0805f813          	andi	a6,a1,128
    bb3a:	00478513          	addi	a0,a5,4
    bb3e:	06080863          	beqz	a6,bbae <_printf_i+0x124>
    bb42:	c308                	sw	a0,0(a4)
    bb44:	439c                	lw	a5,0(a5)
    bb46:	a88d                	j	bbb8 <_printf_i+0x12e>
    bb48:	07500793          	li	a5,117
    bb4c:	fef683e3          	beq	a3,a5,bb32 <_printf_i+0xa8>
    bb50:	07800793          	li	a5,120
    bb54:	12f68a63          	beq	a3,a5,bc88 <_printf_i+0x1fe>
    bb58:	07300793          	li	a5,115
    bb5c:	f6f699e3          	bne	a3,a5,bace <_printf_i+0x44>
    bb60:	431c                	lw	a5,0(a4)
    bb62:	41d0                	lw	a2,4(a1)
    bb64:	4581                	li	a1,0
    bb66:	00478693          	addi	a3,a5,4
    bb6a:	c314                	sw	a3,0(a4)
    bb6c:	0007aa83          	lw	s5,0(a5)
    bb70:	8556                	mv	a0,s5
    bb72:	167000ef          	jal	ra,c4d8 <memchr>
    bb76:	c501                	beqz	a0,bb7e <_printf_i+0xf4>
    bb78:	41550533          	sub	a0,a0,s5
    bb7c:	c048                	sw	a0,4(s0)
    bb7e:	405c                	lw	a5,4(s0)
    bb80:	c81c                	sw	a5,16(s0)
    bb82:	040401a3          	sb	zero,67(s0)
    bb86:	a861                	j	bc1e <_printf_i+0x194>
    bb88:	431c                	lw	a5,0(a4)
    bb8a:	04240a93          	addi	s5,s0,66
    bb8e:	00478693          	addi	a3,a5,4
    bb92:	439c                	lw	a5,0(a5)
    bb94:	c314                	sw	a3,0(a4)
    bb96:	04f40123          	sb	a5,66(s0)
    bb9a:	4785                	li	a5,1
    bb9c:	b7d5                	j	bb80 <_printf_i+0xf6>
    bb9e:	0407f693          	andi	a3,a5,64
    bba2:	411c                	lw	a5,0(a0)
    bba4:	c30c                	sw	a1,0(a4)
    bba6:	dab1                	beqz	a3,bafa <_printf_i+0x70>
    bba8:	07c2                	slli	a5,a5,0x10
    bbaa:	87c1                	srai	a5,a5,0x10
    bbac:	b7b9                	j	bafa <_printf_i+0x70>
    bbae:	0405f593          	andi	a1,a1,64
    bbb2:	c308                	sw	a0,0(a4)
    bbb4:	d9c1                	beqz	a1,bb44 <_printf_i+0xba>
    bbb6:	239e                	lhu	a5,0(a5)
    bbb8:	06f00713          	li	a4,111
    bbbc:	0ee68763          	beq	a3,a4,bcaa <_printf_i+0x220>
    bbc0:	00001697          	auipc	a3,0x1
    bbc4:	0d868693          	addi	a3,a3,216 # cc98 <tcp_backoff+0x44>
    bbc8:	4729                	li	a4,10
    bbca:	040401a3          	sb	zero,67(s0)
    bbce:	404c                	lw	a1,4(s0)
    bbd0:	c40c                	sw	a1,8(s0)
    bbd2:	0005c563          	bltz	a1,bbdc <_printf_i+0x152>
    bbd6:	4008                	lw	a0,0(s0)
    bbd8:	996d                	andi	a0,a0,-5
    bbda:	c008                	sw	a0,0(s0)
    bbdc:	e399                	bnez	a5,bbe2 <_printf_i+0x158>
    bbde:	8ab2                	mv	s5,a2
    bbe0:	cd89                	beqz	a1,bbfa <_printf_i+0x170>
    bbe2:	8ab2                	mv	s5,a2
    bbe4:	02e7f5b3          	remu	a1,a5,a4
    bbe8:	1afd                	addi	s5,s5,-1
    bbea:	95b6                	add	a1,a1,a3
    bbec:	218c                	lbu	a1,0(a1)
    bbee:	00ba8023          	sb	a1,0(s5)
    bbf2:	02e7d5b3          	divu	a1,a5,a4
    bbf6:	0ce7f063          	bgeu	a5,a4,bcb6 <_printf_i+0x22c>
    bbfa:	47a1                	li	a5,8
    bbfc:	00f71e63          	bne	a4,a5,bc18 <_printf_i+0x18e>
    bc00:	401c                	lw	a5,0(s0)
    bc02:	8b85                	andi	a5,a5,1
    bc04:	cb91                	beqz	a5,bc18 <_printf_i+0x18e>
    bc06:	4058                	lw	a4,4(s0)
    bc08:	481c                	lw	a5,16(s0)
    bc0a:	00e7c763          	blt	a5,a4,bc18 <_printf_i+0x18e>
    bc0e:	03000793          	li	a5,48
    bc12:	fefa8fa3          	sb	a5,-1(s5)
    bc16:	1afd                	addi	s5,s5,-1
    bc18:	41560633          	sub	a2,a2,s5
    bc1c:	c810                	sw	a2,16(s0)
    bc1e:	874e                	mv	a4,s3
    bc20:	86ca                	mv	a3,s2
    bc22:	0070                	addi	a2,sp,12
    bc24:	85a2                	mv	a1,s0
    bc26:	8526                	mv	a0,s1
    bc28:	d57ff0ef          	jal	ra,b97e <_printf_common>
    bc2c:	5a7d                	li	s4,-1
    bc2e:	0b451d63          	bne	a0,s4,bce8 <_printf_i+0x25e>
    bc32:	557d                	li	a0,-1
    bc34:	50b2                	lw	ra,44(sp)
    bc36:	5422                	lw	s0,40(sp)
    bc38:	5492                	lw	s1,36(sp)
    bc3a:	5902                	lw	s2,32(sp)
    bc3c:	49f2                	lw	s3,28(sp)
    bc3e:	4a62                	lw	s4,24(sp)
    bc40:	4ad2                	lw	s5,20(sp)
    bc42:	4b42                	lw	s6,16(sp)
    bc44:	6145                	addi	sp,sp,48
    bc46:	8082                	ret
    bc48:	04d582a3          	sb	a3,69(a1)
    bc4c:	00001697          	auipc	a3,0x1
    bc50:	04c68693          	addi	a3,a3,76 # cc98 <tcp_backoff+0x44>
    bc54:	400c                	lw	a1,0(s0)
    bc56:	4308                	lw	a0,0(a4)
    bc58:	0805f813          	andi	a6,a1,128
    bc5c:	411c                	lw	a5,0(a0)
    bc5e:	0511                	addi	a0,a0,4
    bc60:	02080d63          	beqz	a6,bc9a <_printf_i+0x210>
    bc64:	c308                	sw	a0,0(a4)
    bc66:	0015f713          	andi	a4,a1,1
    bc6a:	c701                	beqz	a4,bc72 <_printf_i+0x1e8>
    bc6c:	0205e593          	ori	a1,a1,32
    bc70:	c00c                	sw	a1,0(s0)
    bc72:	4741                	li	a4,16
    bc74:	fbb9                	bnez	a5,bbca <_printf_i+0x140>
    bc76:	400c                	lw	a1,0(s0)
    bc78:	fdf5f593          	andi	a1,a1,-33
    bc7c:	c00c                	sw	a1,0(s0)
    bc7e:	b7b1                	j	bbca <_printf_i+0x140>
    bc80:	419c                	lw	a5,0(a1)
    bc82:	0207e793          	ori	a5,a5,32
    bc86:	c19c                	sw	a5,0(a1)
    bc88:	07800793          	li	a5,120
    bc8c:	04f402a3          	sb	a5,69(s0)
    bc90:	00001697          	auipc	a3,0x1
    bc94:	01c68693          	addi	a3,a3,28 # ccac <tcp_backoff+0x58>
    bc98:	bf75                	j	bc54 <_printf_i+0x1ca>
    bc9a:	0405f813          	andi	a6,a1,64
    bc9e:	c308                	sw	a0,0(a4)
    bca0:	fc0803e3          	beqz	a6,bc66 <_printf_i+0x1dc>
    bca4:	07c2                	slli	a5,a5,0x10
    bca6:	83c1                	srli	a5,a5,0x10
    bca8:	bf7d                	j	bc66 <_printf_i+0x1dc>
    bcaa:	00001697          	auipc	a3,0x1
    bcae:	fee68693          	addi	a3,a3,-18 # cc98 <tcp_backoff+0x44>
    bcb2:	4721                	li	a4,8
    bcb4:	bf19                	j	bbca <_printf_i+0x140>
    bcb6:	87ae                	mv	a5,a1
    bcb8:	b735                	j	bbe4 <_printf_i+0x15a>
    bcba:	4194                	lw	a3,0(a1)
    bcbc:	431c                	lw	a5,0(a4)
    bcbe:	49cc                	lw	a1,20(a1)
    bcc0:	0806f813          	andi	a6,a3,128
    bcc4:	00478513          	addi	a0,a5,4
    bcc8:	00080663          	beqz	a6,bcd4 <_printf_i+0x24a>
    bccc:	c308                	sw	a0,0(a4)
    bcce:	439c                	lw	a5,0(a5)
    bcd0:	c38c                	sw	a1,0(a5)
    bcd2:	a039                	j	bce0 <_printf_i+0x256>
    bcd4:	c308                	sw	a0,0(a4)
    bcd6:	0406f693          	andi	a3,a3,64
    bcda:	439c                	lw	a5,0(a5)
    bcdc:	daf5                	beqz	a3,bcd0 <_printf_i+0x246>
    bcde:	a38e                	sh	a1,0(a5)
    bce0:	00042823          	sw	zero,16(s0)
    bce4:	8ab2                	mv	s5,a2
    bce6:	bf25                	j	bc1e <_printf_i+0x194>
    bce8:	4814                	lw	a3,16(s0)
    bcea:	8656                	mv	a2,s5
    bcec:	85ca                	mv	a1,s2
    bcee:	8526                	mv	a0,s1
    bcf0:	9982                	jalr	s3
    bcf2:	f54500e3          	beq	a0,s4,bc32 <_printf_i+0x1a8>
    bcf6:	401c                	lw	a5,0(s0)
    bcf8:	8b89                	andi	a5,a5,2
    bcfa:	e78d                	bnez	a5,bd24 <_printf_i+0x29a>
    bcfc:	47b2                	lw	a5,12(sp)
    bcfe:	4448                	lw	a0,12(s0)
    bd00:	f2f55ae3          	bge	a0,a5,bc34 <_printf_i+0x1aa>
    bd04:	853e                	mv	a0,a5
    bd06:	b73d                	j	bc34 <_printf_i+0x1aa>
    bd08:	4685                	li	a3,1
    bd0a:	8656                	mv	a2,s5
    bd0c:	85ca                	mv	a1,s2
    bd0e:	8526                	mv	a0,s1
    bd10:	9982                	jalr	s3
    bd12:	f36500e3          	beq	a0,s6,bc32 <_printf_i+0x1a8>
    bd16:	0a05                	addi	s4,s4,1
    bd18:	445c                	lw	a5,12(s0)
    bd1a:	4732                	lw	a4,12(sp)
    bd1c:	8f99                	sub	a5,a5,a4
    bd1e:	fefa45e3          	blt	s4,a5,bd08 <_printf_i+0x27e>
    bd22:	bfe9                	j	bcfc <_printf_i+0x272>
    bd24:	4a01                	li	s4,0
    bd26:	01940a93          	addi	s5,s0,25
    bd2a:	5b7d                	li	s6,-1
    bd2c:	b7f5                	j	bd18 <_printf_i+0x28e>

0000bd2e <iprintf>:
    bd2e:	7139                	addi	sp,sp,-64
    bd30:	da3e                	sw	a5,52(sp)
    bd32:	d22e                	sw	a1,36(sp)
    bd34:	d432                	sw	a2,40(sp)
    bd36:	d636                	sw	a3,44(sp)
    bd38:	d83a                	sw	a4,48(sp)
    bd3a:	dc42                	sw	a6,56(sp)
    bd3c:	de46                	sw	a7,60(sp)
    bd3e:	84818793          	addi	a5,gp,-1976 # 20000148 <_impure_ptr>
    bd42:	cc22                	sw	s0,24(sp)
    bd44:	4380                	lw	s0,0(a5)
    bd46:	ca26                	sw	s1,20(sp)
    bd48:	ce06                	sw	ra,28(sp)
    bd4a:	84aa                	mv	s1,a0
    bd4c:	c409                	beqz	s0,bd56 <iprintf+0x28>
    bd4e:	4c1c                	lw	a5,24(s0)
    bd50:	e399                	bnez	a5,bd56 <iprintf+0x28>
    bd52:	8522                	mv	a0,s0
    bd54:	2325                	jal	c27c <__sinit>
    bd56:	440c                	lw	a1,8(s0)
    bd58:	1054                	addi	a3,sp,36
    bd5a:	8626                	mv	a2,s1
    bd5c:	8522                	mv	a0,s0
    bd5e:	c636                	sw	a3,12(sp)
    bd60:	993ff0ef          	jal	ra,b6f2 <_vfiprintf_r>
    bd64:	40f2                	lw	ra,28(sp)
    bd66:	4462                	lw	s0,24(sp)
    bd68:	44d2                	lw	s1,20(sp)
    bd6a:	6121                	addi	sp,sp,64
    bd6c:	8082                	ret

0000bd6e <putchar>:
    bd6e:	1101                	addi	sp,sp,-32
    bd70:	84818793          	addi	a5,gp,-1976 # 20000148 <_impure_ptr>
    bd74:	cc22                	sw	s0,24(sp)
    bd76:	4380                	lw	s0,0(a5)
    bd78:	ce06                	sw	ra,28(sp)
    bd7a:	85aa                	mv	a1,a0
    bd7c:	c419                	beqz	s0,bd8a <putchar+0x1c>
    bd7e:	4c1c                	lw	a5,24(s0)
    bd80:	e789                	bnez	a5,bd8a <putchar+0x1c>
    bd82:	c62a                	sw	a0,12(sp)
    bd84:	8522                	mv	a0,s0
    bd86:	29dd                	jal	c27c <__sinit>
    bd88:	45b2                	lw	a1,12(sp)
    bd8a:	4410                	lw	a2,8(s0)
    bd8c:	8522                	mv	a0,s0
    bd8e:	4462                	lw	s0,24(sp)
    bd90:	40f2                	lw	ra,28(sp)
    bd92:	6105                	addi	sp,sp,32
    bd94:	0cf0006f          	j	c662 <_putc_r>

0000bd98 <_puts_r>:
    bd98:	1101                	addi	sp,sp,-32
    bd9a:	ca26                	sw	s1,20(sp)
    bd9c:	c84a                	sw	s2,16(sp)
    bd9e:	ce06                	sw	ra,28(sp)
    bda0:	cc22                	sw	s0,24(sp)
    bda2:	c64e                	sw	s3,12(sp)
    bda4:	c452                	sw	s4,8(sp)
    bda6:	84aa                	mv	s1,a0
    bda8:	892e                	mv	s2,a1
    bdaa:	c501                	beqz	a0,bdb2 <_puts_r+0x1a>
    bdac:	4d1c                	lw	a5,24(a0)
    bdae:	e391                	bnez	a5,bdb2 <_puts_r+0x1a>
    bdb0:	21f1                	jal	c27c <__sinit>
    bdb2:	4c9c                	lw	a5,24(s1)
    bdb4:	4480                	lw	s0,8(s1)
    bdb6:	e399                	bnez	a5,bdbc <_puts_r+0x24>
    bdb8:	8526                	mv	a0,s1
    bdba:	21c9                	jal	c27c <__sinit>
    bdbc:	00001797          	auipc	a5,0x1
    bdc0:	f2478793          	addi	a5,a5,-220 # cce0 <__sf_fake_stdin>
    bdc4:	02f41b63          	bne	s0,a5,bdfa <_puts_r+0x62>
    bdc8:	40c0                	lw	s0,4(s1)
    bdca:	245e                	lhu	a5,12(s0)
    bdcc:	8ba1                	andi	a5,a5,8
    bdce:	c7b1                	beqz	a5,be1a <_puts_r+0x82>
    bdd0:	481c                	lw	a5,16(s0)
    bdd2:	c7a1                	beqz	a5,be1a <_puts_r+0x82>
    bdd4:	59fd                	li	s3,-1
    bdd6:	4a29                	li	s4,10
    bdd8:	441c                	lw	a5,8(s0)
    bdda:	00094583          	lbu	a1,0(s2)
    bdde:	17fd                	addi	a5,a5,-1
    bde0:	e9b1                	bnez	a1,be34 <_puts_r+0x9c>
    bde2:	c41c                	sw	a5,8(s0)
    bde4:	0607dd63          	bgez	a5,be5e <_puts_r+0xc6>
    bde8:	8622                	mv	a2,s0
    bdea:	45a9                	li	a1,10
    bdec:	8526                	mv	a0,s1
    bdee:	2069                	jal	be78 <__swbuf_r>
    bdf0:	57fd                	li	a5,-1
    bdf2:	02f50863          	beq	a0,a5,be22 <_puts_r+0x8a>
    bdf6:	4529                	li	a0,10
    bdf8:	a035                	j	be24 <_puts_r+0x8c>
    bdfa:	00001797          	auipc	a5,0x1
    bdfe:	f0678793          	addi	a5,a5,-250 # cd00 <__sf_fake_stdout>
    be02:	00f41463          	bne	s0,a5,be0a <_puts_r+0x72>
    be06:	4480                	lw	s0,8(s1)
    be08:	b7c9                	j	bdca <_puts_r+0x32>
    be0a:	00001797          	auipc	a5,0x1
    be0e:	eb678793          	addi	a5,a5,-330 # ccc0 <__sf_fake_stderr>
    be12:	faf41ce3          	bne	s0,a5,bdca <_puts_r+0x32>
    be16:	44c0                	lw	s0,12(s1)
    be18:	bf4d                	j	bdca <_puts_r+0x32>
    be1a:	85a2                	mv	a1,s0
    be1c:	8526                	mv	a0,s1
    be1e:	2a19                	jal	bf34 <__swsetup_r>
    be20:	d955                	beqz	a0,bdd4 <_puts_r+0x3c>
    be22:	557d                	li	a0,-1
    be24:	40f2                	lw	ra,28(sp)
    be26:	4462                	lw	s0,24(sp)
    be28:	44d2                	lw	s1,20(sp)
    be2a:	4942                	lw	s2,16(sp)
    be2c:	49b2                	lw	s3,12(sp)
    be2e:	4a22                	lw	s4,8(sp)
    be30:	6105                	addi	sp,sp,32
    be32:	8082                	ret
    be34:	c41c                	sw	a5,8(s0)
    be36:	0905                	addi	s2,s2,1
    be38:	0007d763          	bgez	a5,be46 <_puts_r+0xae>
    be3c:	4c18                	lw	a4,24(s0)
    be3e:	00e7ca63          	blt	a5,a4,be52 <_puts_r+0xba>
    be42:	01458863          	beq	a1,s4,be52 <_puts_r+0xba>
    be46:	401c                	lw	a5,0(s0)
    be48:	00178713          	addi	a4,a5,1
    be4c:	c018                	sw	a4,0(s0)
    be4e:	a38c                	sb	a1,0(a5)
    be50:	b761                	j	bdd8 <_puts_r+0x40>
    be52:	8622                	mv	a2,s0
    be54:	8526                	mv	a0,s1
    be56:	200d                	jal	be78 <__swbuf_r>
    be58:	f93510e3          	bne	a0,s3,bdd8 <_puts_r+0x40>
    be5c:	b7d9                	j	be22 <_puts_r+0x8a>
    be5e:	401c                	lw	a5,0(s0)
    be60:	00178713          	addi	a4,a5,1
    be64:	c018                	sw	a4,0(s0)
    be66:	4729                	li	a4,10
    be68:	a398                	sb	a4,0(a5)
    be6a:	b771                	j	bdf6 <_puts_r+0x5e>

0000be6c <puts>:
    be6c:	84818793          	addi	a5,gp,-1976 # 20000148 <_impure_ptr>
    be70:	85aa                	mv	a1,a0
    be72:	4388                	lw	a0,0(a5)
    be74:	f25ff06f          	j	bd98 <_puts_r>

0000be78 <__swbuf_r>:
    be78:	1101                	addi	sp,sp,-32
    be7a:	cc22                	sw	s0,24(sp)
    be7c:	ca26                	sw	s1,20(sp)
    be7e:	c84a                	sw	s2,16(sp)
    be80:	ce06                	sw	ra,28(sp)
    be82:	c64e                	sw	s3,12(sp)
    be84:	84aa                	mv	s1,a0
    be86:	892e                	mv	s2,a1
    be88:	8432                	mv	s0,a2
    be8a:	c501                	beqz	a0,be92 <__swbuf_r+0x1a>
    be8c:	4d1c                	lw	a5,24(a0)
    be8e:	e391                	bnez	a5,be92 <__swbuf_r+0x1a>
    be90:	26f5                	jal	c27c <__sinit>
    be92:	00001797          	auipc	a5,0x1
    be96:	e4e78793          	addi	a5,a5,-434 # cce0 <__sf_fake_stdin>
    be9a:	06f41763          	bne	s0,a5,bf08 <__swbuf_r+0x90>
    be9e:	40c0                	lw	s0,4(s1)
    bea0:	4c1c                	lw	a5,24(s0)
    bea2:	c41c                	sw	a5,8(s0)
    bea4:	245e                	lhu	a5,12(s0)
    bea6:	8ba1                	andi	a5,a5,8
    bea8:	c3c1                	beqz	a5,bf28 <__swbuf_r+0xb0>
    beaa:	481c                	lw	a5,16(s0)
    beac:	cfb5                	beqz	a5,bf28 <__swbuf_r+0xb0>
    beae:	481c                	lw	a5,16(s0)
    beb0:	4008                	lw	a0,0(s0)
    beb2:	0ff97993          	andi	s3,s2,255
    beb6:	0ff97913          	andi	s2,s2,255
    beba:	8d1d                	sub	a0,a0,a5
    bebc:	485c                	lw	a5,20(s0)
    bebe:	00f54663          	blt	a0,a5,beca <__swbuf_r+0x52>
    bec2:	85a2                	mv	a1,s0
    bec4:	8526                	mv	a0,s1
    bec6:	2c69                	jal	c160 <_fflush_r>
    bec8:	e525                	bnez	a0,bf30 <__swbuf_r+0xb8>
    beca:	441c                	lw	a5,8(s0)
    becc:	0505                	addi	a0,a0,1
    bece:	17fd                	addi	a5,a5,-1
    bed0:	c41c                	sw	a5,8(s0)
    bed2:	401c                	lw	a5,0(s0)
    bed4:	00178713          	addi	a4,a5,1
    bed8:	c018                	sw	a4,0(s0)
    beda:	01378023          	sb	s3,0(a5)
    bede:	485c                	lw	a5,20(s0)
    bee0:	00a78863          	beq	a5,a0,bef0 <__swbuf_r+0x78>
    bee4:	245e                	lhu	a5,12(s0)
    bee6:	8b85                	andi	a5,a5,1
    bee8:	cb81                	beqz	a5,bef8 <__swbuf_r+0x80>
    beea:	47a9                	li	a5,10
    beec:	00f91663          	bne	s2,a5,bef8 <__swbuf_r+0x80>
    bef0:	85a2                	mv	a1,s0
    bef2:	8526                	mv	a0,s1
    bef4:	24b5                	jal	c160 <_fflush_r>
    bef6:	ed0d                	bnez	a0,bf30 <__swbuf_r+0xb8>
    bef8:	40f2                	lw	ra,28(sp)
    befa:	4462                	lw	s0,24(sp)
    befc:	854a                	mv	a0,s2
    befe:	44d2                	lw	s1,20(sp)
    bf00:	4942                	lw	s2,16(sp)
    bf02:	49b2                	lw	s3,12(sp)
    bf04:	6105                	addi	sp,sp,32
    bf06:	8082                	ret
    bf08:	00001797          	auipc	a5,0x1
    bf0c:	df878793          	addi	a5,a5,-520 # cd00 <__sf_fake_stdout>
    bf10:	00f41463          	bne	s0,a5,bf18 <__swbuf_r+0xa0>
    bf14:	4480                	lw	s0,8(s1)
    bf16:	b769                	j	bea0 <__swbuf_r+0x28>
    bf18:	00001797          	auipc	a5,0x1
    bf1c:	da878793          	addi	a5,a5,-600 # ccc0 <__sf_fake_stderr>
    bf20:	f8f410e3          	bne	s0,a5,bea0 <__swbuf_r+0x28>
    bf24:	44c0                	lw	s0,12(s1)
    bf26:	bfad                	j	bea0 <__swbuf_r+0x28>
    bf28:	85a2                	mv	a1,s0
    bf2a:	8526                	mv	a0,s1
    bf2c:	2021                	jal	bf34 <__swsetup_r>
    bf2e:	d141                	beqz	a0,beae <__swbuf_r+0x36>
    bf30:	597d                	li	s2,-1
    bf32:	b7d9                	j	bef8 <__swbuf_r+0x80>

0000bf34 <__swsetup_r>:
    bf34:	1141                	addi	sp,sp,-16
    bf36:	84818793          	addi	a5,gp,-1976 # 20000148 <_impure_ptr>
    bf3a:	c226                	sw	s1,4(sp)
    bf3c:	4384                	lw	s1,0(a5)
    bf3e:	c422                	sw	s0,8(sp)
    bf40:	c04a                	sw	s2,0(sp)
    bf42:	c606                	sw	ra,12(sp)
    bf44:	892a                	mv	s2,a0
    bf46:	842e                	mv	s0,a1
    bf48:	c489                	beqz	s1,bf52 <__swsetup_r+0x1e>
    bf4a:	4c9c                	lw	a5,24(s1)
    bf4c:	e399                	bnez	a5,bf52 <__swsetup_r+0x1e>
    bf4e:	8526                	mv	a0,s1
    bf50:	2635                	jal	c27c <__sinit>
    bf52:	00001797          	auipc	a5,0x1
    bf56:	d8e78793          	addi	a5,a5,-626 # cce0 <__sf_fake_stdin>
    bf5a:	02f41b63          	bne	s0,a5,bf90 <__swsetup_r+0x5c>
    bf5e:	40c0                	lw	s0,4(s1)
    bf60:	00c41703          	lh	a4,12(s0)
    bf64:	01071793          	slli	a5,a4,0x10
    bf68:	83c1                	srli	a5,a5,0x10
    bf6a:	0087f693          	andi	a3,a5,8
    bf6e:	eaad                	bnez	a3,bfe0 <__swsetup_r+0xac>
    bf70:	0107f693          	andi	a3,a5,16
    bf74:	ee95                	bnez	a3,bfb0 <__swsetup_r+0x7c>
    bf76:	47a5                	li	a5,9
    bf78:	00f92023          	sw	a5,0(s2)
    bf7c:	04076713          	ori	a4,a4,64
    bf80:	a45a                	sh	a4,12(s0)
    bf82:	557d                	li	a0,-1
    bf84:	40b2                	lw	ra,12(sp)
    bf86:	4422                	lw	s0,8(sp)
    bf88:	4492                	lw	s1,4(sp)
    bf8a:	4902                	lw	s2,0(sp)
    bf8c:	0141                	addi	sp,sp,16
    bf8e:	8082                	ret
    bf90:	00001797          	auipc	a5,0x1
    bf94:	d7078793          	addi	a5,a5,-656 # cd00 <__sf_fake_stdout>
    bf98:	00f41463          	bne	s0,a5,bfa0 <__swsetup_r+0x6c>
    bf9c:	4480                	lw	s0,8(s1)
    bf9e:	b7c9                	j	bf60 <__swsetup_r+0x2c>
    bfa0:	00001797          	auipc	a5,0x1
    bfa4:	d2078793          	addi	a5,a5,-736 # ccc0 <__sf_fake_stderr>
    bfa8:	faf41ce3          	bne	s0,a5,bf60 <__swsetup_r+0x2c>
    bfac:	44c0                	lw	s0,12(s1)
    bfae:	bf4d                	j	bf60 <__swsetup_r+0x2c>
    bfb0:	8b91                	andi	a5,a5,4
    bfb2:	c39d                	beqz	a5,bfd8 <__swsetup_r+0xa4>
    bfb4:	584c                	lw	a1,52(s0)
    bfb6:	c989                	beqz	a1,bfc8 <__swsetup_r+0x94>
    bfb8:	04440793          	addi	a5,s0,68
    bfbc:	00f58463          	beq	a1,a5,bfc4 <__swsetup_r+0x90>
    bfc0:	854a                	mv	a0,s2
    bfc2:	233d                	jal	c4f0 <_free_r>
    bfc4:	02042a23          	sw	zero,52(s0)
    bfc8:	245e                	lhu	a5,12(s0)
    bfca:	00042223          	sw	zero,4(s0)
    bfce:	fdb7f793          	andi	a5,a5,-37
    bfd2:	a45e                	sh	a5,12(s0)
    bfd4:	481c                	lw	a5,16(s0)
    bfd6:	c01c                	sw	a5,0(s0)
    bfd8:	245e                	lhu	a5,12(s0)
    bfda:	0087e793          	ori	a5,a5,8
    bfde:	a45e                	sh	a5,12(s0)
    bfe0:	481c                	lw	a5,16(s0)
    bfe2:	eb99                	bnez	a5,bff8 <__swsetup_r+0xc4>
    bfe4:	245e                	lhu	a5,12(s0)
    bfe6:	20000713          	li	a4,512
    bfea:	2807f793          	andi	a5,a5,640
    bfee:	00e78563          	beq	a5,a4,bff8 <__swsetup_r+0xc4>
    bff2:	85a2                	mv	a1,s0
    bff4:	854a                	mv	a0,s2
    bff6:	2989                	jal	c448 <__smakebuf_r>
    bff8:	245e                	lhu	a5,12(s0)
    bffa:	0017f713          	andi	a4,a5,1
    bffe:	c31d                	beqz	a4,c024 <__swsetup_r+0xf0>
    c000:	485c                	lw	a5,20(s0)
    c002:	00042423          	sw	zero,8(s0)
    c006:	40f007b3          	neg	a5,a5
    c00a:	cc1c                	sw	a5,24(s0)
    c00c:	481c                	lw	a5,16(s0)
    c00e:	4501                	li	a0,0
    c010:	fbb5                	bnez	a5,bf84 <__swsetup_r+0x50>
    c012:	00c41783          	lh	a5,12(s0)
    c016:	0807f713          	andi	a4,a5,128
    c01a:	d72d                	beqz	a4,bf84 <__swsetup_r+0x50>
    c01c:	0407e793          	ori	a5,a5,64
    c020:	a45e                	sh	a5,12(s0)
    c022:	b785                	j	bf82 <__swsetup_r+0x4e>
    c024:	8b89                	andi	a5,a5,2
    c026:	4701                	li	a4,0
    c028:	e391                	bnez	a5,c02c <__swsetup_r+0xf8>
    c02a:	4858                	lw	a4,20(s0)
    c02c:	c418                	sw	a4,8(s0)
    c02e:	bff9                	j	c00c <__swsetup_r+0xd8>

0000c030 <__sflush_r>:
    c030:	25de                	lhu	a5,12(a1)
    c032:	1101                	addi	sp,sp,-32
    c034:	cc22                	sw	s0,24(sp)
    c036:	ca26                	sw	s1,20(sp)
    c038:	ce06                	sw	ra,28(sp)
    c03a:	c84a                	sw	s2,16(sp)
    c03c:	c64e                	sw	s3,12(sp)
    c03e:	0087f713          	andi	a4,a5,8
    c042:	84aa                	mv	s1,a0
    c044:	842e                	mv	s0,a1
    c046:	eb79                	bnez	a4,c11c <__sflush_r+0xec>
    c048:	41d8                	lw	a4,4(a1)
    c04a:	00e04d63          	bgtz	a4,c064 <__sflush_r+0x34>
    c04e:	41b8                	lw	a4,64(a1)
    c050:	00e04a63          	bgtz	a4,c064 <__sflush_r+0x34>
    c054:	4501                	li	a0,0
    c056:	40f2                	lw	ra,28(sp)
    c058:	4462                	lw	s0,24(sp)
    c05a:	44d2                	lw	s1,20(sp)
    c05c:	4942                	lw	s2,16(sp)
    c05e:	49b2                	lw	s3,12(sp)
    c060:	6105                	addi	sp,sp,32
    c062:	8082                	ret
    c064:	5458                	lw	a4,44(s0)
    c066:	d77d                	beqz	a4,c054 <__sflush_r+0x24>
    c068:	0004a903          	lw	s2,0(s1)
    c06c:	01379693          	slli	a3,a5,0x13
    c070:	0004a023          	sw	zero,0(s1)
    c074:	0606db63          	bgez	a3,c0ea <__sflush_r+0xba>
    c078:	4870                	lw	a2,84(s0)
    c07a:	245e                	lhu	a5,12(s0)
    c07c:	8b91                	andi	a5,a5,4
    c07e:	c799                	beqz	a5,c08c <__sflush_r+0x5c>
    c080:	405c                	lw	a5,4(s0)
    c082:	8e1d                	sub	a2,a2,a5
    c084:	585c                	lw	a5,52(s0)
    c086:	c399                	beqz	a5,c08c <__sflush_r+0x5c>
    c088:	403c                	lw	a5,64(s0)
    c08a:	8e1d                	sub	a2,a2,a5
    c08c:	545c                	lw	a5,44(s0)
    c08e:	500c                	lw	a1,32(s0)
    c090:	4681                	li	a3,0
    c092:	8526                	mv	a0,s1
    c094:	9782                	jalr	a5
    c096:	57fd                	li	a5,-1
    c098:	245a                	lhu	a4,12(s0)
    c09a:	00f51d63          	bne	a0,a5,c0b4 <__sflush_r+0x84>
    c09e:	4094                	lw	a3,0(s1)
    c0a0:	47f5                	li	a5,29
    c0a2:	06d7e863          	bltu	a5,a3,c112 <__sflush_r+0xe2>
    c0a6:	204007b7          	lui	a5,0x20400
    c0aa:	0785                	addi	a5,a5,1
    c0ac:	00d7d7b3          	srl	a5,a5,a3
    c0b0:	8b85                	andi	a5,a5,1
    c0b2:	c3a5                	beqz	a5,c112 <__sflush_r+0xe2>
    c0b4:	481c                	lw	a5,16(s0)
    c0b6:	00042223          	sw	zero,4(s0)
    c0ba:	c01c                	sw	a5,0(s0)
    c0bc:	01371793          	slli	a5,a4,0x13
    c0c0:	0007d863          	bgez	a5,c0d0 <__sflush_r+0xa0>
    c0c4:	57fd                	li	a5,-1
    c0c6:	00f51463          	bne	a0,a5,c0ce <__sflush_r+0x9e>
    c0ca:	409c                	lw	a5,0(s1)
    c0cc:	e391                	bnez	a5,c0d0 <__sflush_r+0xa0>
    c0ce:	c868                	sw	a0,84(s0)
    c0d0:	584c                	lw	a1,52(s0)
    c0d2:	0124a023          	sw	s2,0(s1)
    c0d6:	ddbd                	beqz	a1,c054 <__sflush_r+0x24>
    c0d8:	04440793          	addi	a5,s0,68
    c0dc:	00f58463          	beq	a1,a5,c0e4 <__sflush_r+0xb4>
    c0e0:	8526                	mv	a0,s1
    c0e2:	2139                	jal	c4f0 <_free_r>
    c0e4:	02042a23          	sw	zero,52(s0)
    c0e8:	b7b5                	j	c054 <__sflush_r+0x24>
    c0ea:	500c                	lw	a1,32(s0)
    c0ec:	4601                	li	a2,0
    c0ee:	4685                	li	a3,1
    c0f0:	8526                	mv	a0,s1
    c0f2:	9702                	jalr	a4
    c0f4:	57fd                	li	a5,-1
    c0f6:	862a                	mv	a2,a0
    c0f8:	f8f511e3          	bne	a0,a5,c07a <__sflush_r+0x4a>
    c0fc:	409c                	lw	a5,0(s1)
    c0fe:	dfb5                	beqz	a5,c07a <__sflush_r+0x4a>
    c100:	4775                	li	a4,29
    c102:	00e78563          	beq	a5,a4,c10c <__sflush_r+0xdc>
    c106:	4759                	li	a4,22
    c108:	04e79363          	bne	a5,a4,c14e <__sflush_r+0x11e>
    c10c:	0124a023          	sw	s2,0(s1)
    c110:	b791                	j	c054 <__sflush_r+0x24>
    c112:	04076713          	ori	a4,a4,64
    c116:	a45a                	sh	a4,12(s0)
    c118:	557d                	li	a0,-1
    c11a:	bf35                	j	c056 <__sflush_r+0x26>
    c11c:	0105a983          	lw	s3,16(a1)
    c120:	f2098ae3          	beqz	s3,c054 <__sflush_r+0x24>
    c124:	0005a903          	lw	s2,0(a1)
    c128:	8b8d                	andi	a5,a5,3
    c12a:	0135a023          	sw	s3,0(a1)
    c12e:	41390933          	sub	s2,s2,s3
    c132:	4701                	li	a4,0
    c134:	e391                	bnez	a5,c138 <__sflush_r+0x108>
    c136:	49d8                	lw	a4,20(a1)
    c138:	c418                	sw	a4,8(s0)
    c13a:	f1205de3          	blez	s2,c054 <__sflush_r+0x24>
    c13e:	541c                	lw	a5,40(s0)
    c140:	500c                	lw	a1,32(s0)
    c142:	86ca                	mv	a3,s2
    c144:	864e                	mv	a2,s3
    c146:	8526                	mv	a0,s1
    c148:	9782                	jalr	a5
    c14a:	00a04763          	bgtz	a0,c158 <__sflush_r+0x128>
    c14e:	245e                	lhu	a5,12(s0)
    c150:	0407e793          	ori	a5,a5,64
    c154:	a45e                	sh	a5,12(s0)
    c156:	b7c9                	j	c118 <__sflush_r+0xe8>
    c158:	99aa                	add	s3,s3,a0
    c15a:	40a90933          	sub	s2,s2,a0
    c15e:	bff1                	j	c13a <__sflush_r+0x10a>

0000c160 <_fflush_r>:
    c160:	499c                	lw	a5,16(a1)
    c162:	c3a5                	beqz	a5,c1c2 <_fflush_r+0x62>
    c164:	1101                	addi	sp,sp,-32
    c166:	cc22                	sw	s0,24(sp)
    c168:	ce06                	sw	ra,28(sp)
    c16a:	842a                	mv	s0,a0
    c16c:	c511                	beqz	a0,c178 <_fflush_r+0x18>
    c16e:	4d1c                	lw	a5,24(a0)
    c170:	e781                	bnez	a5,c178 <_fflush_r+0x18>
    c172:	c62e                	sw	a1,12(sp)
    c174:	2221                	jal	c27c <__sinit>
    c176:	45b2                	lw	a1,12(sp)
    c178:	00001797          	auipc	a5,0x1
    c17c:	b6878793          	addi	a5,a5,-1176 # cce0 <__sf_fake_stdin>
    c180:	00f59c63          	bne	a1,a5,c198 <_fflush_r+0x38>
    c184:	404c                	lw	a1,4(s0)
    c186:	00c59783          	lh	a5,12(a1)
    c18a:	c79d                	beqz	a5,c1b8 <_fflush_r+0x58>
    c18c:	8522                	mv	a0,s0
    c18e:	4462                	lw	s0,24(sp)
    c190:	40f2                	lw	ra,28(sp)
    c192:	6105                	addi	sp,sp,32
    c194:	e9dff06f          	j	c030 <__sflush_r>
    c198:	00001797          	auipc	a5,0x1
    c19c:	b6878793          	addi	a5,a5,-1176 # cd00 <__sf_fake_stdout>
    c1a0:	00f59463          	bne	a1,a5,c1a8 <_fflush_r+0x48>
    c1a4:	440c                	lw	a1,8(s0)
    c1a6:	b7c5                	j	c186 <_fflush_r+0x26>
    c1a8:	00001797          	auipc	a5,0x1
    c1ac:	b1878793          	addi	a5,a5,-1256 # ccc0 <__sf_fake_stderr>
    c1b0:	fcf59be3          	bne	a1,a5,c186 <_fflush_r+0x26>
    c1b4:	444c                	lw	a1,12(s0)
    c1b6:	bfc1                	j	c186 <_fflush_r+0x26>
    c1b8:	40f2                	lw	ra,28(sp)
    c1ba:	4462                	lw	s0,24(sp)
    c1bc:	4501                	li	a0,0
    c1be:	6105                	addi	sp,sp,32
    c1c0:	8082                	ret
    c1c2:	4501                	li	a0,0
    c1c4:	8082                	ret

0000c1c6 <std>:
    c1c6:	1141                	addi	sp,sp,-16
    c1c8:	c422                	sw	s0,8(sp)
    c1ca:	c606                	sw	ra,12(sp)
    c1cc:	842a                	mv	s0,a0
    c1ce:	a54e                	sh	a1,12(a0)
    c1d0:	a572                	sh	a2,14(a0)
    c1d2:	00052023          	sw	zero,0(a0)
    c1d6:	00052223          	sw	zero,4(a0)
    c1da:	00052423          	sw	zero,8(a0)
    c1de:	06052223          	sw	zero,100(a0)
    c1e2:	00052823          	sw	zero,16(a0)
    c1e6:	00052a23          	sw	zero,20(a0)
    c1ea:	00052c23          	sw	zero,24(a0)
    c1ee:	4621                	li	a2,8
    c1f0:	4581                	li	a1,0
    c1f2:	05c50513          	addi	a0,a0,92
    c1f6:	b50f40ef          	jal	ra,546 <memset>
    c1fa:	00000797          	auipc	a5,0x0
    c1fe:	51e78793          	addi	a5,a5,1310 # c718 <__sread>
    c202:	d05c                	sw	a5,36(s0)
    c204:	00000797          	auipc	a5,0x0
    c208:	54078793          	addi	a5,a5,1344 # c744 <__swrite>
    c20c:	d41c                	sw	a5,40(s0)
    c20e:	00000797          	auipc	a5,0x0
    c212:	57e78793          	addi	a5,a5,1406 # c78c <__sseek>
    c216:	d45c                	sw	a5,44(s0)
    c218:	00000797          	auipc	a5,0x0
    c21c:	5a478793          	addi	a5,a5,1444 # c7bc <__sclose>
    c220:	d000                	sw	s0,32(s0)
    c222:	d81c                	sw	a5,48(s0)
    c224:	40b2                	lw	ra,12(sp)
    c226:	4422                	lw	s0,8(sp)
    c228:	0141                	addi	sp,sp,16
    c22a:	8082                	ret

0000c22c <_cleanup_r>:
    c22c:	00000597          	auipc	a1,0x0
    c230:	f3458593          	addi	a1,a1,-204 # c160 <_fflush_r>
    c234:	aa91                	j	c388 <_fwalk_reent>

0000c236 <__sfmoreglue>:
    c236:	1141                	addi	sp,sp,-16
    c238:	c226                	sw	s1,4(sp)
    c23a:	06800613          	li	a2,104
    c23e:	fff58493          	addi	s1,a1,-1
    c242:	02c484b3          	mul	s1,s1,a2
    c246:	c04a                	sw	s2,0(sp)
    c248:	892e                	mv	s2,a1
    c24a:	c422                	sw	s0,8(sp)
    c24c:	c606                	sw	ra,12(sp)
    c24e:	07448593          	addi	a1,s1,116
    c252:	2689                	jal	c594 <_malloc_r>
    c254:	842a                	mv	s0,a0
    c256:	cd01                	beqz	a0,c26e <__sfmoreglue+0x38>
    c258:	00052023          	sw	zero,0(a0)
    c25c:	01252223          	sw	s2,4(a0)
    c260:	0531                	addi	a0,a0,12
    c262:	c408                	sw	a0,8(s0)
    c264:	06848613          	addi	a2,s1,104
    c268:	4581                	li	a1,0
    c26a:	adcf40ef          	jal	ra,546 <memset>
    c26e:	8522                	mv	a0,s0
    c270:	40b2                	lw	ra,12(sp)
    c272:	4422                	lw	s0,8(sp)
    c274:	4492                	lw	s1,4(sp)
    c276:	4902                	lw	s2,0(sp)
    c278:	0141                	addi	sp,sp,16
    c27a:	8082                	ret

0000c27c <__sinit>:
    c27c:	4d1c                	lw	a5,24(a0)
    c27e:	e7a5                	bnez	a5,c2e6 <__sinit+0x6a>
    c280:	1141                	addi	sp,sp,-16
    c282:	c606                	sw	ra,12(sp)
    c284:	c422                	sw	s0,8(sp)
    c286:	00000797          	auipc	a5,0x0
    c28a:	fa678793          	addi	a5,a5,-90 # c22c <_cleanup_r>
    c28e:	d51c                	sw	a5,40(a0)
    c290:	87818793          	addi	a5,gp,-1928 # 20000178 <_global_impure_ptr>
    c294:	439c                	lw	a5,0(a5)
    c296:	04052423          	sw	zero,72(a0)
    c29a:	04052623          	sw	zero,76(a0)
    c29e:	04052823          	sw	zero,80(a0)
    c2a2:	00f51463          	bne	a0,a5,c2aa <__sinit+0x2e>
    c2a6:	4785                	li	a5,1
    c2a8:	cd1c                	sw	a5,24(a0)
    c2aa:	842a                	mv	s0,a0
    c2ac:	2835                	jal	c2e8 <__sfp>
    c2ae:	c048                	sw	a0,4(s0)
    c2b0:	8522                	mv	a0,s0
    c2b2:	281d                	jal	c2e8 <__sfp>
    c2b4:	c408                	sw	a0,8(s0)
    c2b6:	8522                	mv	a0,s0
    c2b8:	2805                	jal	c2e8 <__sfp>
    c2ba:	c448                	sw	a0,12(s0)
    c2bc:	4048                	lw	a0,4(s0)
    c2be:	4601                	li	a2,0
    c2c0:	4591                	li	a1,4
    c2c2:	f05ff0ef          	jal	ra,c1c6 <std>
    c2c6:	4408                	lw	a0,8(s0)
    c2c8:	4605                	li	a2,1
    c2ca:	45a5                	li	a1,9
    c2cc:	efbff0ef          	jal	ra,c1c6 <std>
    c2d0:	4448                	lw	a0,12(s0)
    c2d2:	4609                	li	a2,2
    c2d4:	45c9                	li	a1,18
    c2d6:	ef1ff0ef          	jal	ra,c1c6 <std>
    c2da:	4785                	li	a5,1
    c2dc:	cc1c                	sw	a5,24(s0)
    c2de:	40b2                	lw	ra,12(sp)
    c2e0:	4422                	lw	s0,8(sp)
    c2e2:	0141                	addi	sp,sp,16
    c2e4:	8082                	ret
    c2e6:	8082                	ret

0000c2e8 <__sfp>:
    c2e8:	1141                	addi	sp,sp,-16
    c2ea:	87818793          	addi	a5,gp,-1928 # 20000178 <_global_impure_ptr>
    c2ee:	c226                	sw	s1,4(sp)
    c2f0:	4384                	lw	s1,0(a5)
    c2f2:	c04a                	sw	s2,0(sp)
    c2f4:	c606                	sw	ra,12(sp)
    c2f6:	4c9c                	lw	a5,24(s1)
    c2f8:	c422                	sw	s0,8(sp)
    c2fa:	892a                	mv	s2,a0
    c2fc:	e781                	bnez	a5,c304 <__sfp+0x1c>
    c2fe:	8526                	mv	a0,s1
    c300:	f7dff0ef          	jal	ra,c27c <__sinit>
    c304:	04848493          	addi	s1,s1,72
    c308:	4480                	lw	s0,8(s1)
    c30a:	40dc                	lw	a5,4(s1)
    c30c:	17fd                	addi	a5,a5,-1
    c30e:	0007d663          	bgez	a5,c31a <__sfp+0x32>
    c312:	409c                	lw	a5,0(s1)
    c314:	cfb9                	beqz	a5,c372 <__sfp+0x8a>
    c316:	4084                	lw	s1,0(s1)
    c318:	bfc5                	j	c308 <__sfp+0x20>
    c31a:	00c41703          	lh	a4,12(s0)
    c31e:	e739                	bnez	a4,c36c <__sfp+0x84>
    c320:	77c1                	lui	a5,0xffff0
    c322:	0785                	addi	a5,a5,1
    c324:	06042223          	sw	zero,100(s0)
    c328:	00042023          	sw	zero,0(s0)
    c32c:	00042223          	sw	zero,4(s0)
    c330:	00042423          	sw	zero,8(s0)
    c334:	c45c                	sw	a5,12(s0)
    c336:	00042823          	sw	zero,16(s0)
    c33a:	00042a23          	sw	zero,20(s0)
    c33e:	00042c23          	sw	zero,24(s0)
    c342:	4621                	li	a2,8
    c344:	4581                	li	a1,0
    c346:	05c40513          	addi	a0,s0,92
    c34a:	9fcf40ef          	jal	ra,546 <memset>
    c34e:	02042a23          	sw	zero,52(s0)
    c352:	02042c23          	sw	zero,56(s0)
    c356:	04042423          	sw	zero,72(s0)
    c35a:	04042623          	sw	zero,76(s0)
    c35e:	8522                	mv	a0,s0
    c360:	40b2                	lw	ra,12(sp)
    c362:	4422                	lw	s0,8(sp)
    c364:	4492                	lw	s1,4(sp)
    c366:	4902                	lw	s2,0(sp)
    c368:	0141                	addi	sp,sp,16
    c36a:	8082                	ret
    c36c:	06840413          	addi	s0,s0,104
    c370:	bf71                	j	c30c <__sfp+0x24>
    c372:	4591                	li	a1,4
    c374:	854a                	mv	a0,s2
    c376:	ec1ff0ef          	jal	ra,c236 <__sfmoreglue>
    c37a:	c088                	sw	a0,0(s1)
    c37c:	fd49                	bnez	a0,c316 <__sfp+0x2e>
    c37e:	47b1                	li	a5,12
    c380:	00f92023          	sw	a5,0(s2)
    c384:	4401                	li	s0,0
    c386:	bfe1                	j	c35e <__sfp+0x76>

0000c388 <_fwalk_reent>:
    c388:	7179                	addi	sp,sp,-48
    c38a:	d422                	sw	s0,40(sp)
    c38c:	d04a                	sw	s2,32(sp)
    c38e:	cc52                	sw	s4,24(sp)
    c390:	ca56                	sw	s5,20(sp)
    c392:	c85a                	sw	s6,16(sp)
    c394:	c65e                	sw	s7,12(sp)
    c396:	d606                	sw	ra,44(sp)
    c398:	d226                	sw	s1,36(sp)
    c39a:	ce4e                	sw	s3,28(sp)
    c39c:	8a2a                	mv	s4,a0
    c39e:	8aae                	mv	s5,a1
    c3a0:	04850413          	addi	s0,a0,72
    c3a4:	4901                	li	s2,0
    c3a6:	4b05                	li	s6,1
    c3a8:	5bfd                	li	s7,-1
    c3aa:	ec09                	bnez	s0,c3c4 <_fwalk_reent+0x3c>
    c3ac:	50b2                	lw	ra,44(sp)
    c3ae:	5422                	lw	s0,40(sp)
    c3b0:	854a                	mv	a0,s2
    c3b2:	5492                	lw	s1,36(sp)
    c3b4:	5902                	lw	s2,32(sp)
    c3b6:	49f2                	lw	s3,28(sp)
    c3b8:	4a62                	lw	s4,24(sp)
    c3ba:	4ad2                	lw	s5,20(sp)
    c3bc:	4b42                	lw	s6,16(sp)
    c3be:	4bb2                	lw	s7,12(sp)
    c3c0:	6145                	addi	sp,sp,48
    c3c2:	8082                	ret
    c3c4:	4404                	lw	s1,8(s0)
    c3c6:	00442983          	lw	s3,4(s0)
    c3ca:	19fd                	addi	s3,s3,-1
    c3cc:	0009d463          	bgez	s3,c3d4 <_fwalk_reent+0x4c>
    c3d0:	4000                	lw	s0,0(s0)
    c3d2:	bfe1                	j	c3aa <_fwalk_reent+0x22>
    c3d4:	24de                	lhu	a5,12(s1)
    c3d6:	00fb7b63          	bgeu	s6,a5,c3ec <_fwalk_reent+0x64>
    c3da:	00e49783          	lh	a5,14(s1)
    c3de:	01778763          	beq	a5,s7,c3ec <_fwalk_reent+0x64>
    c3e2:	85a6                	mv	a1,s1
    c3e4:	8552                	mv	a0,s4
    c3e6:	9a82                	jalr	s5
    c3e8:	00a96933          	or	s2,s2,a0
    c3ec:	06848493          	addi	s1,s1,104
    c3f0:	bfe9                	j	c3ca <_fwalk_reent+0x42>

0000c3f2 <__swhatbuf_r>:
    c3f2:	7119                	addi	sp,sp,-128
    c3f4:	daa6                	sw	s1,116(sp)
    c3f6:	84ae                	mv	s1,a1
    c3f8:	00e59583          	lh	a1,14(a1)
    c3fc:	dca2                	sw	s0,120(sp)
    c3fe:	de86                	sw	ra,124(sp)
    c400:	8432                	mv	s0,a2
    c402:	0005db63          	bgez	a1,c418 <__swhatbuf_r+0x26>
    c406:	24de                	lhu	a5,12(s1)
    c408:	0006a023          	sw	zero,0(a3)
    c40c:	0807f793          	andi	a5,a5,128
    c410:	e39d                	bnez	a5,c436 <__swhatbuf_r+0x44>
    c412:	40000793          	li	a5,1024
    c416:	a015                	j	c43a <__swhatbuf_r+0x48>
    c418:	0830                	addi	a2,sp,24
    c41a:	c636                	sw	a3,12(sp)
    c41c:	2131                	jal	c828 <_fstat_r>
    c41e:	46b2                	lw	a3,12(sp)
    c420:	fe0543e3          	bltz	a0,c406 <__swhatbuf_r+0x14>
    c424:	4772                	lw	a4,28(sp)
    c426:	67bd                	lui	a5,0xf
    c428:	8ff9                	and	a5,a5,a4
    c42a:	7779                	lui	a4,0xffffe
    c42c:	97ba                	add	a5,a5,a4
    c42e:	0017b793          	seqz	a5,a5
    c432:	c29c                	sw	a5,0(a3)
    c434:	bff9                	j	c412 <__swhatbuf_r+0x20>
    c436:	04000793          	li	a5,64
    c43a:	c01c                	sw	a5,0(s0)
    c43c:	50f6                	lw	ra,124(sp)
    c43e:	5466                	lw	s0,120(sp)
    c440:	54d6                	lw	s1,116(sp)
    c442:	4501                	li	a0,0
    c444:	6109                	addi	sp,sp,128
    c446:	8082                	ret

0000c448 <__smakebuf_r>:
    c448:	25de                	lhu	a5,12(a1)
    c44a:	1101                	addi	sp,sp,-32
    c44c:	cc22                	sw	s0,24(sp)
    c44e:	ce06                	sw	ra,28(sp)
    c450:	ca26                	sw	s1,20(sp)
    c452:	c84a                	sw	s2,16(sp)
    c454:	8b89                	andi	a5,a5,2
    c456:	842e                	mv	s0,a1
    c458:	cf89                	beqz	a5,c472 <__smakebuf_r+0x2a>
    c45a:	04740793          	addi	a5,s0,71
    c45e:	c01c                	sw	a5,0(s0)
    c460:	c81c                	sw	a5,16(s0)
    c462:	4785                	li	a5,1
    c464:	c85c                	sw	a5,20(s0)
    c466:	40f2                	lw	ra,28(sp)
    c468:	4462                	lw	s0,24(sp)
    c46a:	44d2                	lw	s1,20(sp)
    c46c:	4942                	lw	s2,16(sp)
    c46e:	6105                	addi	sp,sp,32
    c470:	8082                	ret
    c472:	0074                	addi	a3,sp,12
    c474:	0030                	addi	a2,sp,8
    c476:	84aa                	mv	s1,a0
    c478:	f7bff0ef          	jal	ra,c3f2 <__swhatbuf_r>
    c47c:	45a2                	lw	a1,8(sp)
    c47e:	892a                	mv	s2,a0
    c480:	8526                	mv	a0,s1
    c482:	2a09                	jal	c594 <_malloc_r>
    c484:	e919                	bnez	a0,c49a <__smakebuf_r+0x52>
    c486:	00c41783          	lh	a5,12(s0)
    c48a:	2007f713          	andi	a4,a5,512
    c48e:	ff61                	bnez	a4,c466 <__smakebuf_r+0x1e>
    c490:	9bf1                	andi	a5,a5,-4
    c492:	0027e793          	ori	a5,a5,2
    c496:	a45e                	sh	a5,12(s0)
    c498:	b7c9                	j	c45a <__smakebuf_r+0x12>
    c49a:	00000797          	auipc	a5,0x0
    c49e:	d9278793          	addi	a5,a5,-622 # c22c <_cleanup_r>
    c4a2:	d49c                	sw	a5,40(s1)
    c4a4:	245e                	lhu	a5,12(s0)
    c4a6:	c008                	sw	a0,0(s0)
    c4a8:	c808                	sw	a0,16(s0)
    c4aa:	0807e793          	ori	a5,a5,128
    c4ae:	a45e                	sh	a5,12(s0)
    c4b0:	47a2                	lw	a5,8(sp)
    c4b2:	c85c                	sw	a5,20(s0)
    c4b4:	47b2                	lw	a5,12(sp)
    c4b6:	cb99                	beqz	a5,c4cc <__smakebuf_r+0x84>
    c4b8:	00e41583          	lh	a1,14(s0)
    c4bc:	8526                	mv	a0,s1
    c4be:	2e71                	jal	c85a <_isatty_r>
    c4c0:	c511                	beqz	a0,c4cc <__smakebuf_r+0x84>
    c4c2:	245e                	lhu	a5,12(s0)
    c4c4:	9bf1                	andi	a5,a5,-4
    c4c6:	0017e793          	ori	a5,a5,1
    c4ca:	a45e                	sh	a5,12(s0)
    c4cc:	245e                	lhu	a5,12(s0)
    c4ce:	00f96933          	or	s2,s2,a5
    c4d2:	01241623          	sh	s2,12(s0)
    c4d6:	bf41                	j	c466 <__smakebuf_r+0x1e>

0000c4d8 <memchr>:
    c4d8:	0ff5f593          	andi	a1,a1,255
    c4dc:	962a                	add	a2,a2,a0
    c4de:	00c51463          	bne	a0,a2,c4e6 <memchr+0xe>
    c4e2:	4501                	li	a0,0
    c4e4:	8082                	ret
    c4e6:	211c                	lbu	a5,0(a0)
    c4e8:	feb78ee3          	beq	a5,a1,c4e4 <memchr+0xc>
    c4ec:	0505                	addi	a0,a0,1
    c4ee:	bfc5                	j	c4de <memchr+0x6>

0000c4f0 <_free_r>:
    c4f0:	c1cd                	beqz	a1,c592 <_free_r+0xa2>
    c4f2:	ffc5a783          	lw	a5,-4(a1)
    c4f6:	1141                	addi	sp,sp,-16
    c4f8:	c422                	sw	s0,8(sp)
    c4fa:	c606                	sw	ra,12(sp)
    c4fc:	c226                	sw	s1,4(sp)
    c4fe:	ffc58413          	addi	s0,a1,-4
    c502:	0007d363          	bgez	a5,c508 <_free_r+0x18>
    c506:	943e                	add	s0,s0,a5
    c508:	84aa                	mv	s1,a0
    c50a:	2e55                	jal	c8be <__malloc_lock>
    c50c:	a2018793          	addi	a5,gp,-1504 # 20000320 <__malloc_free_list>
    c510:	439c                	lw	a5,0(a5)
    c512:	eb99                	bnez	a5,c528 <_free_r+0x38>
    c514:	00042223          	sw	zero,4(s0)
    c518:	a281a023          	sw	s0,-1504(gp) # 20000320 <__malloc_free_list>
    c51c:	4422                	lw	s0,8(sp)
    c51e:	40b2                	lw	ra,12(sp)
    c520:	8526                	mv	a0,s1
    c522:	4492                	lw	s1,4(sp)
    c524:	0141                	addi	sp,sp,16
    c526:	ae69                	j	c8c0 <__malloc_unlock>
    c528:	00f47e63          	bgeu	s0,a5,c544 <_free_r+0x54>
    c52c:	4014                	lw	a3,0(s0)
    c52e:	00d40733          	add	a4,s0,a3
    c532:	00e79663          	bne	a5,a4,c53e <_free_r+0x4e>
    c536:	4398                	lw	a4,0(a5)
    c538:	43dc                	lw	a5,4(a5)
    c53a:	9736                	add	a4,a4,a3
    c53c:	c018                	sw	a4,0(s0)
    c53e:	c05c                	sw	a5,4(s0)
    c540:	bfe1                	j	c518 <_free_r+0x28>
    c542:	87ba                	mv	a5,a4
    c544:	43d8                	lw	a4,4(a5)
    c546:	c319                	beqz	a4,c54c <_free_r+0x5c>
    c548:	fee47de3          	bgeu	s0,a4,c542 <_free_r+0x52>
    c54c:	4394                	lw	a3,0(a5)
    c54e:	00d78633          	add	a2,a5,a3
    c552:	00861f63          	bne	a2,s0,c570 <_free_r+0x80>
    c556:	4010                	lw	a2,0(s0)
    c558:	96b2                	add	a3,a3,a2
    c55a:	c394                	sw	a3,0(a5)
    c55c:	00d78633          	add	a2,a5,a3
    c560:	fac71ee3          	bne	a4,a2,c51c <_free_r+0x2c>
    c564:	4310                	lw	a2,0(a4)
    c566:	4358                	lw	a4,4(a4)
    c568:	96b2                	add	a3,a3,a2
    c56a:	c394                	sw	a3,0(a5)
    c56c:	c3d8                	sw	a4,4(a5)
    c56e:	b77d                	j	c51c <_free_r+0x2c>
    c570:	00c47563          	bgeu	s0,a2,c57a <_free_r+0x8a>
    c574:	47b1                	li	a5,12
    c576:	c09c                	sw	a5,0(s1)
    c578:	b755                	j	c51c <_free_r+0x2c>
    c57a:	4010                	lw	a2,0(s0)
    c57c:	00c406b3          	add	a3,s0,a2
    c580:	00d71663          	bne	a4,a3,c58c <_free_r+0x9c>
    c584:	4314                	lw	a3,0(a4)
    c586:	4358                	lw	a4,4(a4)
    c588:	96b2                	add	a3,a3,a2
    c58a:	c014                	sw	a3,0(s0)
    c58c:	c058                	sw	a4,4(s0)
    c58e:	c3c0                	sw	s0,4(a5)
    c590:	b771                	j	c51c <_free_r+0x2c>
    c592:	8082                	ret

0000c594 <_malloc_r>:
    c594:	1101                	addi	sp,sp,-32
    c596:	ca26                	sw	s1,20(sp)
    c598:	00358493          	addi	s1,a1,3
    c59c:	98f1                	andi	s1,s1,-4
    c59e:	ce06                	sw	ra,28(sp)
    c5a0:	cc22                	sw	s0,24(sp)
    c5a2:	c84a                	sw	s2,16(sp)
    c5a4:	c64e                	sw	s3,12(sp)
    c5a6:	04a1                	addi	s1,s1,8
    c5a8:	47b1                	li	a5,12
    c5aa:	04f4f163          	bgeu	s1,a5,c5ec <_malloc_r+0x58>
    c5ae:	44b1                	li	s1,12
    c5b0:	04b4e063          	bltu	s1,a1,c5f0 <_malloc_r+0x5c>
    c5b4:	892a                	mv	s2,a0
    c5b6:	2621                	jal	c8be <__malloc_lock>
    c5b8:	a2018793          	addi	a5,gp,-1504 # 20000320 <__malloc_free_list>
    c5bc:	4398                	lw	a4,0(a5)
    c5be:	843a                	mv	s0,a4
    c5c0:	e031                	bnez	s0,c604 <_malloc_r+0x70>
    c5c2:	a2418793          	addi	a5,gp,-1500 # 20000324 <__malloc_sbrk_start>
    c5c6:	439c                	lw	a5,0(a5)
    c5c8:	e791                	bnez	a5,c5d4 <_malloc_r+0x40>
    c5ca:	4581                	li	a1,0
    c5cc:	854a                	mv	a0,s2
    c5ce:	2a21                	jal	c6e6 <_sbrk_r>
    c5d0:	a2a1a223          	sw	a0,-1500(gp) # 20000324 <__malloc_sbrk_start>
    c5d4:	85a6                	mv	a1,s1
    c5d6:	854a                	mv	a0,s2
    c5d8:	2239                	jal	c6e6 <_sbrk_r>
    c5da:	59fd                	li	s3,-1
    c5dc:	07351763          	bne	a0,s3,c64a <_malloc_r+0xb6>
    c5e0:	47b1                	li	a5,12
    c5e2:	00f92023          	sw	a5,0(s2)
    c5e6:	854a                	mv	a0,s2
    c5e8:	2ce1                	jal	c8c0 <__malloc_unlock>
    c5ea:	a029                	j	c5f4 <_malloc_r+0x60>
    c5ec:	fc04d2e3          	bgez	s1,c5b0 <_malloc_r+0x1c>
    c5f0:	47b1                	li	a5,12
    c5f2:	c11c                	sw	a5,0(a0)
    c5f4:	4501                	li	a0,0
    c5f6:	40f2                	lw	ra,28(sp)
    c5f8:	4462                	lw	s0,24(sp)
    c5fa:	44d2                	lw	s1,20(sp)
    c5fc:	4942                	lw	s2,16(sp)
    c5fe:	49b2                	lw	s3,12(sp)
    c600:	6105                	addi	sp,sp,32
    c602:	8082                	ret
    c604:	401c                	lw	a5,0(s0)
    c606:	8f85                	sub	a5,a5,s1
    c608:	0207ce63          	bltz	a5,c644 <_malloc_r+0xb0>
    c60c:	46ad                	li	a3,11
    c60e:	00f6f663          	bgeu	a3,a5,c61a <_malloc_r+0x86>
    c612:	c01c                	sw	a5,0(s0)
    c614:	943e                	add	s0,s0,a5
    c616:	c004                	sw	s1,0(s0)
    c618:	a031                	j	c624 <_malloc_r+0x90>
    c61a:	405c                	lw	a5,4(s0)
    c61c:	02871263          	bne	a4,s0,c640 <_malloc_r+0xac>
    c620:	a2f1a023          	sw	a5,-1504(gp) # 20000320 <__malloc_free_list>
    c624:	854a                	mv	a0,s2
    c626:	2c69                	jal	c8c0 <__malloc_unlock>
    c628:	00b40513          	addi	a0,s0,11
    c62c:	00440793          	addi	a5,s0,4
    c630:	9961                	andi	a0,a0,-8
    c632:	40f50733          	sub	a4,a0,a5
    c636:	d361                	beqz	a4,c5f6 <_malloc_r+0x62>
    c638:	943a                	add	s0,s0,a4
    c63a:	8f89                	sub	a5,a5,a0
    c63c:	c01c                	sw	a5,0(s0)
    c63e:	bf65                	j	c5f6 <_malloc_r+0x62>
    c640:	c35c                	sw	a5,4(a4)
    c642:	b7cd                	j	c624 <_malloc_r+0x90>
    c644:	8722                	mv	a4,s0
    c646:	4040                	lw	s0,4(s0)
    c648:	bfa5                	j	c5c0 <_malloc_r+0x2c>
    c64a:	00350413          	addi	s0,a0,3
    c64e:	9871                	andi	s0,s0,-4
    c650:	fc8503e3          	beq	a0,s0,c616 <_malloc_r+0x82>
    c654:	40a405b3          	sub	a1,s0,a0
    c658:	854a                	mv	a0,s2
    c65a:	2071                	jal	c6e6 <_sbrk_r>
    c65c:	fb351de3          	bne	a0,s3,c616 <_malloc_r+0x82>
    c660:	b741                	j	c5e0 <_malloc_r+0x4c>

0000c662 <_putc_r>:
    c662:	1101                	addi	sp,sp,-32
    c664:	cc22                	sw	s0,24(sp)
    c666:	ce06                	sw	ra,28(sp)
    c668:	842a                	mv	s0,a0
    c66a:	c909                	beqz	a0,c67c <_putc_r+0x1a>
    c66c:	4d1c                	lw	a5,24(a0)
    c66e:	e799                	bnez	a5,c67c <_putc_r+0x1a>
    c670:	c632                	sw	a2,12(sp)
    c672:	c42e                	sw	a1,8(sp)
    c674:	c09ff0ef          	jal	ra,c27c <__sinit>
    c678:	4632                	lw	a2,12(sp)
    c67a:	45a2                	lw	a1,8(sp)
    c67c:	00000797          	auipc	a5,0x0
    c680:	66478793          	addi	a5,a5,1636 # cce0 <__sf_fake_stdin>
    c684:	02f61663          	bne	a2,a5,c6b0 <_putc_r+0x4e>
    c688:	4050                	lw	a2,4(s0)
    c68a:	461c                	lw	a5,8(a2)
    c68c:	17fd                	addi	a5,a5,-1
    c68e:	c61c                	sw	a5,8(a2)
    c690:	0407d063          	bgez	a5,c6d0 <_putc_r+0x6e>
    c694:	4e18                	lw	a4,24(a2)
    c696:	00e7c763          	blt	a5,a4,c6a4 <_putc_r+0x42>
    c69a:	0ff5f793          	andi	a5,a1,255
    c69e:	4729                	li	a4,10
    c6a0:	02e79863          	bne	a5,a4,c6d0 <_putc_r+0x6e>
    c6a4:	8522                	mv	a0,s0
    c6a6:	4462                	lw	s0,24(sp)
    c6a8:	40f2                	lw	ra,28(sp)
    c6aa:	6105                	addi	sp,sp,32
    c6ac:	fccff06f          	j	be78 <__swbuf_r>
    c6b0:	00000797          	auipc	a5,0x0
    c6b4:	65078793          	addi	a5,a5,1616 # cd00 <__sf_fake_stdout>
    c6b8:	00f61463          	bne	a2,a5,c6c0 <_putc_r+0x5e>
    c6bc:	4410                	lw	a2,8(s0)
    c6be:	b7f1                	j	c68a <_putc_r+0x28>
    c6c0:	00000797          	auipc	a5,0x0
    c6c4:	60078793          	addi	a5,a5,1536 # ccc0 <__sf_fake_stderr>
    c6c8:	fcf611e3          	bne	a2,a5,c68a <_putc_r+0x28>
    c6cc:	4450                	lw	a2,12(s0)
    c6ce:	bf75                	j	c68a <_putc_r+0x28>
    c6d0:	421c                	lw	a5,0(a2)
    c6d2:	0ff5f513          	andi	a0,a1,255
    c6d6:	00178713          	addi	a4,a5,1
    c6da:	c218                	sw	a4,0(a2)
    c6dc:	a38c                	sb	a1,0(a5)
    c6de:	40f2                	lw	ra,28(sp)
    c6e0:	4462                	lw	s0,24(sp)
    c6e2:	6105                	addi	sp,sp,32
    c6e4:	8082                	ret

0000c6e6 <_sbrk_r>:
    c6e6:	1141                	addi	sp,sp,-16
    c6e8:	c422                	sw	s0,8(sp)
    c6ea:	842a                	mv	s0,a0
    c6ec:	852e                	mv	a0,a1
    c6ee:	1fffe797          	auipc	a5,0x1fffe
    c6f2:	d007a323          	sw	zero,-762(a5) # 2000a3f4 <errno>
    c6f6:	c606                	sw	ra,12(sp)
    c6f8:	b8cf80ef          	jal	ra,4a84 <_sbrk>
    c6fc:	57fd                	li	a5,-1
    c6fe:	00f51963          	bne	a0,a5,c710 <_sbrk_r+0x2a>
    c702:	1fffe797          	auipc	a5,0x1fffe
    c706:	cf278793          	addi	a5,a5,-782 # 2000a3f4 <errno>
    c70a:	439c                	lw	a5,0(a5)
    c70c:	c391                	beqz	a5,c710 <_sbrk_r+0x2a>
    c70e:	c01c                	sw	a5,0(s0)
    c710:	40b2                	lw	ra,12(sp)
    c712:	4422                	lw	s0,8(sp)
    c714:	0141                	addi	sp,sp,16
    c716:	8082                	ret

0000c718 <__sread>:
    c718:	1141                	addi	sp,sp,-16
    c71a:	c422                	sw	s0,8(sp)
    c71c:	842e                	mv	s0,a1
    c71e:	00e59583          	lh	a1,14(a1)
    c722:	c606                	sw	ra,12(sp)
    c724:	2a79                	jal	c8c2 <_read_r>
    c726:	00054963          	bltz	a0,c738 <__sread+0x20>
    c72a:	487c                	lw	a5,84(s0)
    c72c:	97aa                	add	a5,a5,a0
    c72e:	c87c                	sw	a5,84(s0)
    c730:	40b2                	lw	ra,12(sp)
    c732:	4422                	lw	s0,8(sp)
    c734:	0141                	addi	sp,sp,16
    c736:	8082                	ret
    c738:	245e                	lhu	a5,12(s0)
    c73a:	777d                	lui	a4,0xfffff
    c73c:	177d                	addi	a4,a4,-1
    c73e:	8ff9                	and	a5,a5,a4
    c740:	a45e                	sh	a5,12(s0)
    c742:	b7fd                	j	c730 <__sread+0x18>

0000c744 <__swrite>:
    c744:	25de                	lhu	a5,12(a1)
    c746:	1101                	addi	sp,sp,-32
    c748:	cc22                	sw	s0,24(sp)
    c74a:	ca26                	sw	s1,20(sp)
    c74c:	c84a                	sw	s2,16(sp)
    c74e:	c64e                	sw	s3,12(sp)
    c750:	ce06                	sw	ra,28(sp)
    c752:	1007f793          	andi	a5,a5,256
    c756:	84aa                	mv	s1,a0
    c758:	842e                	mv	s0,a1
    c75a:	8932                	mv	s2,a2
    c75c:	89b6                	mv	s3,a3
    c75e:	c791                	beqz	a5,c76a <__swrite+0x26>
    c760:	00e59583          	lh	a1,14(a1)
    c764:	4689                	li	a3,2
    c766:	4601                	li	a2,0
    c768:	220d                	jal	c88a <_lseek_r>
    c76a:	245e                	lhu	a5,12(s0)
    c76c:	777d                	lui	a4,0xfffff
    c76e:	177d                	addi	a4,a4,-1
    c770:	8ff9                	and	a5,a5,a4
    c772:	a45e                	sh	a5,12(s0)
    c774:	00e41583          	lh	a1,14(s0)
    c778:	4462                	lw	s0,24(sp)
    c77a:	40f2                	lw	ra,28(sp)
    c77c:	86ce                	mv	a3,s3
    c77e:	864a                	mv	a2,s2
    c780:	49b2                	lw	s3,12(sp)
    c782:	4942                	lw	s2,16(sp)
    c784:	8526                	mv	a0,s1
    c786:	44d2                	lw	s1,20(sp)
    c788:	6105                	addi	sp,sp,32
    c78a:	a825                	j	c7c2 <_write_r>

0000c78c <__sseek>:
    c78c:	1141                	addi	sp,sp,-16
    c78e:	c422                	sw	s0,8(sp)
    c790:	842e                	mv	s0,a1
    c792:	00e59583          	lh	a1,14(a1)
    c796:	c606                	sw	ra,12(sp)
    c798:	28cd                	jal	c88a <_lseek_r>
    c79a:	57fd                	li	a5,-1
    c79c:	245a                	lhu	a4,12(s0)
    c79e:	00f51a63          	bne	a0,a5,c7b2 <__sseek+0x26>
    c7a2:	77fd                	lui	a5,0xfffff
    c7a4:	17fd                	addi	a5,a5,-1
    c7a6:	8ff9                	and	a5,a5,a4
    c7a8:	a45e                	sh	a5,12(s0)
    c7aa:	40b2                	lw	ra,12(sp)
    c7ac:	4422                	lw	s0,8(sp)
    c7ae:	0141                	addi	sp,sp,16
    c7b0:	8082                	ret
    c7b2:	6785                	lui	a5,0x1
    c7b4:	8fd9                	or	a5,a5,a4
    c7b6:	a45e                	sh	a5,12(s0)
    c7b8:	c868                	sw	a0,84(s0)
    c7ba:	bfc5                	j	c7aa <__sseek+0x1e>

0000c7bc <__sclose>:
    c7bc:	00e59583          	lh	a1,14(a1)
    c7c0:	a825                	j	c7f8 <_close_r>

0000c7c2 <_write_r>:
    c7c2:	1141                	addi	sp,sp,-16
    c7c4:	c422                	sw	s0,8(sp)
    c7c6:	842a                	mv	s0,a0
    c7c8:	852e                	mv	a0,a1
    c7ca:	85b2                	mv	a1,a2
    c7cc:	8636                	mv	a2,a3
    c7ce:	1fffe797          	auipc	a5,0x1fffe
    c7d2:	c207a323          	sw	zero,-986(a5) # 2000a3f4 <errno>
    c7d6:	c606                	sw	ra,12(sp)
    c7d8:	a6ef80ef          	jal	ra,4a46 <_write>
    c7dc:	57fd                	li	a5,-1
    c7de:	00f51963          	bne	a0,a5,c7f0 <_write_r+0x2e>
    c7e2:	1fffe797          	auipc	a5,0x1fffe
    c7e6:	c1278793          	addi	a5,a5,-1006 # 2000a3f4 <errno>
    c7ea:	439c                	lw	a5,0(a5)
    c7ec:	c391                	beqz	a5,c7f0 <_write_r+0x2e>
    c7ee:	c01c                	sw	a5,0(s0)
    c7f0:	40b2                	lw	ra,12(sp)
    c7f2:	4422                	lw	s0,8(sp)
    c7f4:	0141                	addi	sp,sp,16
    c7f6:	8082                	ret

0000c7f8 <_close_r>:
    c7f8:	1141                	addi	sp,sp,-16
    c7fa:	c422                	sw	s0,8(sp)
    c7fc:	842a                	mv	s0,a0
    c7fe:	852e                	mv	a0,a1
    c800:	1fffe797          	auipc	a5,0x1fffe
    c804:	be07aa23          	sw	zero,-1036(a5) # 2000a3f4 <errno>
    c808:	c606                	sw	ra,12(sp)
    c80a:	20f5                	jal	c8f6 <_close>
    c80c:	57fd                	li	a5,-1
    c80e:	00f51963          	bne	a0,a5,c820 <_close_r+0x28>
    c812:	1fffe797          	auipc	a5,0x1fffe
    c816:	be278793          	addi	a5,a5,-1054 # 2000a3f4 <errno>
    c81a:	439c                	lw	a5,0(a5)
    c81c:	c391                	beqz	a5,c820 <_close_r+0x28>
    c81e:	c01c                	sw	a5,0(s0)
    c820:	40b2                	lw	ra,12(sp)
    c822:	4422                	lw	s0,8(sp)
    c824:	0141                	addi	sp,sp,16
    c826:	8082                	ret

0000c828 <_fstat_r>:
    c828:	1141                	addi	sp,sp,-16
    c82a:	c422                	sw	s0,8(sp)
    c82c:	842a                	mv	s0,a0
    c82e:	852e                	mv	a0,a1
    c830:	85b2                	mv	a1,a2
    c832:	1fffe797          	auipc	a5,0x1fffe
    c836:	bc07a123          	sw	zero,-1086(a5) # 2000a3f4 <errno>
    c83a:	c606                	sw	ra,12(sp)
    c83c:	20e9                	jal	c906 <_fstat>
    c83e:	57fd                	li	a5,-1
    c840:	00f51963          	bne	a0,a5,c852 <_fstat_r+0x2a>
    c844:	1fffe797          	auipc	a5,0x1fffe
    c848:	bb078793          	addi	a5,a5,-1104 # 2000a3f4 <errno>
    c84c:	439c                	lw	a5,0(a5)
    c84e:	c391                	beqz	a5,c852 <_fstat_r+0x2a>
    c850:	c01c                	sw	a5,0(s0)
    c852:	40b2                	lw	ra,12(sp)
    c854:	4422                	lw	s0,8(sp)
    c856:	0141                	addi	sp,sp,16
    c858:	8082                	ret

0000c85a <_isatty_r>:
    c85a:	1141                	addi	sp,sp,-16
    c85c:	c422                	sw	s0,8(sp)
    c85e:	842a                	mv	s0,a0
    c860:	852e                	mv	a0,a1
    c862:	1fffe797          	auipc	a5,0x1fffe
    c866:	b807a923          	sw	zero,-1134(a5) # 2000a3f4 <errno>
    c86a:	c606                	sw	ra,12(sp)
    c86c:	206d                	jal	c916 <_isatty>
    c86e:	57fd                	li	a5,-1
    c870:	00f51963          	bne	a0,a5,c882 <_isatty_r+0x28>
    c874:	1fffe797          	auipc	a5,0x1fffe
    c878:	b8078793          	addi	a5,a5,-1152 # 2000a3f4 <errno>
    c87c:	439c                	lw	a5,0(a5)
    c87e:	c391                	beqz	a5,c882 <_isatty_r+0x28>
    c880:	c01c                	sw	a5,0(s0)
    c882:	40b2                	lw	ra,12(sp)
    c884:	4422                	lw	s0,8(sp)
    c886:	0141                	addi	sp,sp,16
    c888:	8082                	ret

0000c88a <_lseek_r>:
    c88a:	1141                	addi	sp,sp,-16
    c88c:	c422                	sw	s0,8(sp)
    c88e:	842a                	mv	s0,a0
    c890:	852e                	mv	a0,a1
    c892:	85b2                	mv	a1,a2
    c894:	8636                	mv	a2,a3
    c896:	1fffe797          	auipc	a5,0x1fffe
    c89a:	b407af23          	sw	zero,-1186(a5) # 2000a3f4 <errno>
    c89e:	c606                	sw	ra,12(sp)
    c8a0:	2059                	jal	c926 <_lseek>
    c8a2:	57fd                	li	a5,-1
    c8a4:	00f51963          	bne	a0,a5,c8b6 <_lseek_r+0x2c>
    c8a8:	1fffe797          	auipc	a5,0x1fffe
    c8ac:	b4c78793          	addi	a5,a5,-1204 # 2000a3f4 <errno>
    c8b0:	439c                	lw	a5,0(a5)
    c8b2:	c391                	beqz	a5,c8b6 <_lseek_r+0x2c>
    c8b4:	c01c                	sw	a5,0(s0)
    c8b6:	40b2                	lw	ra,12(sp)
    c8b8:	4422                	lw	s0,8(sp)
    c8ba:	0141                	addi	sp,sp,16
    c8bc:	8082                	ret

0000c8be <__malloc_lock>:
    c8be:	8082                	ret

0000c8c0 <__malloc_unlock>:
    c8c0:	8082                	ret

0000c8c2 <_read_r>:
    c8c2:	1141                	addi	sp,sp,-16
    c8c4:	c422                	sw	s0,8(sp)
    c8c6:	842a                	mv	s0,a0
    c8c8:	852e                	mv	a0,a1
    c8ca:	85b2                	mv	a1,a2
    c8cc:	8636                	mv	a2,a3
    c8ce:	1fffe797          	auipc	a5,0x1fffe
    c8d2:	b207a323          	sw	zero,-1242(a5) # 2000a3f4 <errno>
    c8d6:	c606                	sw	ra,12(sp)
    c8d8:	28b9                	jal	c936 <_read>
    c8da:	57fd                	li	a5,-1
    c8dc:	00f51963          	bne	a0,a5,c8ee <_read_r+0x2c>
    c8e0:	1fffe797          	auipc	a5,0x1fffe
    c8e4:	b1478793          	addi	a5,a5,-1260 # 2000a3f4 <errno>
    c8e8:	439c                	lw	a5,0(a5)
    c8ea:	c391                	beqz	a5,c8ee <_read_r+0x2c>
    c8ec:	c01c                	sw	a5,0(s0)
    c8ee:	40b2                	lw	ra,12(sp)
    c8f0:	4422                	lw	s0,8(sp)
    c8f2:	0141                	addi	sp,sp,16
    c8f4:	8082                	ret

0000c8f6 <_close>:
    c8f6:	05800793          	li	a5,88
    c8fa:	1fffe717          	auipc	a4,0x1fffe
    c8fe:	aef72d23          	sw	a5,-1286(a4) # 2000a3f4 <errno>
    c902:	557d                	li	a0,-1
    c904:	8082                	ret

0000c906 <_fstat>:
    c906:	05800793          	li	a5,88
    c90a:	1fffe717          	auipc	a4,0x1fffe
    c90e:	aef72523          	sw	a5,-1302(a4) # 2000a3f4 <errno>
    c912:	557d                	li	a0,-1
    c914:	8082                	ret

0000c916 <_isatty>:
    c916:	05800793          	li	a5,88
    c91a:	1fffe717          	auipc	a4,0x1fffe
    c91e:	acf72d23          	sw	a5,-1318(a4) # 2000a3f4 <errno>
    c922:	4501                	li	a0,0
    c924:	8082                	ret

0000c926 <_lseek>:
    c926:	05800793          	li	a5,88
    c92a:	1fffe717          	auipc	a4,0x1fffe
    c92e:	acf72523          	sw	a5,-1334(a4) # 2000a3f4 <errno>
    c932:	557d                	li	a0,-1
    c934:	8082                	ret

0000c936 <_read>:
    c936:	05800793          	li	a5,88
    c93a:	1fffe717          	auipc	a4,0x1fffe
    c93e:	aaf72d23          	sw	a5,-1350(a4) # 2000a3f4 <errno>
    c942:	557d                	li	a0,-1
    c944:	8082                	ret
    c946:	0000                	unimp
    c948:	276e6163          	bltu	t3,s6,cbaa <MemSize+0xa2>
    c94c:	2074                	lbu	a3,6(s0)
    c94e:	6e69                	lui	t3,0x1a
    c950:	7469                	lui	s0,0xffffa
    c952:	6169                	addi	sp,sp,208
    c954:	696c                	flw	fa1,84(a0)
    c956:	657a                	flw	fa0,156(sp)
    c958:	6d20                	flw	fs0,88(a0)
    c95a:	7562646f          	jal	s0,330b0 <_data_lma+0x26390>
    c95e:	74732073          	csrs	0x747,t1
    c962:	6361                	lui	t1,0x18
    c964:	000d216b          	0xd216b
    c968:	7246                	flw	ft4,112(sp)
    c96a:	6565                	lui	a0,0x19
    c96c:	6f4d                	lui	t5,0x13
    c96e:	6264                	flw	fs1,68(a2)
    c970:	7375                	lui	t1,0xffffd
    c972:	0000                	unimp
    c974:	7325                	lui	t1,0xfffe9
    c976:	203a                	lhu	a4,2(s0)
    c978:	276e6163          	bltu	t3,s6,cbda <MemSize+0xd2>
    c97c:	2074                	lbu	a3,6(s0)
    c97e:	6e65                	lui	t3,0x19
    c980:	6261                	lui	tp,0x18
    c982:	656c                	flw	fa1,76(a0)
    c984:	6d20                	flw	fs0,88(a0)
    c986:	7562646f          	jal	s0,330dc <_data_lma+0x263bc>
    c98a:	74732073          	csrs	0x747,t1
    c98e:	6361                	lui	t1,0x18
    c990:	0a0d216b          	0xa0d216b
    c994:	0000                	unimp
    c996:	0000                	unimp
    c998:	63617473          	csrrci	s0,0x636,2
    c99c:	6b6f206b          	0x6b6f206b
    c9a0:	0021                	c.nop	8
    c9a2:	0000                	unimp
    c9a4:	544e4947          	0x544e4947
    c9a8:	535f 4154 5f54      	0x5f544154535f
    c9ae:	4e55                	li	t3,21
    c9b0:	4552                	lw	a0,20(sp)
    c9b2:	4341                	li	t1,16
    c9b4:	0d48                	addi	a0,sp,660
    c9b6:	0000                	unimp
    c9b8:	544e4947          	0x544e4947
    c9bc:	535f 4154 5f54      	0x5f544154535f
    c9c2:	5049                	c.li	zero,-14
    c9c4:	435f 4e4f 4c46      	0x4c464e4f435f
    c9ca:	0d49                	addi	s10,s10,18
    c9cc:	0000                	unimp
    c9ce:	0000                	unimp
    c9d0:	4850                	lw	a2,20(s0)
    c9d2:	2059                	jal	ca58 <_read+0x122>
    c9d4:	694c                	flw	fa1,20(a0)
    c9d6:	6b6e                	flw	fs6,216(sp)
    c9d8:	5320                	lw	s0,96(a4)
    c9da:	6375                	lui	t1,0x1d
    c9dc:	73736563          	bltu	t1,s7,d106 <_data_lma+0x3e6>
    c9e0:	000d                	c.nop	3
    c9e2:	0000                	unimp
    c9e4:	4354                	lw	a3,4(a4)
    c9e6:	2050                	lbu	a2,4(s0)
    c9e8:	6e6e6f43          	fmadd.q	ft10,ft8,ft6,fa3,unknown
    c9ec:	6365                	lui	t1,0x19
    c9ee:	2074                	lbu	a3,6(s0)
    c9f0:	63637553          	0x63637553
    c9f4:	7365                	lui	t1,0xffff9
    c9f6:	00000d73          	0xd73
    c9fa:	0000                	unimp
    c9fc:	6b636f73          	csrrsi	t5,0x6b6,6
    ca00:	7465                	lui	s0,0xffff9
    ca02:	6920                	flw	fs0,80(a0)
    ca04:	3a64                	lbu	s1,23(a2)
    ca06:	2520                	lbu	s0,10(a0)
    ca08:	0d64                	addi	s1,sp,668
    ca0a:	000a                	c.slli	zero,0x2
    ca0c:	4354                	lw	a3,4(a4)
    ca0e:	2050                	lbu	a2,4(s0)
    ca10:	6944                	flw	fs1,20(a0)
    ca12:	6e6f6373          	csrrsi	t1,0x6e6,30
    ca16:	656e                	flw	fa0,216(sp)
    ca18:	000d7463          	bgeu	s10,zero,ca20 <_read+0xea>
    ca1c:	4354                	lw	a3,4(a4)
    ca1e:	2050                	lbu	a2,4(s0)
    ca20:	6954                	flw	fa3,20(a0)
    ca22:	656d                	lui	a0,0x1b
    ca24:	0d74756f          	jal	a0,542fa <_data_lma+0x475da>
    ca28:	0000                	unimp
    ca2a:	0000                	unimp
    ca2c:	616d                	addi	sp,sp,240
    ca2e:	64612063          	0x64612063
    ca32:	7264                	flw	fs1,100(a2)
    ca34:	003a                	c.slli	zero,0xe
    ca36:	0000                	unimp
    ca38:	7825                	lui	a6,0xfffe9
    ca3a:	0020                	addi	s0,sp,8
    ca3c:	4e484357          	0x4e484357
    ca40:	5445                	li	s0,-15
    ca42:	4c5f 6269 6e49      	0x6e4962694c5f
    ca48:	7469                	lui	s0,0xffffa
    ca4a:	5320                	lw	s0,96(a4)
    ca4c:	6375                	lui	t1,0x1d
    ca4e:	73736563          	bltu	t1,s7,d178 <_data_lma+0x458>
    ca52:	000d                	c.nop	3
    ca54:	694c                	flw	fa1,20(a0)
    ca56:	656e7473          	csrrci	s0,0x656,28
    ca5a:	5372                	lw	t1,60(sp)
    ca5c:	6b65636f          	jal	t1,63112 <_data_lma+0x563f2>
    ca60:	7465                	lui	s0,0xffff9
    ca62:	61657243          	fmadd.s	ft4,fa0,fs6,fa2
    ca66:	6574                	flw	fa3,76(a0)
    ca68:	0d0a                	slli	s10,s10,0x2
    ca6a:	0000                	unimp
    ca6c:	6148                	flw	fa0,4(a0)
    ca6e:	6472                	flw	fs0,28(sp)
    ca70:	6146                	flw	ft2,80(sp)
    ca72:	6c75                	lui	s8,0x1d
    ca74:	5f74                	lw	a3,124(a4)
    ca76:	6148                	flw	fa0,4(a0)
    ca78:	646e                	flw	fs0,216(sp)
    ca7a:	656c                	flw	fa1,76(a0)
    ca7c:	0d72                	slli	s10,s10,0x1c
    ca7e:	0000                	unimp
    ca80:	656d                	lui	a0,0x1b
    ca82:	6370                	flw	fa2,68(a4)
    ca84:	2020                	lbu	s0,2(s0)
    ca86:	253a                	lhu	a4,10(a0)
    ca88:	3830                	lbu	a2,19(s0)
    ca8a:	0d78                	addi	a4,sp,668
    ca8c:	000a                	c.slli	zero,0x2
    ca8e:	0000                	unimp
    ca90:	636d                	lui	t1,0x1b
    ca92:	7561                	lui	a0,0xffff8
    ca94:	253a6573          	csrrsi	a0,0x253,20
    ca98:	3830                	lbu	a2,19(s0)
    ca9a:	0d78                	addi	a4,sp,668
    ca9c:	000a                	c.slli	zero,0x2
    ca9e:	0000                	unimp
    caa0:	746d                	lui	s0,0xffffb
    caa2:	6176                	flw	ft2,92(sp)
    caa4:	206c                	lbu	a1,6(s0)
    caa6:	253a                	lhu	a4,10(a0)
    caa8:	3830                	lbu	a2,19(s0)
    caaa:	0d78                	addi	a4,sp,668
    caac:	000a                	c.slli	zero,0x2
    caae:	0000                	unimp
    cab0:	7245                	lui	tp,0xffff1
    cab2:	6f72                	flw	ft10,28(sp)
    cab4:	3a72                	lhu	a2,54(a2)
    cab6:	2520                	lbu	s0,10(a0)
    cab8:	3230                	lbu	a2,3(a2)
    caba:	0d58                	addi	a4,sp,660
    cabc:	000a                	c.slli	zero,0x2
    cabe:	0000                	unimp
    cac0:	74737953          	0x74737953
    cac4:	6d65                	lui	s10,0x19
    cac6:	3a6b6c43          	fmadd.d	fs8,fs6,ft6,ft7,unknown
    caca:	6425                	lui	s0,0x9
    cacc:	0a0d                	addi	s4,s4,3
    cace:	0000                	unimp
    cad0:	756f6873          	csrrsi	a6,0x756,30
    cad4:	646c                	flw	fa1,76(s0)
    cad6:	276e                	lhu	a1,14(a4)
    cad8:	2074                	lbu	a3,6(s0)
    cada:	7572                	flw	fa0,60(sp)
    cadc:	206e                	lhu	a1,6(s0)
    cade:	7461                	lui	s0,0xffff8
    cae0:	6820                	flw	fs0,80(s0)
    cae2:	7265                	lui	tp,0xffff9
    cae4:	2165                	jal	cf8c <_data_lma+0x26c>
    cae6:	0021                	c.nop	8
    cae8:	504d                	c.li	zero,-13
    caea:	4354                	lw	a3,4(a4)
    caec:	0050                	addi	a2,sp,4
    caee:	0000                	unimp
    caf0:	6544                	flw	fs1,12(a0)
    caf2:	5466                	lw	s0,120(sp)
    caf4:	7361                	lui	t1,0xffff8
    caf6:	          	0x6b

0000caf8 <MemNum>:
    caf8:	00000000 00010001 00000002 00040004     ................

0000cb08 <MemSize>:
    cb08:	0020001c 002400b4 00200014 06000010     .. ...$... .....
    cb18:	462f2e2e 52656572 2f534f54 74726f70     ../FreeRTOS/port
    cb28:	656c6261 6d654d2f 676e614d 6165682f     able/MemMang/hea
    cb38:	2e345f70 00000063 20727265 6c207461     p_4.c...err at l
    cb48:	20656e69 6f206425 69662066 2220656c     ine %d of file "
    cb58:	2e227325 200a0d20 00000000 462f2e2e     %s". .. ....../F
    cb68:	52656572 2f534f54 74726f70 656c6261     reeRTOS/portable
    cb78:	4343472f 5349522f 2f562d43 74726f70     /GCC/RISC-V/port
    cb88:	0000632e 462f2e2e 52656572 2f534f54     .c..../FreeRTOS/
    cb98:	6e657665 72675f74 7370756f 0000632e     event_groups.c..
    cba8:	462f2e2e 52656572 2f534f54 75657571     ../FreeRTOS/queu
    cbb8:	00632e65 462f2e2e 52656572 2f534f54     e.c.../FreeRTOS/
    cbc8:	6b736174 00632e73 454c4449 00000000     tasks.c.IDLE....
    cbd8:	00004846 00004846 0000488a 00004896     FH..FH...H...H..
    cbe8:	000048da 00004846 00004846 0000488a     .H..FH..FH...H..
    cbf8:	00004896 51726d54 00000000 462f2e2e     .H..TmrQ....../F
    cc08:	52656572 2f534f54 656d6974 632e7372     reeRTOS/timers.c
    cc18:	00000000 20726d54 00637653              ....Tmr Svc.

0000cc24 <ErrTable>:
    cc24:	13121100 17161514 1b1a1918 1f1e1d1c     ................
    cc34:	0000872a 00008770 0000878a 0000879a     *...p...........
    cc44:	0000879a 00008786 00008786 000087a8     ................

0000cc54 <tcp_backoff>:
    cc54:	04030201 07070605 07070707 00000007     ................
    cc64:	00009ba6 00009cb4 00009da0 00009da8     ................
    cc74:	00009e4e 00009da0 00009e94 00009ed0     N...............
    cc84:	2b302d23 00000020 004c6c68 45676665     #-0+ ...hlL.efgE
    cc94:	00004746 33323130 37363534 42413938     FG..0123456789AB
    cca4:	46454443 00000000 33323130 37363534     CDEF....01234567
    ccb4:	62613938 66656463 00000000              89abcdef....

0000ccc0 <__sf_fake_stderr>:
	...

0000cce0 <__sf_fake_stdin>:
	...

0000cd00 <__sf_fake_stdout>:
	...
